 PhysX3CHECKED_x64

 Timestamp is 58ba639b (Fri Mar  3 23:50:03 2017)

 Preferred load address is 0000000180000000

 Start         Length     Name                   Class
 0001:00000000 00025ac0H .text$di                CODE
 0001:00025ac0 002f9a90H .text$mn                CODE
 0001:0031f550 00001020H .text$mn$00             CODE
 0001:00320570 00001a60H .text$x                 CODE
 0001:00321fd0 00001012H .text$yd                CODE
 0002:00000000 00000110H .CRT$XCA                DATA
 0002:00000110 000030d0H .CRT$XCU                DATA
 0002:000031e0 00000110H .CRT$XCZ                DATA
 0002:000032f0 00000110H .CRT$XIA                DATA
 0002:00003400 00000130H .CRT$XIC                DATA
 0002:00003530 00000110H .CRT$XIZ                DATA
 0002:00003640 00000110H .CRT$XPA                DATA
 0002:00003750 00000120H .CRT$XPX                DATA
 0002:00003870 00000110H .CRT$XPXA               DATA
 0002:00003980 00000110H .CRT$XPZ                DATA
 0002:00003a90 00000110H .CRT$XTA                DATA
 0002:00003ba0 00000120H .CRT$XTZ                DATA
 0002:00003cc0 00040938H .rdata                  DATA
 0002:000445f8 000004ecH .rdata$r                DATA
 0002:00044ae4 000001a4H .rdata$zzzdbg           DATA
 0002:00044c88 00000110H .rtc$IAA                DATA
 0002:00044d98 00000110H .rtc$IZZ                DATA
 0002:00044ea8 00000110H .rtc$TAA                DATA
 0002:00044fb8 00000110H .rtc$TZZ                DATA
 0002:000450c8 00035028H .xdata                  DATA
 0002:0007a0f0 00002756H .edata                  DATA
 0003:00000000 00007700H .data                   DATA
 0003:00007700 000014a0H .data$r                 DATA
 0003:00008ba0 000090b9H .bss                    DATA
 0004:00000000 00023190H .pdata                  DATA
 0005:00000000 00000458H .idata$5                DATA
 0005:00000458 00000028H .idata$2                DATA
 0005:00000480 00000018H .idata$3                DATA
 0005:00000498 00000458H .idata$4                DATA
 0005:000008f0 00000914H .idata$6                DATA
 0006:00000000 00000020H .didat$2                DATA
 0006:00000020 00000020H .didat$3                DATA
 0006:00000040 00000af8H .didat$4                DATA
 0006:00000b38 00000af8H .didat$5                DATA
 0006:00001630 00005ae8H .didat$6                DATA
 0006:00007118 00000accH .didat$7                DATA
 0007:00000000 00000220H .gfids$x                DATA
 0007:00000220 000001a5H .gfids$y                DATA
 0008:00000000 0000011bH .00cfg                  DATA
 0009:00000000 000001c0H .rsrc$01                DATA
 0009:000001c0 00000679H .rsrc$02                DATA

  Address         Publics by Value              Rva+Base               Lib:Object

 0000:00000000       ___safe_se_handler_table   0000000000000000     <absolute>
 0000:00000000       __guard_fids_table         0000000000000000     <absolute>
 0000:00000000       __dynamic_value_reloc_table 0000000000000000     <absolute>
 0000:00000000       ___safe_se_handler_count   0000000000000000     <absolute>
 0000:00000000       __guard_longjmp_count      0000000000000000     <absolute>
 0000:00000000       __guard_iat_table          0000000000000000     <absolute>
 0000:00000000       __guard_longjmp_table      0000000000000000     <absolute>
 0000:00000000       __guard_fids_count         0000000000000000     <absolute>
 0000:00000000       __guard_iat_count          0000000000000000     <absolute>
 0000:00000100       __guard_flags              0000000000000100     <absolute>
 0000:00000000       __ImageBase                0000000180000000     <linker-defined>
 0001:00025ac0       PxSetPhysXDelayLoadHook    0000000180026ac0 f   NpWindowsDelayLoadHook.obj
 0001:00025ad0       ?delayHook@@YAP6A_JXZIPEAUDelayLoadInfo@@@Z 0000000180026ad0 f   NpWindowsDelayLoadHook.obj
 0001:00025b30       ?physXCommonDliNotePreLoadLibrary@shdfnd@physx@@YAP6A_JXZPEBDPEBVPxDelayLoadHook@2@@Z 0000000180026b30 f i NpWindowsDelayLoadHook.obj
 0001:00026000       ?createObject@NpParticleFluid@physx@@SAPEAV12@AEAPEAEAEAVPxDeserializationContext@2@@Z 0000000180027000 f   NpParticleFluid.obj
 0001:000260c0       ??0NpParticleFluid@physx@@QEAA@I_N@Z 00000001800270c0 f   NpParticleFluid.obj
 0001:00026150       ??1NpParticleFluid@physx@@UEAA@XZ 0000000180027150 f   NpParticleFluid.obj
 0001:000261a0       ?is@NpParticleFluid@physx@@UEAAPEAXW4Enum@PxActorType@2@@Z 00000001800271a0 f   NpParticleFluid.obj
 0001:000261b0       ?is@NpParticleFluid@physx@@UEBAPEBXW4Enum@PxActorType@2@@Z 00000001800271b0 f   NpParticleFluid.obj
 0001:000261c0       ?lockParticleFluidReadData@NpParticleFluid@physx@@UEAAPEAVPxParticleFluidReadData@2@V?$PxFlags@W4Enum@PxDataAccessFlag@physx@@E@2@@Z 00000001800271c0 f   NpParticleFluid.obj
 0001:000261f0       ?lockParticleFluidReadData@NpParticleFluid@physx@@UEAAPEAVPxParticleFluidReadData@2@XZ 00000001800271f0 f   NpParticleFluid.obj
 0001:00026200       ?getStiffness@NpParticleFluid@physx@@UEBAMXZ 0000000180027200 f   NpParticleFluid.obj
 0001:00026270       ?setStiffness@NpParticleFluid@physx@@UEAAXM@Z 0000000180027270 f   NpParticleFluid.obj
 0001:00026300       ?getViscosity@NpParticleFluid@physx@@UEBAMXZ 0000000180027300 f   NpParticleFluid.obj
 0001:00026370       ?setViscosity@NpParticleFluid@physx@@UEAAXM@Z 0000000180027370 f   NpParticleFluid.obj
 0001:00026400       ?getRestParticleDistance@NpParticleFluid@physx@@UEBAMXZ 0000000180027400 f   NpParticleFluid.obj
 0001:00026460       ?setRestParticleDistance@NpParticleFluid@physx@@UEAAXM@Z 0000000180027460 f   NpParticleFluid.obj
 0001:00026690       ??$pointerOffset@PEAVActor@Scb@physx@@@shdfnd@physx@@YAPEAVActor@Scb@1@PEAX_J@Z 0000000180027690 f i NpParticleFluid.obj
 0001:000266a0       ??$pointerOffset@PEBVActor@Scb@physx@@@shdfnd@physx@@YAPEBVActor@Scb@1@PEBX_J@Z 00000001800276a0 f i NpParticleFluid.obj
 0001:000266b0       ??0?$NpActorTemplate@VPxParticleFluid@physx@@@physx@@QEAA@GV?$PxFlags@W4Enum@PxBaseFlag@physx@@G@1@PEBDPEAX@Z 00000001800276b0 f i NpParticleFluid.obj
 0001:00026720       ??0?$NpParticleBaseTemplate@VPxParticleFluid@physx@@VNpParticleFluid@2@@physx@@QEAA@GV?$PxFlags@W4Enum@PxBaseFlag@physx@@G@1@AEBW4Enum@PxActorType@1@I_N@Z 0000000180027720 f i NpParticleFluid.obj
 0001:000267b0       ??0NpParticleFluidReadData@physx@@QEAA@XZ 00000001800277b0 f i NpParticleFluid.obj
 0001:00026870       ??0PxVec3@physx@@QEAA@XZ   0000000180027870 f i NpParticleFluid.obj
 0001:00026880       ??1?$NpActorTemplate@VPxParticleFluid@physx@@@physx@@UEAA@XZ 0000000180027880 f i NpParticleFluid.obj
 0001:000268c0       ??1?$NpParticleBaseTemplate@VPxParticleFluid@physx@@VNpParticleFluid@2@@physx@@UEAA@XZ 00000001800278c0 f i NpParticleFluid.obj
 0001:00026920       ??1NpParticleFluidReadData@physx@@UEAA@XZ 0000000180027920 f i NpParticleFluid.obj
 0001:00026930       ??1PxActor@physx@@MEAA@XZ  0000000180027930 f i NpParticleFluid.obj
 0001:00026940       ??1PxBase@physx@@MEAA@XZ   0000000180027940 f i NpParticleFluid.obj
 0001:00026950       ??1PxLockedData@physx@@UEAA@XZ 0000000180027950 f i NpParticleFluid.obj
 0001:00026960       ??1PxParticleBase@physx@@MEAA@XZ 0000000180027960 f i NpParticleFluid.obj
 0001:00026970       ??1PxParticleFluid@physx@@MEAA@XZ 0000000180027970 f i NpParticleFluid.obj
 0001:00026980       ??1PxParticleFluidReadData@physx@@UEAA@XZ 0000000180027980 f i NpParticleFluid.obj
 0001:00026990       ??1PxParticleReadData@physx@@UEAA@XZ 0000000180027990 f i NpParticleFluid.obj
 0001:000269a0       ??_E?$NpActorTemplate@VPxParticleFluid@physx@@@physx@@UEAAPEAXI@Z 00000001800279a0 f i NpParticleFluid.obj
 0001:000269a0       ??_G?$NpActorTemplate@VPxParticleFluid@physx@@@physx@@UEAAPEAXI@Z 00000001800279a0 f i NpParticleFluid.obj
 0001:00026a40       ??_G?$NpParticleBaseTemplate@VPxParticleFluid@physx@@VNpParticleFluid@2@@physx@@UEAAPEAXI@Z 0000000180027a40 f i NpParticleFluid.obj
 0001:00026a40       ??_E?$NpParticleBaseTemplate@VPxParticleFluid@physx@@VNpParticleFluid@2@@physx@@UEAAPEAXI@Z 0000000180027a40 f i NpParticleFluid.obj
 0001:00026af0       ??_GNpParticleFluid@physx@@UEAAPEAXI@Z 0000000180027af0 f i NpParticleFluid.obj
 0001:00026af0       ??_ENpParticleFluid@physx@@UEAAPEAXI@Z 0000000180027af0 f i NpParticleFluid.obj
 0001:00026ba0       ??_ENpParticleFluidReadData@physx@@UEAAPEAXI@Z 0000000180027ba0 f i NpParticleFluid.obj
 0001:00026ba0       ??_GNpParticleFluidReadData@physx@@UEAAPEAXI@Z 0000000180027ba0 f i NpParticleFluid.obj
 0001:00026c00       ??_EPxActor@physx@@MEAAPEAXI@Z 0000000180027c00 f i NpParticleFluid.obj
 0001:00026c00       ??_GPxActor@physx@@MEAAPEAXI@Z 0000000180027c00 f i NpParticleFluid.obj
 0001:00026c40       ??_EPxBase@physx@@MEAAPEAXI@Z 0000000180027c40 f i NpParticleFluid.obj
 0001:00026c40       ??_GPxBase@physx@@MEAAPEAXI@Z 0000000180027c40 f i NpParticleFluid.obj
 0001:00026c80       ??_EPxLockedData@physx@@UEAAPEAXI@Z 0000000180027c80 f i NpParticleFluid.obj
 0001:00026c80       ??_GPxLockedData@physx@@UEAAPEAXI@Z 0000000180027c80 f i NpParticleFluid.obj
 0001:00026cc0       ??_EPxParticleBase@physx@@MEAAPEAXI@Z 0000000180027cc0 f i NpParticleFluid.obj
 0001:00026cc0       ??_GPxParticleBase@physx@@MEAAPEAXI@Z 0000000180027cc0 f i NpParticleFluid.obj
 0001:00026d00       ??_EPxParticleFluid@physx@@MEAAPEAXI@Z 0000000180027d00 f i NpParticleFluid.obj
 0001:00026d00       ??_GPxParticleFluid@physx@@MEAAPEAXI@Z 0000000180027d00 f i NpParticleFluid.obj
 0001:00026d40       ??_EPxParticleFluidReadData@physx@@UEAAPEAXI@Z 0000000180027d40 f i NpParticleFluid.obj
 0001:00026d40       ??_GPxParticleFluidReadData@physx@@UEAAPEAXI@Z 0000000180027d40 f i NpParticleFluid.obj
 0001:00026d80       ??_EPxParticleReadData@physx@@UEAAPEAXI@Z 0000000180027d80 f i NpParticleFluid.obj
 0001:00026d80       ??_GPxParticleReadData@physx@@UEAAPEAXI@Z 0000000180027d80 f i NpParticleFluid.obj
 0001:00026dc0       ??_H@YAXPEAX_K1P6APEAX0@Z@Z 0000000180027dc0 f i NpParticleFluid.obj
 0001:00026e20       ?__empty_global_delete@@YAXPEAX@Z 0000000180027e20 f i NpParticleFluid.obj
 0001:00026e30       ?__empty_global_delete@@YAXPEAX_K@Z 0000000180027e30 f i NpParticleFluid.obj
 0001:00026e30       ?__global_delete@@YAXPEAX_K@Z 0000000180027e30 f i NpParticleFluid.obj
 0001:00026e30       ?__global_array_delete@@YAXPEAX_K@Z 0000000180027e30 f i NpParticleFluid.obj
 0001:00026e40       ?addForces@?$NpParticleBaseTemplate@VPxParticleFluid@physx@@VNpParticleFluid@2@@physx@@UEAAXIAEBV?$PxStrideIterator@$$CBI@2@AEBV?$PxStrideIterator@$$CBVPxVec3@physx@@@2@W4Enum@PxForceMode@2@@Z 0000000180027e40 f i NpParticleFluid.obj
 0001:00027030       ?checkAllocatedIndices@?$NpParticleBaseTemplate@VPxParticleFluid@physx@@VNpParticleFluid@2@@physx@@AEAA_NIAEBV?$PxStrideIterator@$$CBI@2@@Z 0000000180028030 f i NpParticleFluid.obj
 0001:000271a0       ?checkFreeIndices@?$NpParticleBaseTemplate@VPxParticleFluid@physx@@VNpParticleFluid@2@@physx@@AEAA_NIAEBV?$PxStrideIterator@$$CBI@2@@Z 00000001800281a0 f i NpParticleFluid.obj
 0001:00027650       ?createParticles@?$NpParticleBaseTemplate@VPxParticleFluid@physx@@VNpParticleFluid@2@@physx@@UEAA_NAEBVPxParticleCreationData@2@@Z 0000000180028650 f i NpParticleFluid.obj
 0001:00027a70       ?exportExtraData@?$NpActorTemplate@VPxParticleFluid@physx@@@physx@@UEAAXAEAVPxSerializationContext@2@@Z 0000000180028a70 f i NpParticleFluid.obj
 0001:00027a80       ?exportExtraData@NpParticleFluid@physx@@UEAAXAEAVPxSerializationContext@2@@Z 0000000180028a80 f i NpParticleFluid.obj
 0001:00027a90       ?getActorFlags@?$NpActorTemplate@VPxParticleFluid@physx@@@physx@@UEBA?AV?$PxFlags@W4Enum@PxActorFlag@physx@@G@2@XZ 0000000180028a90 f i NpParticleFluid.obj
 0001:00027b30       ?getAggregate@?$NpActorTemplate@VPxParticleFluid@physx@@@physx@@UEBAPEAVPxAggregate@2@XZ 0000000180028b30 f i NpParticleFluid.obj
 0001:00027b40       ?getClientBehaviorFlags@?$NpActorTemplate@VPxParticleFluid@physx@@@physx@@UEBA?AV?$PxFlags@W4Enum@PxActorClientBehaviorFlag@physx@@E@2@XZ 0000000180028b40 f i NpParticleFluid.obj
 0001:00027be0       ?getConcreteTypeName@PxBase@physx@@UEBAPEBDXZ 0000000180028be0 f i NpParticleFluid.obj
 0001:00027bf0       ?getConcreteTypeName@PxParticleFluid@physx@@UEBAPEBDXZ 0000000180028bf0 f i NpParticleFluid.obj
 0001:00027c00       ?getContactOffset@?$NpParticleBaseTemplate@VPxParticleFluid@physx@@VNpParticleFluid@2@@physx@@UEBAMXZ 0000000180028c00 f i NpParticleFluid.obj
 0001:00027c60       ?getDamping@?$NpParticleBaseTemplate@VPxParticleFluid@physx@@VNpParticleFluid@2@@physx@@UEBAMXZ 0000000180028c60 f i NpParticleFluid.obj
 0001:00027ce0       ?getDataAccessFlags@NpParticleFluidReadData@physx@@UEAA?AV?$PxFlags@W4Enum@PxDataAccessFlag@physx@@E@2@XZ 0000000180028ce0 f i NpParticleFluid.obj
 0001:00027cf0       ?getDominanceGroup@?$NpActorTemplate@VPxParticleFluid@physx@@@physx@@UEBAEXZ 0000000180028cf0 f i NpParticleFluid.obj
 0001:00027da0       ?getDynamicFriction@?$NpParticleBaseTemplate@VPxParticleFluid@physx@@VNpParticleFluid@2@@physx@@UEBAMXZ 0000000180028da0 f i NpParticleFluid.obj
 0001:00027e20       ?getExternalAcceleration@?$NpParticleBaseTemplate@VPxParticleFluid@physx@@VNpParticleFluid@2@@physx@@UEBA?AVPxVec3@2@XZ 0000000180028e20 f i NpParticleFluid.obj
 0001:00027eb0       ?getGridSize@?$NpParticleBaseTemplate@VPxParticleFluid@physx@@VNpParticleFluid@2@@physx@@UEBAMXZ 0000000180028eb0 f i NpParticleFluid.obj
 0001:00027f10       ?getMaxMotionDistance@?$NpParticleBaseTemplate@VPxParticleFluid@physx@@VNpParticleFluid@2@@physx@@UEBAMXZ 0000000180028f10 f i NpParticleFluid.obj
 0001:00027f70       ?getMaxParticles@?$NpParticleBaseTemplate@VPxParticleFluid@physx@@VNpParticleFluid@2@@physx@@UEBAIXZ 0000000180028f70 f i NpParticleFluid.obj
 0001:00027fc0       ?getName@?$NpActorTemplate@VPxParticleFluid@physx@@@physx@@UEBAPEBDXZ 0000000180028fc0 f i NpParticleFluid.obj
 0001:00028010       ?getOwnerClient@?$NpActorTemplate@VPxParticleFluid@physx@@@physx@@UEBAEXZ 0000000180029010 f i NpParticleFluid.obj
 0001:00028050       ?getParticleBaseFlags@?$NpParticleBaseTemplate@VPxParticleFluid@physx@@VNpParticleFluid@2@@physx@@UEBA?AV?$PxFlags@W4Enum@PxParticleBaseFlag@physx@@G@2@XZ 0000000180029050 f i NpParticleFluid.obj
 0001:000280e0       ?getParticleMass@?$NpParticleBaseTemplate@VPxParticleFluid@physx@@VNpParticleFluid@2@@physx@@UEBAMXZ 00000001800290e0 f i NpParticleFluid.obj
 0001:00028160       ?getParticleReadDataFlags@?$NpParticleBaseTemplate@VPxParticleFluid@physx@@VNpParticleFluid@2@@physx@@UEBA?AV?$PxFlags@W4Enum@PxParticleReadDataFlag@physx@@G@2@XZ 0000000180029160 f i NpParticleFluid.obj
 0001:000281c0       ?getProjectionPlane@?$NpParticleBaseTemplate@VPxParticleFluid@physx@@VNpParticleFluid@2@@physx@@UEBAXAEAVPxVec3@2@AEAM@Z 00000001800291c0 f i NpParticleFluid.obj
 0001:00028270       ?getRestOffset@?$NpParticleBaseTemplate@VPxParticleFluid@physx@@VNpParticleFluid@2@@physx@@UEBAMXZ 0000000180029270 f i NpParticleFluid.obj
 0001:000282d0       ?getRestitution@?$NpParticleBaseTemplate@VPxParticleFluid@physx@@VNpParticleFluid@2@@physx@@UEBAMXZ 00000001800292d0 f i NpParticleFluid.obj
 0001:00028350       ?getScene@?$NpActorTemplate@VPxParticleFluid@physx@@@physx@@UEBAPEAVPxScene@2@XZ 0000000180029350 f i NpParticleFluid.obj
 0001:00028360       ?getSimulationFilterData@?$NpParticleBaseTemplate@VPxParticleFluid@physx@@VNpParticleFluid@2@@physx@@UEBA?AUPxFilterData@2@XZ 0000000180029360 f i NpParticleFluid.obj
 0001:000283e0       ?getStaticFriction@?$NpParticleBaseTemplate@VPxParticleFluid@physx@@VNpParticleFluid@2@@physx@@UEBAMXZ 00000001800293e0 f i NpParticleFluid.obj
 0001:00028460       ?getType@?$NpParticleBaseTemplate@VPxParticleFluid@physx@@VNpParticleFluid@2@@physx@@UEBA?AW4Enum@PxActorType@2@XZ 0000000180029460 f i NpParticleFluid.obj
 0001:00028470       ?getType@NpParticleFluid@physx@@UEBA?AW4Enum@PxActorType@2@XZ 0000000180029470 f i NpParticleFluid.obj
 0001:00028480       ?getWorldBounds@?$NpParticleBaseTemplate@VPxParticleFluid@physx@@VNpParticleFluid@2@@physx@@UEBA?AVPxBounds3@2@M@Z 0000000180029480 f i NpParticleFluid.obj
 0001:00028680       ?isKindOf@PxActor@physx@@MEBA_NPEBD@Z 0000000180029680 f i NpParticleFluid.obj
 0001:000286e0       ?isKindOf@PxBase@physx@@MEBA_NPEBD@Z 00000001800296e0 f i NpParticleFluid.obj
 0001:00028720       ?isKindOf@PxParticleBase@physx@@MEBA_NPEBD@Z 0000000180029720 f i NpParticleFluid.obj
 0001:000287b0       ?isKindOf@PxParticleFluid@physx@@MEBA_NPEBD@Z 00000001800297b0 f i NpParticleFluid.obj
 0001:00028810       ?isReleasable@PxBase@physx@@UEBA_NXZ 0000000180029810 f i NpParticleFluid.obj
 0001:00028820       ?lock@NpParticleFluidReadData@physx@@QEAAXPEBD@Z 0000000180029820 f i NpParticleFluid.obj
 0001:000288e0       ?lockParticleReadData@?$NpParticleBaseTemplate@VPxParticleFluid@physx@@VNpParticleFluid@2@@physx@@UEAAPEAVPxParticleReadData@2@V?$PxFlags@W4Enum@PxDataAccessFlag@physx@@E@2@@Z 00000001800298e0 f i NpParticleFluid.obj
 0001:00028950       ?lockParticleReadData@?$NpParticleBaseTemplate@VPxParticleFluid@physx@@VNpParticleFluid@2@@physx@@UEAAPEAVPxParticleReadData@2@XZ 0000000180029950 f i NpParticleFluid.obj
 0001:000289b0       ?lockParticleReadData@ParticleSystem@Scb@physx@@QEAAPEAVPxParticleReadData@3@V?$PxFlags@W4Enum@PxDataAccessFlag@physx@@E@3@@Z 00000001800299b0 f i NpParticleFluid.obj
 0001:00028b40       ?release@?$NpActorTemplate@VPxParticleFluid@physx@@@physx@@UEAAXXZ 0000000180029b40 f i NpParticleFluid.obj
 0001:00028b50       ?release@?$NpParticleBaseTemplate@VPxParticleFluid@physx@@VNpParticleFluid@2@@physx@@UEAAXXZ 0000000180029b50 f i NpParticleFluid.obj
 0001:00028c10       ?releaseParticles@?$NpParticleBaseTemplate@VPxParticleFluid@physx@@VNpParticleFluid@2@@physx@@UEAAXIAEBV?$PxStrideIterator@$$CBI@2@@Z 0000000180029c10 f i NpParticleFluid.obj
 0001:00028d70       ?releaseParticles@?$NpParticleBaseTemplate@VPxParticleFluid@physx@@VNpParticleFluid@2@@physx@@UEAAXXZ 0000000180029d70 f i NpParticleFluid.obj
 0001:00028dc0       ?requires@NpParticleFluid@physx@@UEAAXAEAVPxProcessPxBaseCallback@2@@Z 0000000180029dc0 f i NpParticleFluid.obj
 0001:00028dd0       ?resetFiltering@?$NpParticleBaseTemplate@VPxParticleFluid@physx@@VNpParticleFluid@2@@physx@@UEAAXXZ 0000000180029dd0 f i NpParticleFluid.obj
 0001:00028e50       ?resolveReferences@?$NpActorTemplate@VPxParticleFluid@physx@@@physx@@UEAAXAEAVPxDeserializationContext@2@@Z 0000000180029e50 f i NpParticleFluid.obj
 0001:00028e60       ?setActorFlag@?$NpActorTemplate@VPxParticleFluid@physx@@@physx@@UEAAXW4Enum@PxActorFlag@2@_N@Z 0000000180029e60 f i NpParticleFluid.obj
 0001:00028f60       ?setActorFlags@?$NpActorTemplate@VPxParticleFluid@physx@@@physx@@UEAAXV?$PxFlags@W4Enum@PxActorFlag@physx@@G@2@@Z 0000000180029f60 f i NpParticleFluid.obj
 0001:00028fe0       ?setActorFlags@Actor@Scb@physx@@QEAAXV?$PxFlags@W4Enum@PxActorFlag@physx@@G@3@@Z 0000000180029fe0 f i NpParticleFluid.obj
 0001:00029190       ?setClientBehaviorFlags@?$NpActorTemplate@VPxParticleFluid@physx@@@physx@@UEAAXV?$PxFlags@W4Enum@PxActorClientBehaviorFlag@physx@@E@2@@Z 000000018002a190 f i NpParticleFluid.obj
 0001:00029210       ?setClientBehaviorFlags@Actor@Scb@physx@@QEAAXV?$PxFlags@W4Enum@PxActorClientBehaviorFlag@physx@@E@3@@Z 000000018002a210 f i NpParticleFluid.obj
 0001:00029300       ?setContactOffset@?$NpParticleBaseTemplate@VPxParticleFluid@physx@@VNpParticleFluid@2@@physx@@UEAAXM@Z 000000018002a300 f i NpParticleFluid.obj
 0001:00029410       ?setContactOffset@ParticleSystem@Scb@physx@@QEAAXM@Z 000000018002a410 f i NpParticleFluid.obj
 0001:000294b0       ?setDamping@?$NpParticleBaseTemplate@VPxParticleFluid@physx@@VNpParticleFluid@2@@physx@@UEAAXM@Z 000000018002a4b0 f i NpParticleFluid.obj
 0001:00029560       ?setDamping@ParticleSystem@Scb@physx@@QEAAXM@Z 000000018002a560 f i NpParticleFluid.obj
 0001:00029650       ?setDataAccessFlags@NpParticleFluidReadData@physx@@UEAAXV?$PxFlags@W4Enum@PxDataAccessFlag@physx@@E@2@@Z 000000018002a650 f i NpParticleFluid.obj
 0001:00029660       ?setDominanceGroup@?$NpActorTemplate@VPxParticleFluid@physx@@@physx@@UEAAXE@Z 000000018002a660 f i NpParticleFluid.obj
 0001:000296e0       ?setDominanceGroup@Actor@Scb@physx@@QEAAXE@Z 000000018002a6e0 f i NpParticleFluid.obj
 0001:000297d0       ?setDynamicFriction@?$NpParticleBaseTemplate@VPxParticleFluid@physx@@VNpParticleFluid@2@@physx@@UEAAXM@Z 000000018002a7d0 f i NpParticleFluid.obj
 0001:00029890       ?setDynamicFriction@ParticleSystem@Scb@physx@@QEAAXM@Z 000000018002a890 f i NpParticleFluid.obj
 0001:00029980       ?setExternalAcceleration@?$NpParticleBaseTemplate@VPxParticleFluid@physx@@VNpParticleFluid@2@@physx@@UEAAXAEBVPxVec3@2@@Z 000000018002a980 f i NpParticleFluid.obj
 0001:000299e0       ?setExternalAcceleration@ParticleSystem@Scb@physx@@QEAAXAEBVPxVec3@3@@Z 000000018002a9e0 f i NpParticleFluid.obj
 0001:00029ad0       ?setFlags@ParticleSystem@Scb@physx@@QEAAXV?$PxFlags@W4Enum@PxParticleBaseFlag@physx@@G@3@@Z 000000018002aad0 f i NpParticleFluid.obj
 0001:00029bc0       ?setGridSize@?$NpParticleBaseTemplate@VPxParticleFluid@physx@@VNpParticleFluid@2@@physx@@UEAAXM@Z 000000018002abc0 f i NpParticleFluid.obj
 0001:00029cd0       ?setGridSize@ParticleSystem@Scb@physx@@QEAAXM@Z 000000018002acd0 f i NpParticleFluid.obj
 0001:00029d70       ?setMaxMotionDistance@?$NpParticleBaseTemplate@VPxParticleFluid@physx@@VNpParticleFluid@2@@physx@@UEAAXM@Z 000000018002ad70 f i NpParticleFluid.obj
 0001:00029e80       ?setMaxMotionDistance@ParticleSystem@Scb@physx@@QEAAXM@Z 000000018002ae80 f i NpParticleFluid.obj
 0001:00029f20       ?setName@?$NpActorTemplate@VPxParticleFluid@physx@@@physx@@UEAAXPEBD@Z 000000018002af20 f i NpParticleFluid.obj
 0001:0002a000       ?setOwnerClient@?$NpActorTemplate@VPxParticleFluid@physx@@@physx@@UEAAXE@Z 000000018002b000 f i NpParticleFluid.obj
 0001:0002a0a0       ?setOwnerClient@Actor@Scb@physx@@QEAAXE@Z 000000018002b0a0 f i NpParticleFluid.obj
 0001:0002a190       ?setParticleBaseFlag@?$NpParticleBaseTemplate@VPxParticleFluid@physx@@VNpParticleFluid@2@@physx@@UEAAXW4Enum@PxParticleBaseFlag@2@_N@Z 000000018002b190 f i NpParticleFluid.obj
 0001:0002a2b0       ?setParticleMass@?$NpParticleBaseTemplate@VPxParticleFluid@physx@@VNpParticleFluid@2@@physx@@UEAAXM@Z 000000018002b2b0 f i NpParticleFluid.obj
 0001:0002a360       ?setParticleMass@ParticleSystem@Scb@physx@@QEAAXM@Z 000000018002b360 f i NpParticleFluid.obj
 0001:0002a450       ?setParticleReadDataFlag@?$NpParticleBaseTemplate@VPxParticleFluid@physx@@VNpParticleFluid@2@@physx@@UEAAXW4Enum@PxParticleReadDataFlag@2@_N@Z 000000018002b450 f i NpParticleFluid.obj
 0001:0002a620       ?setParticleReadDataFlags@ParticleSystem@Scb@physx@@QEAAXV?$PxFlags@W4Enum@PxParticleReadDataFlag@physx@@G@3@@Z 000000018002b620 f i NpParticleFluid.obj
 0001:0002a6d0       ?setPositions@?$NpParticleBaseTemplate@VPxParticleFluid@physx@@VNpParticleFluid@2@@physx@@UEAAXIAEBV?$PxStrideIterator@$$CBI@2@AEBV?$PxStrideIterator@$$CBVPxVec3@physx@@@2@@Z 000000018002b6d0 f i NpParticleFluid.obj
 0001:0002a870       ?setProjectionPlane@?$NpParticleBaseTemplate@VPxParticleFluid@physx@@VNpParticleFluid@2@@physx@@UEAAXAEBVPxVec3@2@M@Z 000000018002b870 f i NpParticleFluid.obj
 0001:0002a970       ?setProjectionPlane@ParticleSystem@Scb@physx@@QEAAXAEBVPxPlane@3@@Z 000000018002b970 f i NpParticleFluid.obj
 0001:0002aa70       ?setRestOffset@?$NpParticleBaseTemplate@VPxParticleFluid@physx@@VNpParticleFluid@2@@physx@@UEAAXM@Z 000000018002ba70 f i NpParticleFluid.obj
 0001:0002ac30       ?setRestOffset@ParticleSystem@Scb@physx@@QEAAXM@Z 000000018002bc30 f i NpParticleFluid.obj
 0001:0002acd0       ?setRestOffsets@?$NpParticleBaseTemplate@VPxParticleFluid@physx@@VNpParticleFluid@2@@physx@@UEAAXIAEBV?$PxStrideIterator@$$CBI@2@AEBV?$PxStrideIterator@$$CBM@2@@Z 000000018002bcd0 f i NpParticleFluid.obj
 0001:0002af30       ?setRestParticleDistance@ParticleSystem@Scb@physx@@QEAAXM@Z 000000018002bf30 f i NpParticleFluid.obj
 0001:0002afd0       ?setRestitution@?$NpParticleBaseTemplate@VPxParticleFluid@physx@@VNpParticleFluid@2@@physx@@UEAAXM@Z 000000018002bfd0 f i NpParticleFluid.obj
 0001:0002b090       ?setRestitution@ParticleSystem@Scb@physx@@QEAAXM@Z 000000018002c090 f i NpParticleFluid.obj
 0001:0002b180       ?setSimulationFilterData@?$NpParticleBaseTemplate@VPxParticleFluid@physx@@VNpParticleFluid@2@@physx@@UEAAXAEBUPxFilterData@2@@Z 000000018002c180 f i NpParticleFluid.obj
 0001:0002b1e0       ?setSimulationFilterData@ParticleSystem@Scb@physx@@QEAAXAEBUPxFilterData@3@@Z 000000018002c1e0 f i NpParticleFluid.obj
 0001:0002b2d0       ?setStaticFriction@?$NpParticleBaseTemplate@VPxParticleFluid@physx@@VNpParticleFluid@2@@physx@@UEAAXM@Z 000000018002c2d0 f i NpParticleFluid.obj
 0001:0002b380       ?setStaticFriction@ParticleSystem@Scb@physx@@QEAAXM@Z 000000018002c380 f i NpParticleFluid.obj
 0001:0002b470       ?setStiffness@ParticleSystem@Scb@physx@@QEAAXM@Z 000000018002c470 f i NpParticleFluid.obj
 0001:0002b560       ?setVelocities@?$NpParticleBaseTemplate@VPxParticleFluid@physx@@VNpParticleFluid@2@@physx@@UEAAXIAEBV?$PxStrideIterator@$$CBI@2@AEBV?$PxStrideIterator@$$CBVPxVec3@physx@@@2@@Z 000000018002c560 f i NpParticleFluid.obj
 0001:0002b700       ?setViscosity@ParticleSystem@Scb@physx@@QEAAXM@Z 000000018002c700 f i NpParticleFluid.obj
 0001:0002b7f0       ?unlock@NpParticleFluidReadData@physx@@UEAAXXZ 000000018002c7f0 f i NpParticleFluid.obj
 0001:0002b800       ?createObject@NpParticleSystem@physx@@SAPEAV12@AEAPEAEAEAVPxDeserializationContext@2@@Z 000000018002c800 f   NpParticleSystem.obj
 0001:0002b8c0       ??0NpParticleSystem@physx@@QEAA@I_N@Z 000000018002c8c0 f   NpParticleSystem.obj
 0001:0002b950       ??1NpParticleSystem@physx@@UEAA@XZ 000000018002c950 f   NpParticleSystem.obj
 0001:0002b9a0       ?setParticleReadDataFlag@NpParticleSystem@physx@@UEAAXW4Enum@PxParticleReadDataFlag@2@_N@Z 000000018002c9a0 f   NpParticleSystem.obj
 0001:0002bac0       ??0?$NpActorTemplate@VPxParticleSystem@physx@@@physx@@QEAA@GV?$PxFlags@W4Enum@PxBaseFlag@physx@@G@1@PEBDPEAX@Z 000000018002cac0 f i NpParticleSystem.obj
 0001:0002bb30       ??0?$NpParticleBaseTemplate@VPxParticleSystem@physx@@VNpParticleSystem@2@@physx@@QEAA@GV?$PxFlags@W4Enum@PxBaseFlag@physx@@G@1@AEBW4Enum@PxActorType@1@I_N@Z 000000018002cb30 f i NpParticleSystem.obj
 0001:0002bbc0       ??1?$NpActorTemplate@VPxParticleSystem@physx@@@physx@@UEAA@XZ 000000018002cbc0 f i NpParticleSystem.obj
 0001:0002bc00       ??1?$NpParticleBaseTemplate@VPxParticleSystem@physx@@VNpParticleSystem@2@@physx@@UEAA@XZ 000000018002cc00 f i NpParticleSystem.obj
 0001:0002bc60       ??1PxParticleSystem@physx@@MEAA@XZ 000000018002cc60 f i NpParticleSystem.obj
 0001:0002bc70       ??_G?$NpActorTemplate@VPxParticleSystem@physx@@@physx@@UEAAPEAXI@Z 000000018002cc70 f i NpParticleSystem.obj
 0001:0002bc70       ??_E?$NpActorTemplate@VPxParticleSystem@physx@@@physx@@UEAAPEAXI@Z 000000018002cc70 f i NpParticleSystem.obj
 0001:0002bd10       ??_E?$NpParticleBaseTemplate@VPxParticleSystem@physx@@VNpParticleSystem@2@@physx@@UEAAPEAXI@Z 000000018002cd10 f i NpParticleSystem.obj
 0001:0002bd10       ??_G?$NpParticleBaseTemplate@VPxParticleSystem@physx@@VNpParticleSystem@2@@physx@@UEAAPEAXI@Z 000000018002cd10 f i NpParticleSystem.obj
 0001:0002bdc0       ??_GNpParticleSystem@physx@@UEAAPEAXI@Z 000000018002cdc0 f i NpParticleSystem.obj
 0001:0002bdc0       ??_ENpParticleSystem@physx@@UEAAPEAXI@Z 000000018002cdc0 f i NpParticleSystem.obj
 0001:0002be70       ??_EPxParticleSystem@physx@@MEAAPEAXI@Z 000000018002ce70 f i NpParticleSystem.obj
 0001:0002be70       ??_GPxParticleSystem@physx@@MEAAPEAXI@Z 000000018002ce70 f i NpParticleSystem.obj
 0001:0002beb0       ?addForces@?$NpParticleBaseTemplate@VPxParticleSystem@physx@@VNpParticleSystem@2@@physx@@UEAAXIAEBV?$PxStrideIterator@$$CBI@2@AEBV?$PxStrideIterator@$$CBVPxVec3@physx@@@2@W4Enum@PxForceMode@2@@Z 000000018002ceb0 f i NpParticleSystem.obj
 0001:0002c0a0       ?checkAllocatedIndices@?$NpParticleBaseTemplate@VPxParticleSystem@physx@@VNpParticleSystem@2@@physx@@AEAA_NIAEBV?$PxStrideIterator@$$CBI@2@@Z 000000018002d0a0 f i NpParticleSystem.obj
 0001:0002c210       ?checkFreeIndices@?$NpParticleBaseTemplate@VPxParticleSystem@physx@@VNpParticleSystem@2@@physx@@AEAA_NIAEBV?$PxStrideIterator@$$CBI@2@@Z 000000018002d210 f i NpParticleSystem.obj
 0001:0002c6c0       ?createParticles@?$NpParticleBaseTemplate@VPxParticleSystem@physx@@VNpParticleSystem@2@@physx@@UEAA_NAEBVPxParticleCreationData@2@@Z 000000018002d6c0 f i NpParticleSystem.obj
 0001:0002cae0       ?exportExtraData@?$NpActorTemplate@VPxParticleSystem@physx@@@physx@@UEAAXAEAVPxSerializationContext@2@@Z 000000018002dae0 f i NpParticleSystem.obj
 0001:0002caf0       ?exportExtraData@NpParticleSystem@physx@@UEAAXAEAVPxSerializationContext@2@@Z 000000018002daf0 f i NpParticleSystem.obj
 0001:0002cb00       ?getActorFlags@?$NpActorTemplate@VPxParticleSystem@physx@@@physx@@UEBA?AV?$PxFlags@W4Enum@PxActorFlag@physx@@G@2@XZ 000000018002db00 f i NpParticleSystem.obj
 0001:0002cba0       ?getAggregate@?$NpActorTemplate@VPxParticleSystem@physx@@@physx@@UEBAPEAVPxAggregate@2@XZ 000000018002dba0 f i NpParticleSystem.obj
 0001:0002cbb0       ?getClientBehaviorFlags@?$NpActorTemplate@VPxParticleSystem@physx@@@physx@@UEBA?AV?$PxFlags@W4Enum@PxActorClientBehaviorFlag@physx@@E@2@XZ 000000018002dbb0 f i NpParticleSystem.obj
 0001:0002cc50       ?getConcreteTypeName@PxParticleSystem@physx@@UEBAPEBDXZ 000000018002dc50 f i NpParticleSystem.obj
 0001:0002cc60       ?getContactOffset@?$NpParticleBaseTemplate@VPxParticleSystem@physx@@VNpParticleSystem@2@@physx@@UEBAMXZ 000000018002dc60 f i NpParticleSystem.obj
 0001:0002ccc0       ?getDamping@?$NpParticleBaseTemplate@VPxParticleSystem@physx@@VNpParticleSystem@2@@physx@@UEBAMXZ 000000018002dcc0 f i NpParticleSystem.obj
 0001:0002cd40       ?getDominanceGroup@?$NpActorTemplate@VPxParticleSystem@physx@@@physx@@UEBAEXZ 000000018002dd40 f i NpParticleSystem.obj
 0001:0002cdf0       ?getDynamicFriction@?$NpParticleBaseTemplate@VPxParticleSystem@physx@@VNpParticleSystem@2@@physx@@UEBAMXZ 000000018002ddf0 f i NpParticleSystem.obj
 0001:0002ce70       ?getExternalAcceleration@?$NpParticleBaseTemplate@VPxParticleSystem@physx@@VNpParticleSystem@2@@physx@@UEBA?AVPxVec3@2@XZ 000000018002de70 f i NpParticleSystem.obj
 0001:0002cf00       ?getGridSize@?$NpParticleBaseTemplate@VPxParticleSystem@physx@@VNpParticleSystem@2@@physx@@UEBAMXZ 000000018002df00 f i NpParticleSystem.obj
 0001:0002cf60       ?getMaxMotionDistance@?$NpParticleBaseTemplate@VPxParticleSystem@physx@@VNpParticleSystem@2@@physx@@UEBAMXZ 000000018002df60 f i NpParticleSystem.obj
 0001:0002cfc0       ?getMaxParticles@?$NpParticleBaseTemplate@VPxParticleSystem@physx@@VNpParticleSystem@2@@physx@@UEBAIXZ 000000018002dfc0 f i NpParticleSystem.obj
 0001:0002d010       ?getName@?$NpActorTemplate@VPxParticleSystem@physx@@@physx@@UEBAPEBDXZ 000000018002e010 f i NpParticleSystem.obj
 0001:0002d060       ?getOwnerClient@?$NpActorTemplate@VPxParticleSystem@physx@@@physx@@UEBAEXZ 000000018002e060 f i NpParticleSystem.obj
 0001:0002d0a0       ?getParticleBaseFlags@?$NpParticleBaseTemplate@VPxParticleSystem@physx@@VNpParticleSystem@2@@physx@@UEBA?AV?$PxFlags@W4Enum@PxParticleBaseFlag@physx@@G@2@XZ 000000018002e0a0 f i NpParticleSystem.obj
 0001:0002d130       ?getParticleMass@?$NpParticleBaseTemplate@VPxParticleSystem@physx@@VNpParticleSystem@2@@physx@@UEBAMXZ 000000018002e130 f i NpParticleSystem.obj
 0001:0002d1b0       ?getParticleReadDataFlags@?$NpParticleBaseTemplate@VPxParticleSystem@physx@@VNpParticleSystem@2@@physx@@UEBA?AV?$PxFlags@W4Enum@PxParticleReadDataFlag@physx@@G@2@XZ 000000018002e1b0 f i NpParticleSystem.obj
 0001:0002d210       ?getProjectionPlane@?$NpParticleBaseTemplate@VPxParticleSystem@physx@@VNpParticleSystem@2@@physx@@UEBAXAEAVPxVec3@2@AEAM@Z 000000018002e210 f i NpParticleSystem.obj
 0001:0002d2c0       ?getRestOffset@?$NpParticleBaseTemplate@VPxParticleSystem@physx@@VNpParticleSystem@2@@physx@@UEBAMXZ 000000018002e2c0 f i NpParticleSystem.obj
 0001:0002d320       ?getRestitution@?$NpParticleBaseTemplate@VPxParticleSystem@physx@@VNpParticleSystem@2@@physx@@UEBAMXZ 000000018002e320 f i NpParticleSystem.obj
 0001:0002d3a0       ?getScene@?$NpActorTemplate@VPxParticleSystem@physx@@@physx@@UEBAPEAVPxScene@2@XZ 000000018002e3a0 f i NpParticleSystem.obj
 0001:0002d3b0       ?getSimulationFilterData@?$NpParticleBaseTemplate@VPxParticleSystem@physx@@VNpParticleSystem@2@@physx@@UEBA?AUPxFilterData@2@XZ 000000018002e3b0 f i NpParticleSystem.obj
 0001:0002d430       ?getStaticFriction@?$NpParticleBaseTemplate@VPxParticleSystem@physx@@VNpParticleSystem@2@@physx@@UEBAMXZ 000000018002e430 f i NpParticleSystem.obj
 0001:0002d4b0       ?getType@?$NpParticleBaseTemplate@VPxParticleSystem@physx@@VNpParticleSystem@2@@physx@@UEBA?AW4Enum@PxActorType@2@XZ 000000018002e4b0 f i NpParticleSystem.obj
 0001:0002d4c0       ?getType@NpParticleSystem@physx@@UEBA?AW4Enum@PxActorType@2@XZ 000000018002e4c0 f i NpParticleSystem.obj
 0001:0002d4d0       ?getWorldBounds@?$NpParticleBaseTemplate@VPxParticleSystem@physx@@VNpParticleSystem@2@@physx@@UEBA?AVPxBounds3@2@M@Z 000000018002e4d0 f i NpParticleSystem.obj
 0001:0002d6d0       ?isKindOf@PxParticleSystem@physx@@MEBA_NPEBD@Z 000000018002e6d0 f i NpParticleSystem.obj
 0001:0002d730       ?lockParticleReadData@?$NpParticleBaseTemplate@VPxParticleSystem@physx@@VNpParticleSystem@2@@physx@@UEAAPEAVPxParticleReadData@2@V?$PxFlags@W4Enum@PxDataAccessFlag@physx@@E@2@@Z 000000018002e730 f i NpParticleSystem.obj
 0001:0002d7a0       ?lockParticleReadData@?$NpParticleBaseTemplate@VPxParticleSystem@physx@@VNpParticleSystem@2@@physx@@UEAAPEAVPxParticleReadData@2@XZ 000000018002e7a0 f i NpParticleSystem.obj
 0001:0002d800       ?release@?$NpActorTemplate@VPxParticleSystem@physx@@@physx@@UEAAXXZ 000000018002e800 f i NpParticleSystem.obj
 0001:0002d810       ?release@?$NpParticleBaseTemplate@VPxParticleSystem@physx@@VNpParticleSystem@2@@physx@@UEAAXXZ 000000018002e810 f i NpParticleSystem.obj
 0001:0002d8d0       ?releaseParticles@?$NpParticleBaseTemplate@VPxParticleSystem@physx@@VNpParticleSystem@2@@physx@@UEAAXIAEBV?$PxStrideIterator@$$CBI@2@@Z 000000018002e8d0 f i NpParticleSystem.obj
 0001:0002da30       ?releaseParticles@?$NpParticleBaseTemplate@VPxParticleSystem@physx@@VNpParticleSystem@2@@physx@@UEAAXXZ 000000018002ea30 f i NpParticleSystem.obj
 0001:0002da80       ?requires@NpParticleSystem@physx@@UEAAXAEAVPxProcessPxBaseCallback@2@@Z 000000018002ea80 f i NpParticleSystem.obj
 0001:0002da90       ?resetFiltering@?$NpParticleBaseTemplate@VPxParticleSystem@physx@@VNpParticleSystem@2@@physx@@UEAAXXZ 000000018002ea90 f i NpParticleSystem.obj
 0001:0002db10       ?resolveReferences@?$NpActorTemplate@VPxParticleSystem@physx@@@physx@@UEAAXAEAVPxDeserializationContext@2@@Z 000000018002eb10 f i NpParticleSystem.obj
 0001:0002db20       ?setActorFlag@?$NpActorTemplate@VPxParticleSystem@physx@@@physx@@UEAAXW4Enum@PxActorFlag@2@_N@Z 000000018002eb20 f i NpParticleSystem.obj
 0001:0002dc20       ?setActorFlags@?$NpActorTemplate@VPxParticleSystem@physx@@@physx@@UEAAXV?$PxFlags@W4Enum@PxActorFlag@physx@@G@2@@Z 000000018002ec20 f i NpParticleSystem.obj
 0001:0002dca0       ?setClientBehaviorFlags@?$NpActorTemplate@VPxParticleSystem@physx@@@physx@@UEAAXV?$PxFlags@W4Enum@PxActorClientBehaviorFlag@physx@@E@2@@Z 000000018002eca0 f i NpParticleSystem.obj
 0001:0002dd20       ?setContactOffset@?$NpParticleBaseTemplate@VPxParticleSystem@physx@@VNpParticleSystem@2@@physx@@UEAAXM@Z 000000018002ed20 f i NpParticleSystem.obj
 0001:0002de30       ?setDamping@?$NpParticleBaseTemplate@VPxParticleSystem@physx@@VNpParticleSystem@2@@physx@@UEAAXM@Z 000000018002ee30 f i NpParticleSystem.obj
 0001:0002dee0       ?setDominanceGroup@?$NpActorTemplate@VPxParticleSystem@physx@@@physx@@UEAAXE@Z 000000018002eee0 f i NpParticleSystem.obj
 0001:0002df60       ?setDynamicFriction@?$NpParticleBaseTemplate@VPxParticleSystem@physx@@VNpParticleSystem@2@@physx@@UEAAXM@Z 000000018002ef60 f i NpParticleSystem.obj
 0001:0002e020       ?setExternalAcceleration@?$NpParticleBaseTemplate@VPxParticleSystem@physx@@VNpParticleSystem@2@@physx@@UEAAXAEBVPxVec3@2@@Z 000000018002f020 f i NpParticleSystem.obj
 0001:0002e080       ?setGridSize@?$NpParticleBaseTemplate@VPxParticleSystem@physx@@VNpParticleSystem@2@@physx@@UEAAXM@Z 000000018002f080 f i NpParticleSystem.obj
 0001:0002e190       ?setMaxMotionDistance@?$NpParticleBaseTemplate@VPxParticleSystem@physx@@VNpParticleSystem@2@@physx@@UEAAXM@Z 000000018002f190 f i NpParticleSystem.obj
 0001:0002e2a0       ?setName@?$NpActorTemplate@VPxParticleSystem@physx@@@physx@@UEAAXPEBD@Z 000000018002f2a0 f i NpParticleSystem.obj
 0001:0002e380       ?setOwnerClient@?$NpActorTemplate@VPxParticleSystem@physx@@@physx@@UEAAXE@Z 000000018002f380 f i NpParticleSystem.obj
 0001:0002e420       ?setParticleBaseFlag@?$NpParticleBaseTemplate@VPxParticleSystem@physx@@VNpParticleSystem@2@@physx@@UEAAXW4Enum@PxParticleBaseFlag@2@_N@Z 000000018002f420 f i NpParticleSystem.obj
 0001:0002e540       ?setParticleMass@?$NpParticleBaseTemplate@VPxParticleSystem@physx@@VNpParticleSystem@2@@physx@@UEAAXM@Z 000000018002f540 f i NpParticleSystem.obj
 0001:0002e5f0       ?setParticleReadDataFlag@?$NpParticleBaseTemplate@VPxParticleSystem@physx@@VNpParticleSystem@2@@physx@@UEAAXW4Enum@PxParticleReadDataFlag@2@_N@Z 000000018002f5f0 f i NpParticleSystem.obj
 0001:0002e7c0       ?setPositions@?$NpParticleBaseTemplate@VPxParticleSystem@physx@@VNpParticleSystem@2@@physx@@UEAAXIAEBV?$PxStrideIterator@$$CBI@2@AEBV?$PxStrideIterator@$$CBVPxVec3@physx@@@2@@Z 000000018002f7c0 f i NpParticleSystem.obj
 0001:0002e960       ?setProjectionPlane@?$NpParticleBaseTemplate@VPxParticleSystem@physx@@VNpParticleSystem@2@@physx@@UEAAXAEBVPxVec3@2@M@Z 000000018002f960 f i NpParticleSystem.obj
 0001:0002ea60       ?setRestOffset@?$NpParticleBaseTemplate@VPxParticleSystem@physx@@VNpParticleSystem@2@@physx@@UEAAXM@Z 000000018002fa60 f i NpParticleSystem.obj
 0001:0002ec20       ?setRestOffsets@?$NpParticleBaseTemplate@VPxParticleSystem@physx@@VNpParticleSystem@2@@physx@@UEAAXIAEBV?$PxStrideIterator@$$CBI@2@AEBV?$PxStrideIterator@$$CBM@2@@Z 000000018002fc20 f i NpParticleSystem.obj
 0001:0002ee80       ?setRestitution@?$NpParticleBaseTemplate@VPxParticleSystem@physx@@VNpParticleSystem@2@@physx@@UEAAXM@Z 000000018002fe80 f i NpParticleSystem.obj
 0001:0002ef40       ?setSimulationFilterData@?$NpParticleBaseTemplate@VPxParticleSystem@physx@@VNpParticleSystem@2@@physx@@UEAAXAEBUPxFilterData@2@@Z 000000018002ff40 f i NpParticleSystem.obj
 0001:0002efa0       ?setStaticFriction@?$NpParticleBaseTemplate@VPxParticleSystem@physx@@VNpParticleSystem@2@@physx@@UEAAXM@Z 000000018002ffa0 f i NpParticleSystem.obj
 0001:0002f050       ?setVelocities@?$NpParticleBaseTemplate@VPxParticleSystem@physx@@VNpParticleSystem@2@@physx@@UEAAXIAEBV?$PxStrideIterator@$$CBI@2@AEBV?$PxStrideIterator@$$CBVPxVec3@physx@@@2@@Z 0000000180030050 f i NpParticleSystem.obj
 0001:0002f1f0       ??0Offsets@Actor@Scb@physx@@QEAA@XZ 00000001800301f0 f   ScbActor.obj
 0001:0002f270       ?addActor@Aggregate@Scb@physx@@QEAAXAEAVActor@23@@Z 0000000180030270 f   ScbAggregate.obj
 0001:0002f450       ?removeActor@Aggregate@Scb@physx@@QEAAXAEAVActor@23@_N@Z 0000000180030450 f   ScbAggregate.obj
 0001:0002f790       ??$allocArrayBuffer@PEAVActor@Scb@physx@@@Scene@Scb@physx@@AEAAPEAPEAVActor@12@AEAV?$Array@PEAVActor@Scb@physx@@VNamedAllocator@shdfnd@3@@shdfnd@2@IAEAI@Z 0000000180030790 f i ScbAggregate.obj
 0001:0002f7f0       ?recreate@?$Array@PEAVActor@Scb@physx@@VNamedAllocator@shdfnd@3@@shdfnd@physx@@IEAAXI@Z 00000001800307f0 f i ScbAggregate.obj
 0001:0002f8d0       ?resize@?$Array@PEAVActor@Scb@physx@@VNamedAllocator@shdfnd@3@@shdfnd@physx@@QEAAXIAEBQEAVActor@Scb@3@@Z 00000001800308d0 f i ScbAggregate.obj
 0001:0002f950       ?destroy@Base@Scb@physx@@QEAAXXZ 0000000180030950 f   ScbBase.obj
 0001:0002f990       ??0Cloth@Scb@physx@@QEAA@AEBVPxTransform@2@AEAVClothFabricCore@Sc@2@PEBUPxClothParticle@2@V?$PxFlags@W4Enum@PxClothFlag@physx@@G@2@@Z 0000000180030990 f   ScbCloth.obj
 0001:0002f9f0       ??1Cloth@Scb@physx@@QEAA@XZ 00000001800309f0 f   ScbCloth.obj
 0001:0002fa00       ?syncState@Cloth@Scb@physx@@QEAAXXZ 0000000180030a00 f   ScbCloth.obj
 0001:0002fb20       ?getBinaryMetaData@Base@Scb@physx@@SAXAEAVPxOutputStream@3@@Z 0000000180030b20 f   ScbMetaData.obj
 0001:0002fc80       ?getBinaryMetaData@Shape@Scb@physx@@SAXAEAVPxOutputStream@3@@Z 0000000180030c80 f   ScbMetaData.obj
 0001:0002fd60       ?getBinaryMetaData@Actor@Scb@physx@@SAXAEAVPxOutputStream@3@@Z 0000000180030d60 f   ScbMetaData.obj
 0001:0002fe00       ?getBinaryMetaData@RigidObject@Scb@physx@@SAXAEAVPxOutputStream@3@@Z 0000000180030e00 f   ScbMetaData.obj
 0001:0002fea0       ?getBinaryMetaData@Body@Scb@physx@@SAXAEAVPxOutputStream@3@@Z 0000000180030ea0 f   ScbMetaData.obj
 0001:000300f0       ?getBinaryMetaData@RigidStatic@Scb@physx@@SAXAEAVPxOutputStream@3@@Z 00000001800310f0 f   ScbMetaData.obj
 0001:000301d0       ?getBinaryMetaData@Constraint@Scb@physx@@SAXAEAVPxOutputStream@3@@Z 00000001800311d0 f   ScbMetaData.obj
 0001:00030370       ?getBinaryMetaData@Articulation@Scb@physx@@SAXAEAVPxOutputStream@3@@Z 0000000180031370 f   ScbMetaData.obj
 0001:000304d0       ?getBinaryMetaData@ArticulationJoint@Scb@physx@@SAXAEAVPxOutputStream@3@@Z 00000001800314d0 f   ScbMetaData.obj
 0001:000305b0       ?getBinaryMetaData@Aggregate@Scb@physx@@SAXAEAVPxOutputStream@3@@Z 00000001800315b0 f   ScbMetaData.obj
 0001:00030750       ?getBinaryMetaData@Cloth@Scb@physx@@SAXAEAVPxOutputStream@3@@Z 0000000180031750 f   ScbMetaData.obj
 0001:00030830       ?getBinaryMetaData@ParticleSystem@Scb@physx@@SAXAEAVPxOutputStream@3@@Z 0000000180031830 f   ScbMetaData.obj
 0001:00030ec0       ?initialize@ForceUpdates@ParticleSystem@Scb@physx@@QEAAXI@Z 0000000180031ec0 f   ScbParticleSystem.obj
 0001:00030fa0       ?destroy@ForceUpdates@ParticleSystem@Scb@physx@@QEAAXXZ 0000000180031fa0 f   ScbParticleSystem.obj
 0001:00031020       ??0ParticleSystem@Scb@physx@@QEAA@AEBW4Enum@PxActorType@2@I_N@Z 0000000180032020 f   ScbParticleSystem.obj
 0001:000310a0       ??1ParticleSystem@Scb@physx@@QEAA@XZ 00000001800320a0 f   ScbParticleSystem.obj
 0001:000310e0       ?createParticles@ParticleSystem@Scb@physx@@QEAA_NAEBVPxParticleCreationData@3@@Z 00000001800320e0 f   ScbParticleSystem.obj
 0001:000311a0       ?releaseParticles@ParticleSystem@Scb@physx@@QEAAXIAEBV?$PxStrideIterator@$$CBI@3@@Z 00000001800321a0 f   ScbParticleSystem.obj
 0001:00031320       ?releaseParticles@ParticleSystem@Scb@physx@@QEAAXXZ 0000000180032320 f   ScbParticleSystem.obj
 0001:00031400       ?setPositions@ParticleSystem@Scb@physx@@QEAAXIAEBV?$PxStrideIterator@$$CBI@3@AEBV?$PxStrideIterator@$$CBVPxVec3@physx@@@3@@Z 0000000180032400 f   ScbParticleSystem.obj
 0001:000314d0       ?setVelocities@ParticleSystem@Scb@physx@@QEAAXIAEBV?$PxStrideIterator@$$CBI@3@AEBV?$PxStrideIterator@$$CBVPxVec3@physx@@@3@@Z 00000001800324d0 f   ScbParticleSystem.obj
 0001:000315a0       ?setRestOffsets@ParticleSystem@Scb@physx@@QEAAXIAEBV?$PxStrideIterator@$$CBI@3@AEBV?$PxStrideIterator@$$CBM@3@@Z 00000001800325a0 f   ScbParticleSystem.obj
 0001:00031670       ?addForces@ParticleSystem@Scb@physx@@QEAAXIAEBV?$PxStrideIterator@$$CBI@3@AEBV?$PxStrideIterator@$$CBVPxVec3@physx@@@3@W4Enum@PxForceMode@3@@Z 0000000180032670 f   ScbParticleSystem.obj
 0001:00031b20       ?submitForceUpdates@ParticleSystem@Scb@physx@@QEAAXM@Z 0000000180032b20 f   ScbParticleSystem.obj
 0001:00031c00       ?syncState@ParticleSystem@Scb@physx@@QEAAXXZ 0000000180032c00 f   ScbParticleSystem.obj
 0001:00032170       ?clear@?$BitMapBase@VAllocator@shdfnd@physx@@@Cm@physx@@QEAAXI@Z 0000000180033170 f i ScbParticleSystem.obj
 0001:00032210       ?syncState@Actor@Scb@physx@@IEAAXXZ 0000000180033210 f i ScbParticleSystem.obj
 0001:000322d0       ?scheduleForInsert@ObjectTracker@Scb@physx@@QEAAXAEAVBase@23@@Z 00000001800332d0 f   ScbScene.obj
 0001:00032350       ?scheduleForRemove@ObjectTracker@Scb@physx@@QEAAXAEAVBase@23@@Z 0000000180033350 f   ScbScene.obj
 0001:000323d0       ?scheduleForUpdate@ObjectTracker@Scb@physx@@QEAAXAEAVBase@23@@Z 00000001800333d0 f   ScbScene.obj
 0001:00032430       ?clear@ObjectTracker@Scb@physx@@QEAAXXZ 0000000180033430 f   ScbScene.obj
 0001:000324d0       ?insert@ObjectTracker@Scb@physx@@QEAAXAEAVBase@23@@Z 00000001800334d0 f   ScbScene.obj
 0001:00032510       ?remove@ObjectTracker@Scb@physx@@QEAAXAEAVBase@23@@Z 0000000180033510 f   ScbScene.obj
 0001:00032530       ??0Scene@Scb@physx@@QEAA@AEBVPxSceneDesc@2@VEventProfiler@Cm@2@@Z 0000000180033530 f   ScbScene.obj
 0001:00032950       ?release@Scene@Scb@physx@@QEAAXXZ 0000000180033950 f   ScbScene.obj
 0001:00032a10       ?getPxScene@Scene@Scb@physx@@QEAAPEAVPxScene@3@XZ 0000000180033a10 f   ScbScene.obj
 0001:00032a20       ?addRigidStatic@Scene@Scb@physx@@QEAAXAEAVRigidStatic@23@_N@Z 0000000180033a20 f   ScbScene.obj
 0001:00032d10       ?removeRigidStatic@Scene@Scb@physx@@QEAAXAEAVRigidStatic@23@_N1@Z 0000000180033d10 f   ScbScene.obj
 0001:00033020       ?addRigidBody@Scene@Scb@physx@@QEAAXAEAVBody@23@_N@Z 0000000180034020 f   ScbScene.obj
 0001:000333b0       ?removeRigidBody@Scene@Scb@physx@@QEAAXAEAVBody@23@_N1@Z 00000001800343b0 f   ScbScene.obj
 0001:000337c0       ?addConstraint@Scene@Scb@physx@@QEAAXAEAVConstraint@23@@Z 00000001800347c0 f   ScbScene.obj
 0001:000337e0       ?removeConstraint@Scene@Scb@physx@@QEAAXAEAVConstraint@23@@Z 00000001800347e0 f   ScbScene.obj
 0001:00033940       ?addArticulation@Scene@Scb@physx@@QEAAXAEAVArticulation@23@@Z 0000000180034940 f   ScbScene.obj
 0001:00033980       ?removeArticulation@Scene@Scb@physx@@QEAAXAEAVArticulation@23@@Z 0000000180034980 f   ScbScene.obj
 0001:000339b0       ?addArticulationJoint@Scene@Scb@physx@@QEAAXAEAVArticulationJoint@23@@Z 00000001800349b0 f   ScbScene.obj
 0001:000339d0       ?removeArticulationJoint@Scene@Scb@physx@@QEAAXAEAVArticulationJoint@23@@Z 00000001800349d0 f   ScbScene.obj
 0001:00033a40       ?addAggregate@Scene@Scb@physx@@QEAAXAEAVAggregate@23@@Z 0000000180034a40 f   ScbScene.obj
 0001:00033ab0       ?removeAggregate@Scene@Scb@physx@@QEAAXAEAVAggregate@23@@Z 0000000180034ab0 f   ScbScene.obj
 0001:00033b10       ?addParticleSystem@Scene@Scb@physx@@QEAAXAEAVParticleSystem@23@@Z 0000000180034b10 f   ScbScene.obj
 0001:00033b30       ?removeParticleSystem@Scene@Scb@physx@@QEAAXAEAVParticleSystem@23@_N@Z 0000000180034b30 f   ScbScene.obj
 0001:00033ca0       ?addCloth@Scene@Scb@physx@@QEAAXAEAVCloth@23@@Z 0000000180034ca0 f   ScbScene.obj
 0001:00033e40       ?removeCloth@Scene@Scb@physx@@QEAAXAEAVCloth@23@@Z 0000000180034e40 f   ScbScene.obj
 0001:00033f90       ?addMaterial@Scene@Scb@physx@@QEAA_NAEAVMaterialCore@Sc@3@@Z 0000000180034f90 f   ScbScene.obj
 0001:00034100       ?updateMaterial@Scene@Scb@physx@@QEAAXAEAVMaterialCore@Sc@3@@Z 0000000180035100 f   ScbScene.obj
 0001:00034280       ?removeMaterial@Scene@Scb@physx@@QEAAXAEAVMaterialCore@Sc@3@@Z 0000000180035280 f   ScbScene.obj
 0001:00034400       ?updateLowLevelMaterial@Scene@Scb@physx@@QEAAXPEAPEAVNpMaterial@3@@Z 0000000180035400 f   ScbScene.obj
 0001:00034520       ?getBroadPhaseType@Scene@Scb@physx@@QEBA?AW4Enum@PxBroadPhaseType@3@XZ 0000000180035520 f   ScbScene.obj
 0001:00034530       ?getBroadPhaseCaps@Scene@Scb@physx@@QEBA_NAEAUPxBroadPhaseCaps@3@@Z 0000000180035530 f   ScbScene.obj
 0001:00034540       ?getNbBroadPhaseRegions@Scene@Scb@physx@@QEBAIXZ 0000000180035540 f   ScbScene.obj
 0001:00034550       ?getBroadPhaseRegions@Scene@Scb@physx@@QEBAIPEAUPxBroadPhaseRegionInfo@3@II@Z 0000000180035550 f   ScbScene.obj
 0001:00034560       ?addBroadPhaseRegion@Scene@Scb@physx@@QEAAIAEBUPxBroadPhaseRegion@3@_N@Z 0000000180035560 f   ScbScene.obj
 0001:000345c0       ?removeBroadPhaseRegion@Scene@Scb@physx@@QEAA_NI@Z 00000001800355c0 f   ScbScene.obj
 0001:00034610       ?addStaticAndShapesToPvd@Scene@Scb@physx@@QEAAXAEAVRigidStatic@23@@Z 0000000180035610 f   ScbScene.obj
 0001:00034770       ?addBodyAndShapesToPvd@Scene@Scb@physx@@QEAAXAEAVBody@23@@Z 0000000180035770 f   ScbScene.obj
 0001:000348d0       ?addShapeToPvd@Scene@Scb@physx@@QEAAXAEAVShape@23@AEAVPxActor@3@@Z 00000001800358d0 f   ScbScene.obj
 0001:000349f0       ?removeShapeFromPvd@Scene@Scb@physx@@QEAAXAEAVShape@23@AEAVPxActor@3@@Z 00000001800359f0 f   ScbScene.obj
 0001:00034b10       ?addAggregateToPvd@Scene@Scb@physx@@QEAAXAEAVAggregate@23@@Z 0000000180035b10 f   ScbScene.obj
 0001:00034c20       ?removeAggregateFromPvd@Scene@Scb@physx@@QEAAXAEAVAggregate@23@@Z 0000000180035c20 f   ScbScene.obj
 0001:00034d30       ?shiftOrigin@Scene@Scb@physx@@QEAAXAEBVPxVec3@3@@Z 0000000180035d30 f   ScbScene.obj
 0001:00034e60       ?syncEntireScene@Scene@Scb@physx@@QEAAXPEAI@Z 0000000180035e60 f   ScbScene.obj
 0001:000357f0       ?processPendingRemove@Scene@Scb@physx@@QEAAXXZ 00000001800367f0 f   ScbScene.obj
 0001:00035b70       ?bufferCreationError@Scene@Scb@physx@@SAXPEBD@Z 0000000180036b70 f   ScbScene.obj
 0001:00035bc0       ?scheduleForUpdate@Scene@Scb@physx@@QEAAXAEAVBase@23@@Z 0000000180036bc0 f   ScbScene.obj
 0001:00035c90       ?getStream@Scene@Scb@physx@@QEAAPEAEW4Enum@ScbType@3@@Z 0000000180036c90 f   ScbScene.obj
 0001:00035e70       ?syncState@Scene@Scb@physx@@AEAAXXZ 0000000180036e70 f   ScbScene.obj
 0001:00036050       ?preSimulateUpdateAppThread@Scene@Scb@physx@@QEAAXM@Z 0000000180037050 f   ScbScene.obj
 0001:000360d0       ?switchRigidToNoSim@Scene@Scb@physx@@QEAAXAEAVRigidObject@23@_N@Z 00000001800370d0 f   ScbScene.obj
 0001:000361f0       ?switchRigidFromNoSim@Scene@Scb@physx@@QEAAXAEAVRigidObject@23@_N@Z 00000001800371f0 f   ScbScene.obj
 0001:000362f0       ?isUpdatingPvd@Scene@Scb@physx@@AEAA_NXZ 00000001800372f0 f   ScbScene.obj
 0001:00036310       ?getPvd@Scene@Scb@physx@@AEAAPEAVSceneVisualDebugger@Pvd@3@XZ 0000000180037310 f   ScbScene.obj
 0001:00037350       ??$add@VArticulation@Scb@physx@@$00@Scene@Scb@physx@@AEAAXAEAVArticulation@12@AEAVObjectTracker@12@@Z 0000000180038350 f i ScbScene.obj
 0001:00037400       ??$add@VArticulationJoint@Scb@physx@@$0A@@Scene@Scb@physx@@AEAAXAEAVArticulationJoint@12@AEAVObjectTracker@12@@Z 0000000180038400 f i ScbScene.obj
 0001:000374b0       ??$add@VBody@Scb@physx@@$00@Scene@Scb@physx@@AEAAXAEAVBody@12@AEAVObjectTracker@12@@Z 00000001800384b0 f i ScbScene.obj
 0001:00037c40       ??$add@VConstraint@Scb@physx@@$00@Scene@Scb@physx@@AEAAXAEAVConstraint@12@AEAVObjectTracker@12@@Z 0000000180038c40 f i ScbScene.obj
 0001:00037d50       ??$add@VParticleSystem@Scb@physx@@$00@Scene@Scb@physx@@AEAAXAEAVParticleSystem@12@AEAVObjectTracker@12@@Z 0000000180038d50 f i ScbScene.obj
 0001:00037df0       ??$add@VRigidStatic@Scb@physx@@$00@Scene@Scb@physx@@AEAAXAEAVRigidStatic@12@AEAVObjectTracker@12@@Z 0000000180038df0 f i ScbScene.obj
 0001:00038580       ??$addRigidNoSim@VBody@Scb@physx@@$00$00@Scene@Scb@physx@@AEAAXAEAVBody@12@AEAVObjectTracker@12@@Z 0000000180039580 f i ScbScene.obj
 0001:00038c90       ??$addRigidNoSim@VRigidStatic@Scb@physx@@$0A@$00@Scene@Scb@physx@@AEAAXAEAVRigidStatic@12@AEAVObjectTracker@12@@Z 0000000180039c90 f i ScbScene.obj
 0001:000393a0       ??$copy@V?$InlineAllocator@$0CAA@VNamedAllocator@shdfnd@physx@@@shdfnd@physx@@@?$Array@PEBVShapeCore@Sc@physx@@V?$InlineAllocator@$0CAA@VNamedAllocator@shdfnd@physx@@@shdfnd@3@@shdfnd@physx@@IEAAXAEBV012@@Z 000000018003a3a0 f i ScbScene.obj
 0001:00039450       ??$pointerOffset@PEAVShape@Scb@physx@@@shdfnd@physx@@YAPEAVShape@Scb@1@PEAX_J@Z 000000018003a450 f i ScbScene.obj
 0001:00039460       ??$processRemoves@VArticulation@Scb@physx@@$00$0A@$00@Scene@Scb@physx@@AEAAXAEAVObjectTracker@12@@Z 000000018003a460 f i ScbScene.obj
 0001:00039550       ??$processRemoves@VArticulationJoint@Scb@physx@@$0A@$0A@$0A@@Scene@Scb@physx@@AEAAXAEAVObjectTracker@12@@Z 000000018003a550 f i ScbScene.obj
 0001:000395f0       ??$processRemoves@VBody@Scb@physx@@$00$00$00@Scene@Scb@physx@@AEAAXAEAVObjectTracker@12@@Z 000000018003a5f0 f i ScbScene.obj
 0001:00039ef0       ??$processRemoves@VCloth@Scb@physx@@$0A@$0A@$00@Scene@Scb@physx@@AEAAXAEAVObjectTracker@12@@Z 000000018003aef0 f i ScbScene.obj
 0001:00039fc0       ??$processRemoves@VConstraint@Scb@physx@@$00$0A@$0A@@Scene@Scb@physx@@AEAAXAEAVObjectTracker@12@@Z 000000018003afc0 f i ScbScene.obj
 0001:0003a090       ??$processRemoves@VParticleSystem@Scb@physx@@$0A@$0A@$00@Scene@Scb@physx@@AEAAXAEAVObjectTracker@12@@Z 000000018003b090 f i ScbScene.obj
 0001:0003a170       ??$processRemoves@VRigidStatic@Scb@physx@@$0A@$00$00@Scene@Scb@physx@@AEAAXAEAVObjectTracker@12@@Z 000000018003b170 f i ScbScene.obj
 0001:0003aa50       ??$processShapeRemoves@VBody@Scb@physx@@@Scene@Scb@physx@@AEAAXAEAVObjectTracker@12@@Z 000000018003ba50 f i ScbScene.obj
 0001:0003ad00       ??$processShapeRemoves@VRigidStatic@Scb@physx@@@Scene@Scb@physx@@AEAAXAEAVObjectTracker@12@@Z 000000018003bd00 f i ScbScene.obj
 0001:0003afb0       ??$processSimUpdates@VArticulation@Scb@physx@@VArticulationCore@Sc@3@$00@Scene@Scb@physx@@AEAAXPEBQEAVArticulationCore@Sc@2@I_N@Z 000000018003bfb0 f i ScbScene.obj
 0001:0003b060       ??$processSimUpdates@VBody@Scb@physx@@VBodyCore@Sc@3@$00@Scene@Scb@physx@@AEAAXPEBQEAVBodyCore@Sc@2@I_N@Z 000000018003c060 f i ScbScene.obj
 0001:0003b120       ??$processSimUpdates@VConstraint@Scb@physx@@VConstraintCore@Sc@3@$00@Scene@Scb@physx@@AEAAXPEBQEAVConstraintCore@Sc@2@I_N@Z 000000018003c120 f i ScbScene.obj
 0001:0003b1d0       ??$processUserUpdates@VArticulation@Scb@physx@@$00$00@Scene@Scb@physx@@AEAAXAEAVObjectTracker@12@_N@Z 000000018003c1d0 f i ScbScene.obj
 0001:0003b2e0       ??$processUserUpdates@VArticulationJoint@Scb@physx@@$0A@$00@Scene@Scb@physx@@AEAAXAEAVObjectTracker@12@_N@Z 000000018003c2e0 f i ScbScene.obj
 0001:0003b3f0       ??$processUserUpdates@VBody@Scb@physx@@$00$00@Scene@Scb@physx@@AEAAXAEAVObjectTracker@12@_N@Z 000000018003c3f0 f i ScbScene.obj
 0001:0003bc70       ??$processUserUpdates@VConstraint@Scb@physx@@$00$00@Scene@Scb@physx@@AEAAXAEAVObjectTracker@12@_N@Z 000000018003cc70 f i ScbScene.obj
 0001:0003bdf0       ??$processUserUpdates@VRigidStatic@Scb@physx@@$00$00@Scene@Scb@physx@@AEAAXAEAVObjectTracker@12@_N@Z 000000018003cdf0 f i ScbScene.obj
 0001:0003c670       ??$remove@VArticulation@Scb@physx@@$00@Scene@Scb@physx@@AEAAXAEAVArticulation@12@AEAVObjectTracker@12@_N@Z 000000018003d670 f i ScbScene.obj
 0001:0003c710       ??$remove@VArticulationJoint@Scb@physx@@$0A@@Scene@Scb@physx@@AEAAXAEAVArticulationJoint@12@AEAVObjectTracker@12@_N@Z 000000018003d710 f i ScbScene.obj
 0001:0003c780       ??$remove@VBody@Scb@physx@@$00@Scene@Scb@physx@@AEAAXAEAVBody@12@AEAVObjectTracker@12@_N@Z 000000018003d780 f i ScbScene.obj
 0001:0003cfc0       ??$remove@VRigidStatic@Scb@physx@@$00@Scene@Scb@physx@@AEAAXAEAVRigidStatic@12@AEAVObjectTracker@12@_N@Z 000000018003dfc0 f i ScbScene.obj
 0001:0003d800       ??$removeRigidNoSim@VBody@Scb@physx@@$00$00@Scene@Scb@physx@@AEAAXAEAVBody@12@AEAVObjectTracker@12@@Z 000000018003e800 f i ScbScene.obj
 0001:0003df90       ??$removeRigidNoSim@VRigidStatic@Scb@physx@@$0A@$00@Scene@Scb@physx@@AEAAXAEAVRigidStatic@12@AEAVObjectTracker@12@@Z 000000018003ef90 f i ScbScene.obj
 0001:0003e720       ??$smallSort@PEAX$$CBU?$Less@PEAX@shdfnd@physx@@@internal@shdfnd@physx@@YAXPEAPEAXHHAEBU?$Less@PEAX@12@@Z 000000018003f720 f i ScbScene.obj
 0001:0003e830       ??$sort@PEAXU?$Less@PEAX@shdfnd@physx@@VNamedAllocator@23@@shdfnd@physx@@YAXPEAPEAXIAEBU?$Less@PEAX@01@AEBVNamedAllocator@01@I@Z 000000018003f830 f i ScbScene.obj
 0001:0003ec60       ??0?$InlineArray@PEAVShape@Scb@physx@@$03VNamedAllocator@shdfnd@3@@shdfnd@physx@@QEAA@AEBVNamedAllocator@12@@Z 000000018003fc60 f i ScbScene.obj
 0001:0003ed30       ??0?$InlineArray@PEBVShapeCore@Sc@physx@@$0EA@VNamedAllocator@shdfnd@3@@shdfnd@physx@@QEAA@AEBV012@@Z 000000018003fd30 f i ScbScene.obj
 0001:0003ede0       ??0?$InlineArray@PEBVShapeCore@Sc@physx@@$0EA@VNamedAllocator@shdfnd@3@@shdfnd@physx@@QEAA@AEBVNamedAllocator@12@@Z 000000018003fde0 f i ScbScene.obj
 0001:0003ef00       ??0?$InlineArray@URemovedShape@Scb@physx@@$03VNamedAllocator@shdfnd@3@@shdfnd@physx@@QEAA@AEBVNamedAllocator@12@@Z 000000018003ff00 f i ScbScene.obj
 0001:0003efe0       ??0?$Range@QEAVActor@Sc@physx@@@Cm@physx@@QEAA@XZ 000000018003ffe0 f i ScbScene.obj
 0001:0003eff0       ??0BodyBuffer@Scb@physx@@QEAA@XZ 000000018003fff0 f i ScbScene.obj
 0001:0003f050       ??0FlushPool@Cm@physx@@QEAA@I@Z 0000000180040050 f i ScbScene.obj
 0001:0003f1f0       ??0PxTransform@physx@@QEAA@XZ 00000001800401f0 f i ScbScene.obj
 0001:0003f200       ??0RigidObjectBuffer@Scb@physx@@QEAA@XZ 0000000180040200 f i ScbScene.obj
 0001:0003f2a0       ??0SceneBuffer@Scb@physx@@QEAA@XZ 00000001800402a0 f i ScbScene.obj
 0001:0003f3c0       ??0ShapeBuffer@Scb@physx@@QEAA@XZ 00000001800403c0 f i ScbScene.obj
 0001:0003f410       ??1PxBaseTask@physx@@UEAA@XZ 0000000180040410 f i ScbScene.obj
 0001:0003f420       ??1PxLightCpuTask@physx@@UEAA@XZ 0000000180040420 f i ScbScene.obj
 0001:0003f440       ??DPxQuat@physx@@QEBA?AV01@AEBV01@@Z 0000000180040440 f i ScbScene.obj
 0001:0003f5c0       ??_GPxBaseTask@physx@@UEAAPEAXI@Z 00000001800405c0 f i ScbScene.obj
 0001:0003f5c0       ??_EPxBaseTask@physx@@UEAAPEAXI@Z 00000001800405c0 f i ScbScene.obj
 0001:0003f600       ?allocate@?$Array@PEAVShape@Scb@physx@@V?$InlineAllocator@$0CA@VNamedAllocator@shdfnd@physx@@@shdfnd@3@@shdfnd@physx@@IEAAPEAPEAVShape@Scb@3@I@Z 0000000180040600 f i ScbScene.obj
 0001:0003f690       ?allocate@?$Array@PEBVShapeCore@Sc@physx@@V?$InlineAllocator@$0CAA@VNamedAllocator@shdfnd@physx@@@shdfnd@3@@shdfnd@physx@@IEAAPEAPEBVShapeCore@Sc@3@I@Z 0000000180040690 f i ScbScene.obj
 0001:0003f730       ?allocateNotThreadSafe@FlushPool@Cm@physx@@QEAAPEAXII@Z 0000000180040730 f i ScbScene.obj
 0001:0003f870       ?clear@?$HashBase@PEAVBase@Scb@physx@@PEAV123@U?$Hash@PEAVBase@Scb@physx@@@shdfnd@3@UGetKey@?$HashSetBase@PEAVBase@Scb@physx@@U?$Hash@PEAVBase@Scb@physx@@@shdfnd@3@VAllocator@53@$00@internal@53@VAllocator@53@$00@internal@shdfnd@physx@@QEAAXXZ 0000000180040870 f i ScbScene.obj
 0001:0003f920       ?create@?$HashBase@PEAVBase@Scb@physx@@PEAV123@U?$Hash@PEAVBase@Scb@physx@@@shdfnd@3@UGetKey@?$HashSetBase@PEAVBase@Scb@physx@@U?$Hash@PEAVBase@Scb@physx@@@shdfnd@3@VAllocator@53@$00@internal@53@VAllocator@53@$00@internal@shdfnd@physx@@QEAAPEAPEAVBase@Scb@4@AEBQEAV564@AEA_N@Z 0000000180040920 f i ScbScene.obj
 0001:0003fb20       ?createInstance@?$PvdFns@VArticulation@Scb@physx@@$00@@SAXAEAVScene@Scb@physx@@PEAVSceneVisualDebugger@Pvd@4@PEAVArticulation@34@@Z 0000000180040b20 f i ScbScene.obj
 0001:0003fc60       ?createInstance@?$PvdFns@VBody@Scb@physx@@$00@@SAXAEAVScene@Scb@physx@@PEAVSceneVisualDebugger@Pvd@4@PEAVBody@34@@Z 0000000180040c60 f i ScbScene.obj
 0001:0003fda0       ?createInstance@?$PvdFns@VConstraint@Scb@physx@@$00@@SAXAEAVScene@Scb@physx@@PEAVSceneVisualDebugger@Pvd@4@PEAVConstraint@34@@Z 0000000180040da0 f i ScbScene.obj
 0001:0003fee0       ?createInstance@?$PvdFns@VParticleSystem@Scb@physx@@$00@@SAXAEAVScene@Scb@physx@@PEAVSceneVisualDebugger@Pvd@4@PEAVParticleSystem@34@@Z 0000000180040ee0 f i ScbScene.obj
 0001:00040020       ?createInstance@?$PvdFns@VRigidStatic@Scb@physx@@$00@@SAXAEAVScene@Scb@physx@@PEAVSceneVisualDebugger@Pvd@4@PEAVRigidStatic@34@@Z 0000000180041020 f i ScbScene.obj
 0001:00040160       ?erase@?$HashBase@PEAVBase@Scb@physx@@PEAV123@U?$Hash@PEAVBase@Scb@physx@@@shdfnd@3@UGetKey@?$HashSetBase@PEAVBase@Scb@physx@@U?$Hash@PEAVBase@Scb@physx@@@shdfnd@3@VAllocator@53@$00@internal@53@VAllocator@53@$00@internal@shdfnd@physx@@QEAA_NAEBQEAVBase@Scb@4@@Z 0000000180041160 f i ScbScene.obj
 0001:00040280       ?growAndPushBack@?$Array@PEAEVNamedAllocator@shdfnd@physx@@@shdfnd@physx@@IEAAAEAPEAEAEBQEAE@Z 0000000180041280 f i ScbScene.obj
 0001:000403a0       ?growAndPushBack@?$Array@PEAXVNamedAllocator@shdfnd@physx@@@shdfnd@physx@@IEAAAEAPEAXAEBQEAX@Z 00000001800413a0 f i ScbScene.obj
 0001:000404c0       ?growAndPushBack@?$Array@V?$PxFlags@W4Enum@PxClientBehaviorFlag@physx@@E@physx@@VNamedAllocator@shdfnd@2@@shdfnd@physx@@IEAAAEAV?$PxFlags@W4Enum@PxClientBehaviorFlag@physx@@E@3@AEBV43@@Z 00000001800414c0 f i ScbScene.obj
 0001:000405d0       ?growAndPushBack@?$Array@VMaterialEvent@Scb@physx@@VNamedAllocator@shdfnd@3@@shdfnd@physx@@IEAAAEAVMaterialEvent@Scb@3@AEBV453@@Z 00000001800415d0 f i ScbScene.obj
 0001:000406f0       ?putToSleepInternal@Body@Scb@physx@@QEAAXXZ 00000001800416f0 f i ScbScene.obj
 0001:000407f0       ?recreate@?$Array@PEAVShape@Scb@physx@@V?$InlineAllocator@$0CA@VNamedAllocator@shdfnd@physx@@@shdfnd@3@@shdfnd@physx@@IEAAXI@Z 00000001800417f0 f i ScbScene.obj
 0001:00040890       ?recreate@?$Array@URemovedShape@Scb@physx@@V?$InlineAllocator@$0EA@VNamedAllocator@shdfnd@physx@@@shdfnd@3@@shdfnd@physx@@IEAAXI@Z 0000000180041890 f i ScbScene.obj
 0001:000409b0       ?recreate@?$Array@VMaterialEvent@Scb@physx@@VNamedAllocator@shdfnd@3@@shdfnd@physx@@IEAAXI@Z 00000001800419b0 f i ScbScene.obj
 0001:00040a90       ?releaseInstance@?$PvdFns@VArticulation@Scb@physx@@$00@@SAXAEAVScene@Scb@physx@@PEAVSceneVisualDebugger@Pvd@4@PEAVArticulation@34@@Z 0000000180041a90 f i ScbScene.obj
 0001:00040bd0       ?releaseInstance@?$PvdFns@VBody@Scb@physx@@$00@@SAXAEAVScene@Scb@physx@@PEAVSceneVisualDebugger@Pvd@4@PEAVBody@34@@Z 0000000180041bd0 f i ScbScene.obj
 0001:00040d10       ?releaseInstance@?$PvdFns@VCloth@Scb@physx@@$00@@SAXAEAVScene@Scb@physx@@PEAVSceneVisualDebugger@Pvd@4@PEAVCloth@34@@Z 0000000180041d10 f i ScbScene.obj
 0001:00040e50       ?releaseInstance@?$PvdFns@VParticleSystem@Scb@physx@@$00@@SAXAEAVScene@Scb@physx@@PEAVSceneVisualDebugger@Pvd@4@PEAVParticleSystem@34@@Z 0000000180041e50 f i ScbScene.obj
 0001:00040f90       ?releaseInstance@?$PvdFns@VRigidStatic@Scb@physx@@$00@@SAXAEAVScene@Scb@physx@@PEAVSceneVisualDebugger@Pvd@4@PEAVRigidStatic@34@@Z 0000000180041f90 f i ScbScene.obj
 0001:000410d0       ?replaceWithLast@?$HashBase@PEAVBase@Scb@physx@@PEAV123@U?$Hash@PEAVBase@Scb@physx@@@shdfnd@3@UGetKey@?$HashSetBase@PEAVBase@Scb@physx@@U?$Hash@PEAVBase@Scb@physx@@@shdfnd@3@VAllocator@53@$00@internal@53@VAllocator@53@$00@internal@shdfnd@physx@@AEAAXI@Z 00000001800420d0 f i ScbScene.obj
 0001:000411d0       ?reserveInternal@?$HashBase@PEAVBase@Scb@physx@@PEAV123@U?$Hash@PEAVBase@Scb@physx@@@shdfnd@3@UGetKey@?$HashSetBase@PEAVBase@Scb@physx@@U?$Hash@PEAVBase@Scb@physx@@@shdfnd@3@VAllocator@53@$00@internal@53@VAllocator@53@$00@internal@shdfnd@physx@@AEAAXI@Z 00000001800421d0 f i ScbScene.obj
 0001:000413f0       ?resize@?$Array@PEAVShape@Scb@physx@@V?$InlineAllocator@$0CA@VNamedAllocator@shdfnd@physx@@@shdfnd@3@@shdfnd@physx@@QEAAXIAEBQEAVShape@Scb@3@@Z 00000001800423f0 f i ScbScene.obj
 0001:00041470       ?resize@?$Array@URemovedShape@Scb@physx@@V?$InlineAllocator@$0EA@VNamedAllocator@shdfnd@physx@@@shdfnd@3@@shdfnd@physx@@QEAAXIAEBURemovedShape@Scb@3@@Z 0000000180042470 f i ScbScene.obj
 0001:00041500       ?resize@?$Array@VMaterialEvent@Scb@physx@@VNamedAllocator@shdfnd@3@@shdfnd@physx@@QEAAXIAEBVMaterialEvent@Scb@3@@Z 0000000180042500 f i ScbScene.obj
 0001:00041580       ?resize@PxsMaterialManager@physx@@QEAAXI@Z 0000000180042580 f i ScbScene.obj
 0001:000418d0       ?setAngularVelocity@Body@Scb@physx@@QEAAXAEBVPxVec3@3@@Z 00000001800428d0 f i ScbScene.obj
 0001:000419c0       ?setLinearVelocity@Body@Scb@physx@@QEAAXAEBVPxVec3@3@@Z 00000001800429c0 f i ScbScene.obj
 0001:00041ab0       ?setMaterial@PxsMaterialManager@physx@@QEAAXPEAVPxsMaterialCore@2@@Z 0000000180042ab0 f i ScbScene.obj
 0001:00041b40       ?syncDominancePairs@SceneBuffer@Scb@physx@@QEAAXAEAVScene@Sc@3@@Z 0000000180042b40 f i ScbScene.obj
 0001:00041c70       ?syncState@Aggregate@Scb@physx@@QEAAXAEAVScene@23@@Z 0000000180042c70 f i ScbScene.obj
 0001:00041f30       ?syncState@Articulation@Scb@physx@@QEAAXXZ 0000000180042f30 f i ScbScene.obj
 0001:000420e0       ?syncState@ArticulationJoint@Scb@physx@@QEAAXXZ 00000001800430e0 f i ScbScene.obj
 0001:00042330       ?syncState@Body@Scb@physx@@QEAAXXZ 0000000180043330 f i ScbScene.obj
 0001:00042d70       ?syncState@Constraint@Scb@physx@@QEAAXXZ 0000000180043d70 f i ScbScene.obj
 0001:00042ec0       ?syncState@RigidObject@Scb@physx@@QEAAXXZ 0000000180043ec0 f i ScbScene.obj
 0001:00043170       ?syncState@RigidStatic@Scb@physx@@QEAAXXZ 0000000180044170 f i ScbScene.obj
 0001:00043270       ?updateInstance@?$PvdFns@VArticulation@Scb@physx@@$00@@SAXAEAVScene@Scb@physx@@PEAVSceneVisualDebugger@Pvd@4@PEAVArticulation@34@@Z 0000000180044270 f i ScbScene.obj
 0001:000433d0       ?updateInstance@?$PvdFns@VArticulationJoint@Scb@physx@@$00@@SAXAEAVScene@Scb@physx@@PEAVSceneVisualDebugger@Pvd@4@PEAVArticulationJoint@34@@Z 00000001800443d0 f i ScbScene.obj
 0001:00043530       ?updateInstance@?$PvdFns@VBody@Scb@physx@@$00@@SAXAEAVScene@Scb@physx@@PEAVSceneVisualDebugger@Pvd@4@PEAVBody@34@@Z 0000000180044530 f i ScbScene.obj
 0001:00043690       ?updateInstance@?$PvdFns@VConstraint@Scb@physx@@$00@@SAXAEAVScene@Scb@physx@@PEAVSceneVisualDebugger@Pvd@4@PEAVConstraint@34@@Z 0000000180044690 f i ScbScene.obj
 0001:000437f0       ?updateInstance@?$PvdFns@VRigidStatic@Scb@physx@@$00@@SAXAEAVScene@Scb@physx@@PEAVSceneVisualDebugger@Pvd@4@PEAVRigidStatic@34@@Z 00000001800447f0 f i ScbScene.obj
 0001:00043950       ?syncState@Shape@Scb@physx@@QEAAXXZ 0000000180044950 f   ScbShape.obj
 0001:00043b20       ?setMaterialsHelper@Shape@Scb@physx@@AEAA_NPEBQEAVPxMaterial@3@G@Z 0000000180044b20 f   ScbShape.obj
 0001:00043d70       ??0NpCloth@physx@@QEAA@V?$PxFlags@W4Enum@PxBaseFlag@physx@@G@1@@Z 0000000180044d70 f   NpCloth.obj
 0001:00043df0       ?requires@NpCloth@physx@@UEAAXAEAVPxProcessPxBaseCallback@2@@Z 0000000180044df0 f   NpCloth.obj
 0001:00043e10       ?resolveReferences@NpCloth@physx@@UEAAXAEAVPxDeserializationContext@2@@Z 0000000180044e10 f   NpCloth.obj
 0001:00043e70       ?createObject@NpCloth@physx@@SAPEAV12@AEAPEAEAEAVPxDeserializationContext@2@@Z 0000000180044e70 f   NpCloth.obj
 0001:00043f30       ??0NpCloth@physx@@QEAA@AEBVPxTransform@1@AEAVNpClothFabric@1@PEBUPxClothParticle@1@V?$PxFlags@W4Enum@PxClothFlag@physx@@G@1@@Z 0000000180044f30 f   NpCloth.obj
 0001:00044010       ??1NpCloth@physx@@UEAA@XZ  0000000180045010 f   NpCloth.obj
 0001:000440b0       ?release@NpCloth@physx@@UEAAXXZ 00000001800450b0 f   NpCloth.obj
 0001:00044130       ?getType@NpCloth@physx@@UEBA?AW4Enum@PxActorType@2@XZ 0000000180045130 f   NpCloth.obj
 0001:00044140       ?getFabric@NpCloth@physx@@UEBAPEAVPxClothFabric@2@XZ 0000000180045140 f   NpCloth.obj
 0001:00044180       ?setParticles@NpCloth@physx@@UEAAXPEBUPxClothParticle@2@0@Z 0000000180045180 f   NpCloth.obj
 0001:000442f0       ?getNbParticles@NpCloth@physx@@UEBAIXZ 00000001800452f0 f   NpCloth.obj
 0001:00044340       ?setMotionConstraints@NpCloth@physx@@UEAAXPEBUPxClothParticleMotionConstraint@2@@Z 0000000180045340 f   NpCloth.obj
 0001:00044490       ?getMotionConstraints@NpCloth@physx@@UEBA_NPEAUPxClothParticleMotionConstraint@2@@Z 0000000180045490 f   NpCloth.obj
 0001:00044580       ?getNbMotionConstraints@NpCloth@physx@@UEBAIXZ 0000000180045580 f   NpCloth.obj
 0001:000445d0       ?setMotionConstraintConfig@NpCloth@physx@@UEAAXAEBUPxClothMotionConstraintConfig@2@@Z 00000001800455d0 f   NpCloth.obj
 0001:000446f0       ?getMotionConstraintConfig@NpCloth@physx@@UEBA?AUPxClothMotionConstraintConfig@2@XZ 00000001800456f0 f   NpCloth.obj
 0001:00044750       ?setSeparationConstraints@NpCloth@physx@@UEAAXPEBUPxClothParticleSeparationConstraint@2@@Z 0000000180045750 f   NpCloth.obj
 0001:000448a0       ?getSeparationConstraints@NpCloth@physx@@UEBA_NPEAUPxClothParticleSeparationConstraint@2@@Z 00000001800458a0 f   NpCloth.obj
 0001:00044990       ?getNbSeparationConstraints@NpCloth@physx@@UEBAIXZ 0000000180045990 f   NpCloth.obj
 0001:000449a0       ?clearInterpolation@NpCloth@physx@@UEAAXXZ 00000001800459a0 f   NpCloth.obj
 0001:000449b0       ?setParticleAccelerations@NpCloth@physx@@UEAAXPEBVPxVec4@2@@Z 00000001800459b0 f   NpCloth.obj
 0001:00044ab0       ?getParticleAccelerations@NpCloth@physx@@UEBA_NPEAVPxVec4@2@@Z 0000000180045ab0 f   NpCloth.obj
 0001:00044b70       ?getNbParticleAccelerations@NpCloth@physx@@UEBAIXZ 0000000180045b70 f   NpCloth.obj
 0001:00044b80       ?addCollisionSphere@NpCloth@physx@@UEAAXAEBUPxClothCollisionSphere@2@@Z 0000000180045b80 f   NpCloth.obj
 0001:00044cb0       ?removeCollisionSphere@NpCloth@physx@@UEAAXI@Z 0000000180045cb0 f   NpCloth.obj
 0001:00044d50       ?setCollisionSpheres@NpCloth@physx@@UEAAXPEBUPxClothCollisionSphere@2@I@Z 0000000180045d50 f   NpCloth.obj
 0001:00044e20       ?getNbCollisionSpheres@NpCloth@physx@@UEBAIXZ 0000000180045e20 f   NpCloth.obj
 0001:00044ed0       ?getCollisionData@NpCloth@physx@@UEBAXPEAUPxClothCollisionSphere@2@PEAIPEAUPxClothCollisionPlane@2@1PEAUPxClothCollisionTriangle@2@@Z 0000000180045ed0 f   NpCloth.obj
 0001:00044fb0       ?addCollisionCapsule@NpCloth@physx@@UEAAXII@Z 0000000180045fb0 f   NpCloth.obj
 0001:00045140       ?removeCollisionCapsule@NpCloth@physx@@UEAAXI@Z 0000000180046140 f   NpCloth.obj
 0001:00045220       ?getNbCollisionCapsules@NpCloth@physx@@UEBAIXZ 0000000180046220 f   NpCloth.obj
 0001:000452d0       ?addCollisionTriangle@NpCloth@physx@@UEAAXAEBUPxClothCollisionTriangle@2@@Z 00000001800462d0 f   NpCloth.obj
 0001:000453b0       ?removeCollisionTriangle@NpCloth@physx@@UEAAXI@Z 00000001800463b0 f   NpCloth.obj
 0001:00045490       ?setCollisionTriangles@NpCloth@physx@@UEAAXPEBUPxClothCollisionTriangle@2@I@Z 0000000180046490 f   NpCloth.obj
 0001:00045580       ?getNbCollisionTriangles@NpCloth@physx@@UEBAIXZ 0000000180046580 f   NpCloth.obj
 0001:00045630       ?addCollisionPlane@NpCloth@physx@@UEAAXAEBUPxClothCollisionPlane@2@@Z 0000000180046630 f   NpCloth.obj
 0001:000457b0       ?removeCollisionPlane@NpCloth@physx@@UEAAXI@Z 00000001800467b0 f   NpCloth.obj
 0001:00045890       ?setCollisionPlanes@NpCloth@physx@@UEAAXPEBUPxClothCollisionPlane@2@I@Z 0000000180046890 f   NpCloth.obj
 0001:000459b0       ?getNbCollisionPlanes@NpCloth@physx@@UEBAIXZ 00000001800469b0 f   NpCloth.obj
 0001:00045a60       ?addCollisionConvex@NpCloth@physx@@UEAAXI@Z 0000000180046a60 f   NpCloth.obj
 0001:00045b40       ?removeCollisionConvex@NpCloth@physx@@UEAAXI@Z 0000000180046b40 f   NpCloth.obj
 0001:00045c20       ?getNbCollisionConvexes@NpCloth@physx@@UEBAIXZ 0000000180046c20 f   NpCloth.obj
 0001:00045cd0       ?setVirtualParticles@NpCloth@physx@@UEAAXIPEBIIPEBVPxVec3@2@@Z 0000000180046cd0 f   NpCloth.obj
 0001:00045ec0       ?getNbVirtualParticles@NpCloth@physx@@UEBAIXZ 0000000180046ec0 f   NpCloth.obj
 0001:00045f70       ?getVirtualParticles@NpCloth@physx@@UEBAXPEAI@Z 0000000180046f70 f   NpCloth.obj
 0001:00046040       ?getNbVirtualParticleWeights@NpCloth@physx@@UEBAIXZ 0000000180047040 f   NpCloth.obj
 0001:000460f0       ?getVirtualParticleWeights@NpCloth@physx@@UEBAXPEAVPxVec3@2@@Z 00000001800470f0 f   NpCloth.obj
 0001:000461c0       ?setGlobalPose@NpCloth@physx@@UEAAXAEBVPxTransform@2@@Z 00000001800471c0 f   NpCloth.obj
 0001:000463a0       ?getGlobalPose@NpCloth@physx@@UEBA?AVPxTransform@2@XZ 00000001800473a0 f   NpCloth.obj
 0001:00046400       ?setTargetPose@NpCloth@physx@@UEAAXAEBVPxTransform@2@@Z 0000000180047400 f   NpCloth.obj
 0001:000465e0       ?setExternalAcceleration@NpCloth@physx@@UEAAXVPxVec3@2@@Z 00000001800475e0 f   NpCloth.obj
 0001:00046750       ?getExternalAcceleration@NpCloth@physx@@UEBA?AVPxVec3@2@XZ 0000000180047750 f   NpCloth.obj
 0001:000467b0       ?setLinearInertiaScale@NpCloth@physx@@UEAAXVPxVec3@2@@Z 00000001800477b0 f   NpCloth.obj
 0001:000468e0       ?getLinearInertiaScale@NpCloth@physx@@UEBA?AVPxVec3@2@XZ 00000001800478e0 f   NpCloth.obj
 0001:00046910       ?setAngularInertiaScale@NpCloth@physx@@UEAAXVPxVec3@2@@Z 0000000180047910 f   NpCloth.obj
 0001:00046a40       ?getAngularInertiaScale@NpCloth@physx@@UEBA?AVPxVec3@2@XZ 0000000180047a40 f   NpCloth.obj
 0001:00046a70       ?setCentrifugalInertiaScale@NpCloth@physx@@UEAAXVPxVec3@2@@Z 0000000180047a70 f   NpCloth.obj
 0001:00046ba0       ?getCentrifugalInertiaScale@NpCloth@physx@@UEBA?AVPxVec3@2@XZ 0000000180047ba0 f   NpCloth.obj
 0001:00046bd0       ?setInertiaScale@NpCloth@physx@@UEAAXM@Z 0000000180047bd0 f   NpCloth.obj
 0001:00046cb0       ?setDampingCoefficient@NpCloth@physx@@UEAAXVPxVec3@2@@Z 0000000180047cb0 f   NpCloth.obj
 0001:00046de0       ?getDampingCoefficient@NpCloth@physx@@UEBA?AVPxVec3@2@XZ 0000000180047de0 f   NpCloth.obj
 0001:00046e40       ?setFrictionCoefficient@NpCloth@physx@@UEAAXM@Z 0000000180047e40 f   NpCloth.obj
 0001:00046f80       ?getFrictionCoefficient@NpCloth@physx@@UEBAMXZ 0000000180047f80 f   NpCloth.obj
 0001:00046ff0       ?setLinearDragCoefficient@NpCloth@physx@@UEAAXVPxVec3@2@@Z 0000000180047ff0 f   NpCloth.obj
 0001:00047120       ?getLinearDragCoefficient@NpCloth@physx@@UEBA?AVPxVec3@2@XZ 0000000180048120 f   NpCloth.obj
 0001:00047150       ?setAngularDragCoefficient@NpCloth@physx@@UEAAXVPxVec3@2@@Z 0000000180048150 f   NpCloth.obj
 0001:00047280       ?getAngularDragCoefficient@NpCloth@physx@@UEBA?AVPxVec3@2@XZ 0000000180048280 f   NpCloth.obj
 0001:000472b0       ?setDragCoefficient@NpCloth@physx@@UEAAXM@Z 00000001800482b0 f   NpCloth.obj
 0001:00047320       ?setCollisionMassScale@NpCloth@physx@@UEAAXM@Z 0000000180048320 f   NpCloth.obj
 0001:000473f0       ?getCollisionMassScale@NpCloth@physx@@UEBAMXZ 00000001800483f0 f   NpCloth.obj
 0001:00047460       ?setSelfCollisionDistance@NpCloth@physx@@UEAAXM@Z 0000000180048460 f   NpCloth.obj
 0001:00047530       ?getSelfCollisionDistance@NpCloth@physx@@UEBAMXZ 0000000180048530 f   NpCloth.obj
 0001:000475a0       ?setSelfCollisionStiffness@NpCloth@physx@@UEAAXM@Z 00000001800485a0 f   NpCloth.obj
 0001:00047670       ?getSelfCollisionStiffness@NpCloth@physx@@UEBAMXZ 0000000180048670 f   NpCloth.obj
 0001:000476e0       ?setSelfCollisionIndices@NpCloth@physx@@UEAAXPEBII@Z 00000001800486e0 f   NpCloth.obj
 0001:000477d0       ?getSelfCollisionIndices@NpCloth@physx@@UEBA_NPEAI@Z 00000001800487d0 f   NpCloth.obj
 0001:00047840       ?getNbSelfCollisionIndices@NpCloth@physx@@UEBAIXZ 0000000180048840 f   NpCloth.obj
 0001:00047850       ?setRestPositions@NpCloth@physx@@UEAAXPEBVPxVec4@2@@Z 0000000180048850 f   NpCloth.obj
 0001:00047930       ?getRestPositions@NpCloth@physx@@UEBA_NPEAVPxVec4@2@@Z 0000000180048930 f   NpCloth.obj
 0001:000479a0       ?getNbRestPositions@NpCloth@physx@@UEBAIXZ 00000001800489a0 f   NpCloth.obj
 0001:000479b0       ?setSolverFrequency@NpCloth@physx@@UEAAXM@Z 00000001800489b0 f   NpCloth.obj
 0001:00047ad0       ?getSolverFrequency@NpCloth@physx@@UEBAMXZ 0000000180048ad0 f   NpCloth.obj
 0001:00047b30       ?setStiffnessFrequency@NpCloth@physx@@UEAAXM@Z 0000000180048b30 f   NpCloth.obj
 0001:00047c50       ?getStiffnessFrequency@NpCloth@physx@@UEBAMXZ 0000000180048c50 f   NpCloth.obj
 0001:00047cb0       ?setStretchConfig@NpCloth@physx@@UEAAXW4Enum@PxClothFabricPhaseType@2@AEBUPxClothStretchConfig@2@@Z 0000000180048cb0 f   NpCloth.obj
 0001:00047eb0       ?getStretchConfig@NpCloth@physx@@UEBA?AUPxClothStretchConfig@2@W4Enum@PxClothFabricPhaseType@2@@Z 0000000180048eb0 f   NpCloth.obj
 0001:00047f20       ?setTetherConfig@NpCloth@physx@@UEAAXAEBUPxClothTetherConfig@2@@Z 0000000180048f20 f   NpCloth.obj
 0001:00048030       ?getTetherConfig@NpCloth@physx@@UEBA?AUPxClothTetherConfig@2@XZ 0000000180049030 f   NpCloth.obj
 0001:00048090       ?setClothFlags@NpCloth@physx@@UEAAXV?$PxFlags@W4Enum@PxClothFlag@physx@@G@2@@Z 0000000180049090 f   NpCloth.obj
 0001:000481c0       ?setClothFlag@NpCloth@physx@@UEAAXW4Enum@PxClothFlag@2@_N@Z 00000001800491c0 f   NpCloth.obj
 0001:000482c0       ?getClothFlags@NpCloth@physx@@UEBA?AV?$PxFlags@W4Enum@PxClothFlag@physx@@G@2@XZ 00000001800492c0 f   NpCloth.obj
 0001:00048320       ?isSleeping@NpCloth@physx@@UEBA_NXZ 0000000180049320 f   NpCloth.obj
 0001:000483b0       ?getSleepLinearVelocity@NpCloth@physx@@UEBAMXZ 00000001800493b0 f   NpCloth.obj
 0001:00048450       ?setSleepLinearVelocity@NpCloth@physx@@UEAAXM@Z 0000000180049450 f   NpCloth.obj
 0001:00048570       ?setWakeCounter@NpCloth@physx@@UEAAXM@Z 0000000180049570 f   NpCloth.obj
 0001:00048650       ?getWakeCounter@NpCloth@physx@@UEBAMXZ 0000000180049650 f   NpCloth.obj
 0001:000486f0       ?wakeUp@NpCloth@physx@@UEAAXXZ 00000001800496f0 f   NpCloth.obj
 0001:00048780       ?putToSleep@NpCloth@physx@@UEAAXXZ 0000000180049780 f   NpCloth.obj
 0001:00048810       ?lockParticleData@NpCloth@physx@@UEAAPEAVPxClothParticleData@2@V?$PxFlags@W4Enum@PxDataAccessFlag@physx@@E@2@@Z 0000000180049810 f   NpCloth.obj
 0001:000488c0       ?lockParticleData@NpCloth@physx@@UEBAPEAVPxClothParticleData@2@XZ 00000001800498c0 f   NpCloth.obj
 0001:000488f0       ?getPreviousTimeStep@NpCloth@physx@@UEBAMXZ 00000001800498f0 f   NpCloth.obj
 0001:00048990       ?getWorldBounds@NpCloth@physx@@UEBA?AVPxBounds3@2@M@Z 0000000180049990 f   NpCloth.obj
 0001:00048b60       ?setSimulationFilterData@NpCloth@physx@@UEAAXAEBUPxFilterData@2@@Z 0000000180049b60 f   NpCloth.obj
 0001:00048c00       ?getSimulationFilterData@NpCloth@physx@@UEBA?AUPxFilterData@2@XZ 0000000180049c00 f   NpCloth.obj
 0001:00048c60       ?setContactOffset@NpCloth@physx@@UEAAXM@Z 0000000180049c60 f   NpCloth.obj
 0001:00048d00       ?getContactOffset@NpCloth@physx@@UEBAMXZ 0000000180049d00 f   NpCloth.obj
 0001:00048da0       ?setRestOffset@NpCloth@physx@@UEAAXM@Z 0000000180049da0 f   NpCloth.obj
 0001:00048e40       ?getRestOffset@NpCloth@physx@@UEBAMXZ 0000000180049e40 f   NpCloth.obj
 0001:00048ee0       ?checkParticles@NpCloth@physx@@SA_NIPEBUPxClothParticle@2@@Z 0000000180049ee0 f   NpCloth.obj
 0001:00048f90       ?checkMotionConstraints@NpCloth@physx@@SA_NIPEBUPxClothParticleMotionConstraint@2@@Z 0000000180049f90 f   NpCloth.obj
 0001:00049040       ?checkSeparationConstraints@NpCloth@physx@@SA_NIPEBUPxClothParticleSeparationConstraint@2@@Z 000000018004a040 f   NpCloth.obj
 0001:000490f0       ?checkParticleAccelerations@NpCloth@physx@@SA_NIPEBVPxVec4@2@@Z 000000018004a0f0 f   NpCloth.obj
 0001:000491b0       ?checkCollisionSpheres@NpCloth@physx@@SA_NIPEBUPxClothCollisionSphere@2@@Z 000000018004a1b0 f   NpCloth.obj
 0001:00049260       ?checkCollisionSpherePairs@NpCloth@physx@@SA_NIIPEBI@Z 000000018004a260 f   NpCloth.obj
 0001:000492b0       ?checkVirtualParticles@NpCloth@physx@@SA_NIIPEBIIPEBVPxVec3@2@@Z 000000018004a2b0 f   NpCloth.obj
 0001:00049390       ?visualize@NpCloth@physx@@UEAAXAEAVRenderOutput@Cm@2@PEAVNpScene@2@@Z 000000018004a390 f   NpCloth.obj
 0001:00049ff0       ?unlockParticleData@NpCloth@physx@@QEAAXXZ 000000018004aff0 f   NpCloth.obj
 0001:0004a000       ?sendPvdSimpleProperties@NpCloth@physx@@AEAAXXZ 000000018004b000 f   NpCloth.obj
 0001:0004a060       ?sendPvdMotionConstraints@NpCloth@physx@@AEAAXXZ 000000018004b060 f   NpCloth.obj
 0001:0004a0c0       ?sendPvdSeparationConstraints@NpCloth@physx@@AEAAXXZ 000000018004b0c0 f   NpCloth.obj
 0001:0004a120       ?sendPvdCollisionSpheres@NpCloth@physx@@AEAAXXZ 000000018004b120 f   NpCloth.obj
 0001:0004a180       ?sendPvdCollisionCapsules@NpCloth@physx@@AEAAXXZ 000000018004b180 f   NpCloth.obj
 0001:0004a1e0       ?sendPvdCollisionTriangles@NpCloth@physx@@AEAAXXZ 000000018004b1e0 f   NpCloth.obj
 0001:0004a240       ?sendPvdVirtualParticles@NpCloth@physx@@AEAAXXZ 000000018004b240 f   NpCloth.obj
 0001:0004a2a0       ?sendPvdSelfCollisionIndices@NpCloth@physx@@AEAAXXZ 000000018004b2a0 f   NpCloth.obj
 0001:0004a300       ?sendPvdRestPositions@NpCloth@physx@@AEAAXXZ 000000018004b300 f   NpCloth.obj
 0001:0004bcd0       ??0?$NpActorTemplate@VPxCloth@physx@@@physx@@QEAA@GV?$PxFlags@W4Enum@PxBaseFlag@physx@@G@1@PEBDPEAX@Z 000000018004ccd0 f i NpCloth.obj
 0001:0004bd40       ??1?$NpActorTemplate@VPxCloth@physx@@@physx@@UEAA@XZ 000000018004cd40 f i NpCloth.obj
 0001:0004bd80       ??1NpClothParticleData@physx@@UEAA@XZ 000000018004cd80 f i NpCloth.obj
 0001:0004bd90       ??1PxCloth@physx@@MEAA@XZ  000000018004cd90 f i NpCloth.obj
 0001:0004bda0       ??_G?$NpActorTemplate@VPxCloth@physx@@@physx@@UEAAPEAXI@Z 000000018004cda0 f i NpCloth.obj
 0001:0004bda0       ??_E?$NpActorTemplate@VPxCloth@physx@@@physx@@UEAAPEAXI@Z 000000018004cda0 f i NpCloth.obj
 0001:0004be40       ??_ENpCloth@physx@@UEAAPEAXI@Z 000000018004ce40 f i NpCloth.obj
 0001:0004be40       ??_GNpCloth@physx@@UEAAPEAXI@Z 000000018004ce40 f i NpCloth.obj
 0001:0004beb0       ??_GNpClothParticleData@physx@@UEAAPEAXI@Z 000000018004ceb0 f i NpCloth.obj
 0001:0004beb0       ??_ENpClothParticleData@physx@@UEAAPEAXI@Z 000000018004ceb0 f i NpCloth.obj
 0001:0004bf10       ??_GPxCloth@physx@@MEAAPEAXI@Z 000000018004cf10 f i NpCloth.obj
 0001:0004bf10       ??_EPxCloth@physx@@MEAAPEAXI@Z 000000018004cf10 f i NpCloth.obj
 0001:0004bf50       ??_EPxClothParticleData@physx@@UEAAPEAXI@Z 000000018004cf50 f i NpCloth.obj
 0001:0004bf50       ??_GPxClothParticleData@physx@@UEAAPEAXI@Z 000000018004cf50 f i NpCloth.obj
 0001:0004bf90       ?addCollisionSphere@Cloth@Scb@physx@@QEAAXAEBUPxClothCollisionSphere@3@@Z 000000018004cf90 f i NpCloth.obj
 0001:0004c010       ?copy@?$Array@VPxVec3@physx@@VNamedAllocator@shdfnd@2@@shdfnd@physx@@KAXPEAVPxVec3@3@0PEBV43@@Z 000000018004d010 f i NpCloth.obj
 0001:0004c140       ?create@?$Array@VPxVec3@physx@@VNamedAllocator@shdfnd@2@@shdfnd@physx@@KAXPEAVPxVec3@3@0AEBV43@@Z 000000018004d140 f i NpCloth.obj
 0001:0004c250       ?exportExtraData@?$NpActorTemplate@VPxCloth@physx@@@physx@@UEAAXAEAVPxSerializationContext@2@@Z 000000018004d250 f i NpCloth.obj
 0001:0004c260       ?exportExtraData@NpCloth@physx@@UEAAXAEAVPxSerializationContext@2@@Z 000000018004d260 f i NpCloth.obj
 0001:0004c270       ?getActorFlags@?$NpActorTemplate@VPxCloth@physx@@@physx@@UEBA?AV?$PxFlags@W4Enum@PxActorFlag@physx@@G@2@XZ 000000018004d270 f i NpCloth.obj
 0001:0004c310       ?getAggregate@?$NpActorTemplate@VPxCloth@physx@@@physx@@UEBAPEAVPxAggregate@2@XZ 000000018004d310 f i NpCloth.obj
 0001:0004c320       ?getAngularDragCoefficient@Cloth@Scb@physx@@QEBA?AVPxVec3@3@XZ 000000018004d320 f i NpCloth.obj
 0001:0004c3c0       ?getAngularInertiaScale@Cloth@Scb@physx@@QEBA?AVPxVec3@3@XZ 000000018004d3c0 f i NpCloth.obj
 0001:0004c460       ?getCentrifugalInertiaScale@Cloth@Scb@physx@@QEBA?AVPxVec3@3@XZ 000000018004d460 f i NpCloth.obj
 0001:0004c500       ?getClientBehaviorFlags@?$NpActorTemplate@VPxCloth@physx@@@physx@@UEBA?AV?$PxFlags@W4Enum@PxActorClientBehaviorFlag@physx@@E@2@XZ 000000018004d500 f i NpCloth.obj
 0001:0004c5a0       ?getClothFlags@Cloth@Scb@physx@@QEBA?AV?$PxFlags@W4Enum@PxClothFlag@physx@@G@3@XZ 000000018004d5a0 f i NpCloth.obj
 0001:0004c630       ?getConcreteTypeName@PxCloth@physx@@UEBAPEBDXZ 000000018004d630 f i NpCloth.obj
 0001:0004c640       ?getDampingCoefficient@Cloth@Scb@physx@@QEBA?AVPxVec3@3@XZ 000000018004d640 f i NpCloth.obj
 0001:0004c6e0       ?getDataAccessFlags@NpClothParticleData@physx@@UEAA?AV?$PxFlags@W4Enum@PxDataAccessFlag@physx@@E@2@XZ 000000018004d6e0 f i NpCloth.obj
 0001:0004c6f0       ?getDominanceGroup@?$NpActorTemplate@VPxCloth@physx@@@physx@@UEBAEXZ 000000018004d6f0 f i NpCloth.obj
 0001:0004c7a0       ?getExternalAcceleration@Cloth@Scb@physx@@QEBA?AVPxVec3@3@XZ 000000018004d7a0 f i NpCloth.obj
 0001:0004c840       ?getGlobalPose@Cloth@Scb@physx@@QEBA?AVPxTransform@3@XZ 000000018004d840 f i NpCloth.obj
 0001:0004c8f0       ?getLinearDragCoefficient@Cloth@Scb@physx@@QEBA?AVPxVec3@3@XZ 000000018004d8f0 f i NpCloth.obj
 0001:0004c990       ?getLinearInertiaScale@Cloth@Scb@physx@@QEBA?AVPxVec3@3@XZ 000000018004d990 f i NpCloth.obj
 0001:0004ca30       ?getMotionConstraintConfig@Cloth@Scb@physx@@QEBA?AUPxClothMotionConstraintConfig@3@XZ 000000018004da30 f i NpCloth.obj
 0001:0004cad0       ?getName@?$NpActorTemplate@VPxCloth@physx@@@physx@@UEBAPEBDXZ 000000018004dad0 f i NpCloth.obj
 0001:0004cb20       ?getNbCollisionCapsules@Cloth@Scb@physx@@QEBAIXZ 000000018004db20 f i NpCloth.obj
 0001:0004cba0       ?getNbCollisionPlanes@Cloth@Scb@physx@@QEBAIXZ 000000018004dba0 f i NpCloth.obj
 0001:0004cc20       ?getNbCollisionSpheres@Cloth@Scb@physx@@QEBAIXZ 000000018004dc20 f i NpCloth.obj
 0001:0004cca0       ?getOwnerClient@?$NpActorTemplate@VPxCloth@physx@@@physx@@UEBAEXZ 000000018004dca0 f i NpCloth.obj
 0001:0004cce0       ?getParticleData@Cloth@Scb@physx@@QEAAXAEAVNpClothParticleData@3@@Z 000000018004dce0 f i NpCloth.obj
 0001:0004cd70       ?getScene@?$NpActorTemplate@VPxCloth@physx@@@physx@@UEBAPEAVPxScene@2@XZ 000000018004dd70 f i NpCloth.obj
 0001:0004cd80       ?getSimulationFilterData@Cloth@Scb@physx@@QEBA?AUPxFilterData@3@XZ 000000018004dd80 f i NpCloth.obj
 0001:0004ce20       ?getSolverFrequency@Cloth@Scb@physx@@QEBAMXZ 000000018004de20 f i NpCloth.obj
 0001:0004cea0       ?getStiffnessFrequency@Cloth@Scb@physx@@QEBAMXZ 000000018004dea0 f i NpCloth.obj
 0001:0004cf20       ?getStretchConfig@Cloth@Scb@physx@@QEBA?AUPxClothStretchConfig@3@W4Enum@PxClothFabricPhaseType@3@@Z 000000018004df20 f i NpCloth.obj
 0001:0004cfd0       ?getTetherConfig@Cloth@Scb@physx@@QEBA?AUPxClothTetherConfig@3@XZ 000000018004dfd0 f i NpCloth.obj
 0001:0004d070       ?isFinite@PxQuat@physx@@QEBA_NXZ 000000018004e070 f i NpCloth.obj
 0001:0004d100       ?isKindOf@PxCloth@physx@@MEBA_NPEBD@Z 000000018004e100 f i NpCloth.obj
 0001:0004d190       ?isSane@PxQuat@physx@@QEBA_NXZ 000000018004e190 f i NpCloth.obj
 0001:0004d220       ?isSane@PxTransform@physx@@QEBA_NXZ 000000018004e220 f i NpCloth.obj
 0001:0004d2b0       ?isSleeping@Cloth@Scb@physx@@QEBA_NXZ 000000018004e2b0 f i NpCloth.obj
 0001:0004d330       ?putToSleep@Cloth@Scb@physx@@QEAAXXZ 000000018004e330 f i NpCloth.obj
 0001:0004d3b0       ?recreate@?$Array@IVNamedAllocator@shdfnd@physx@@@shdfnd@physx@@IEAAXI@Z 000000018004e3b0 f i NpCloth.obj
 0001:0004d490       ?recreate@?$Array@UPxClothFabricPhase@physx@@VNamedAllocator@shdfnd@2@@shdfnd@physx@@IEAAXI@Z 000000018004e490 f i NpCloth.obj
 0001:0004d570       ?recreate@?$Array@VPxVec3@physx@@VNamedAllocator@shdfnd@2@@shdfnd@physx@@IEAAXI@Z 000000018004e570 f i NpCloth.obj
 0001:0004d640       ?release@?$NpActorTemplate@VPxCloth@physx@@@physx@@UEAAXXZ 000000018004e640 f i NpCloth.obj
 0001:0004d650       ?resize@?$Array@IVNamedAllocator@shdfnd@physx@@@shdfnd@physx@@QEAAXIAEBI@Z 000000018004e650 f i NpCloth.obj
 0001:0004d6d0       ?resize@?$Array@UPxClothFabricPhase@physx@@VNamedAllocator@shdfnd@2@@shdfnd@physx@@QEAAXIAEBUPxClothFabricPhase@3@@Z 000000018004e6d0 f i NpCloth.obj
 0001:0004d750       ?resize@?$Array@VPxVec3@physx@@VNamedAllocator@shdfnd@2@@shdfnd@physx@@QEAAXIAEBVPxVec3@3@@Z 000000018004e750 f i NpCloth.obj
 0001:0004d7c0       ?resolveReferences@?$NpActorTemplate@VPxCloth@physx@@@physx@@UEAAXAEAVPxDeserializationContext@2@@Z 000000018004e7c0 f i NpCloth.obj
 0001:0004d7d0       ?setActorFlag@?$NpActorTemplate@VPxCloth@physx@@@physx@@UEAAXW4Enum@PxActorFlag@2@_N@Z 000000018004e7d0 f i NpCloth.obj
 0001:0004d8d0       ?setActorFlags@?$NpActorTemplate@VPxCloth@physx@@@physx@@UEAAXV?$PxFlags@W4Enum@PxActorFlag@physx@@G@2@@Z 000000018004e8d0 f i NpCloth.obj
 0001:0004d950       ?setAngularDragCoefficient@Cloth@Scb@physx@@QEAAXVPxVec3@3@@Z 000000018004e950 f i NpCloth.obj
 0001:0004da00       ?setAngularInertiaScale@Cloth@Scb@physx@@QEAAXVPxVec3@3@@Z 000000018004ea00 f i NpCloth.obj
 0001:0004dab0       ?setCentrifugalInertiaScale@Cloth@Scb@physx@@QEAAXVPxVec3@3@@Z 000000018004eab0 f i NpCloth.obj
 0001:0004db60       ?setClientBehaviorFlags@?$NpActorTemplate@VPxCloth@physx@@@physx@@UEAAXV?$PxFlags@W4Enum@PxActorClientBehaviorFlag@physx@@E@2@@Z 000000018004eb60 f i NpCloth.obj
 0001:0004dbe0       ?setCollisionSpheres@Cloth@Scb@physx@@QEAAXPEBUPxClothCollisionSphere@3@I@Z 000000018004ebe0 f i NpCloth.obj
 0001:0004dc60       ?setDampingCoefficient@Cloth@Scb@physx@@QEAAXVPxVec3@3@@Z 000000018004ec60 f i NpCloth.obj
 0001:0004dd10       ?setDominanceGroup@?$NpActorTemplate@VPxCloth@physx@@@physx@@UEAAXE@Z 000000018004ed10 f i NpCloth.obj
 0001:0004dd90       ?setExternalAcceleration@Cloth@Scb@physx@@QEAAXVPxVec3@3@@Z 000000018004ed90 f i NpCloth.obj
 0001:0004de40       ?setLinearDragCoefficient@Cloth@Scb@physx@@QEAAXVPxVec3@3@@Z 000000018004ee40 f i NpCloth.obj
 0001:0004def0       ?setLinearInertiaScale@Cloth@Scb@physx@@QEAAXVPxVec3@3@@Z 000000018004eef0 f i NpCloth.obj
 0001:0004dfa0       ?setName@?$NpActorTemplate@VPxCloth@physx@@@physx@@UEAAXPEBD@Z 000000018004efa0 f i NpCloth.obj
 0001:0004e080       ?setOwnerClient@?$NpActorTemplate@VPxCloth@physx@@@physx@@UEAAXE@Z 000000018004f080 f i NpCloth.obj
 0001:0004e120       ?setWakeCounter@Cloth@Scb@physx@@QEAAXM@Z 000000018004f120 f i NpCloth.obj
 0001:0004e1a0       ?wakeUp@Cloth@Scb@physx@@QEAAXXZ 000000018004f1a0 f i NpCloth.obj
 0001:0004e220       ?onRefCountZero@NpClothFabric@physx@@UEAAXXZ 000000018004f220 f   NpClothFabric.obj
 0001:0004e2d0       ?exportExtraData@NpClothFabric@physx@@UEAAXAEAVPxSerializationContext@2@@Z 000000018004f2d0 f   NpClothFabric.obj
 0001:0004e2e0       ?importExtraData@NpClothFabric@physx@@QEAAXAEAVPxDeserializationContext@2@@Z 000000018004f2e0 f   NpClothFabric.obj
 0001:0004e2f0       ?createObject@NpClothFabric@physx@@SAPEAV12@AEAPEAEAEAVPxDeserializationContext@2@@Z 000000018004f2f0 f   NpClothFabric.obj
 0001:0004e360       ??0NpClothFabric@physx@@QEAA@XZ 000000018004f360 f   NpClothFabric.obj
 0001:0004e3d0       ?load@NpClothFabric@physx@@QEAA_NAEAVPxInputStream@2@@Z 000000018004f3d0 f   NpClothFabric.obj
 0001:0004e3e0       ?load@NpClothFabric@physx@@QEAA_NAEBVPxClothFabricDesc@2@@Z 000000018004f3e0 f   NpClothFabric.obj
 0001:0004e3f0       ?release@NpClothFabric@physx@@UEAAXXZ 000000018004f3f0 f   NpClothFabric.obj
 0001:0004e450       ?getNbParticles@NpClothFabric@physx@@UEBAIXZ 000000018004f450 f   NpClothFabric.obj
 0001:0004e460       ?getNbPhases@NpClothFabric@physx@@UEBAIXZ 000000018004f460 f   NpClothFabric.obj
 0001:0004e470       ?getNbSets@NpClothFabric@physx@@UEBAIXZ 000000018004f470 f   NpClothFabric.obj
 0001:0004e480       ?getNbParticleIndices@NpClothFabric@physx@@UEBAIXZ 000000018004f480 f   NpClothFabric.obj
 0001:0004e490       ?getNbRestvalues@NpClothFabric@physx@@UEBAIXZ 000000018004f490 f   NpClothFabric.obj
 0001:0004e4a0       ?getNbTethers@NpClothFabric@physx@@UEBAIXZ 000000018004f4a0 f   NpClothFabric.obj
 0001:0004e4b0       ?getPhases@NpClothFabric@physx@@UEBAIPEAUPxClothFabricPhase@2@I@Z 000000018004f4b0 f   NpClothFabric.obj
 0001:0004e4c0       ?getSets@NpClothFabric@physx@@UEBAIPEAII@Z 000000018004f4c0 f   NpClothFabric.obj
 0001:0004e4d0       ?getParticleIndices@NpClothFabric@physx@@UEBAIPEAII@Z 000000018004f4d0 f   NpClothFabric.obj
 0001:0004e4e0       ?getRestvalues@NpClothFabric@physx@@UEBAIPEAMI@Z 000000018004f4e0 f   NpClothFabric.obj
 0001:0004e4f0       ?getTetherAnchors@NpClothFabric@physx@@UEBAIPEAII@Z 000000018004f4f0 f   NpClothFabric.obj
 0001:0004e500       ?getTetherLengths@NpClothFabric@physx@@UEBAIPEAMI@Z 000000018004f500 f   NpClothFabric.obj
 0001:0004e510       ?getPhaseType@NpClothFabric@physx@@UEBA?AW4Enum@PxClothFabricPhaseType@2@I@Z 000000018004f510 f   NpClothFabric.obj
 0001:0004e520       ?scaleRestlengths@NpClothFabric@physx@@UEAAXM@Z 000000018004f520 f   NpClothFabric.obj
 0001:0004e530       ?getReferenceCount@NpClothFabric@physx@@UEBAIXZ 000000018004f530 f   NpClothFabric.obj
 0001:0004e540       ??1NpClothFabric@physx@@UEAA@XZ 000000018004f540 f   NpClothFabric.obj
 0001:0004e660       ??0NpClothFabric@physx@@QEAA@V?$PxFlags@W4Enum@PxBaseFlag@physx@@G@1@@Z 000000018004f660 f i NpClothFabric.obj
 0001:0004e6f0       ??1PxClothFabric@physx@@MEAA@XZ 000000018004f6f0 f i NpClothFabric.obj
 0001:0004e700       ??1RefCountable@Cm@physx@@UEAA@XZ 000000018004f700 f i NpClothFabric.obj
 0001:0004e710       ??_ENpClothFabric@physx@@WBA@EAAPEAXI@Z 000000018004f710 f i NpClothFabric.obj
 0001:0004e720       ??_ENpClothFabric@physx@@UEAAPEAXI@Z 000000018004f720 f i NpClothFabric.obj
 0001:0004e720       ??_GNpClothFabric@physx@@UEAAPEAXI@Z 000000018004f720 f i NpClothFabric.obj
 0001:0004e7d0       ??_EPxClothFabric@physx@@MEAAPEAXI@Z 000000018004f7d0 f i NpClothFabric.obj
 0001:0004e7d0       ??_GPxClothFabric@physx@@MEAAPEAXI@Z 000000018004f7d0 f i NpClothFabric.obj
 0001:0004e810       ??_GRefCountable@Cm@physx@@UEAAPEAXI@Z 000000018004f810 f i NpClothFabric.obj
 0001:0004e810       ??_ERefCountable@Cm@physx@@UEAAPEAXI@Z 000000018004f810 f i NpClothFabric.obj
 0001:0004e850       ?getConcreteTypeName@PxClothFabric@physx@@UEBAPEBDXZ 000000018004f850 f i NpClothFabric.obj
 0001:0004e860       ?isKindOf@PxClothFabric@physx@@MEBA_NPEBD@Z 000000018004f860 f i NpClothFabric.obj
 0001:0004e8c0       ?onRefCountZero@RefCountable@Cm@physx@@UEAAXXZ 000000018004f8c0 f i NpClothFabric.obj
 0001:0004e8e0       ?requires@NpClothFabric@physx@@UEAAXAEAVPxProcessPxBaseCallback@2@@Z 000000018004f8e0 f i NpClothFabric.obj
 0001:0004e8f0       ?unlock@NpClothParticleData@physx@@UEAAXXZ 000000018004f8f0 f   NpClothParticleData.obj
 0001:0004e940       ?tryLock@NpClothParticleData@physx@@QEAA_NV?$PxFlags@W4Enum@PxDataAccessFlag@physx@@E@2@@Z 000000018004f940 f   NpClothParticleData.obj
 0001:0004e980       ?exportExtraData@NpActor@physx@@QEAAXAEAVPxSerializationContext@2@@Z 000000018004f980 f   NpActor.obj
 0001:0004eb60       ?importExtraData@NpActor@physx@@QEAAXAEAVPxDeserializationContext@2@@Z 000000018004fb60 f   NpActor.obj
 0001:0004ec50       ?resolveReferences@NpActor@physx@@QEAAXAEAVPxDeserializationContext@2@@Z 000000018004fc50 f   NpActor.obj
 0001:0004ece0       ??0NpActor@physx@@QEAA@PEBD@Z 000000018004fce0 f   NpActor.obj
 0001:0004ed00       ?releaseConstraints@NpActor@physx@@QEAAXAEAVPxRigidActor@2@@Z 000000018004fd00 f   NpActor.obj
 0001:0004ee10       ?release@NpActor@physx@@QEAAXAEAVPxActor@2@@Z 000000018004fe10 f   NpActor.obj
 0001:0004ee30       ?getNpAggregate@NpActor@physx@@QEBAPEAVNpAggregate@2@AEAI@Z 000000018004fe30 f   NpActor.obj
 0001:0004ee80       ?setAggregate@NpActor@physx@@QEAAXPEAVNpAggregate@2@AEAVPxActor@2@@Z 000000018004fe80 f   NpActor.obj
 0001:0004ef00       ?getAggregate@NpActor@physx@@QEBAPEAVPxAggregate@2@XZ 000000018004ff00 f   NpActor.obj
 0001:0004ef50       ?removeConstraintsFromScene@NpActor@physx@@QEAAXXZ 000000018004ff50 f   NpActor.obj
 0001:0004f030       ?findConnector@NpActor@physx@@QEBAIW4Enum@NpConnectorType@2@PEAVPxBase@2@@Z 0000000180050030 f   NpActor.obj
 0001:0004f080       ?addConnector@NpActor@physx@@QEAAXW4Enum@NpConnectorType@2@PEAVPxBase@2@PEBD@Z 0000000180050080 f   NpActor.obj
 0001:0004f250       ?removeConnector@NpActor@physx@@QEAAXAEAVPxActor@2@W4Enum@NpConnectorType@2@PEAVPxBase@2@PEBD@Z 0000000180050250 f   NpActor.obj
 0001:0004f340       ?getNbConnectors@NpActor@physx@@QEBAIW4Enum@NpConnectorType@2@@Z 0000000180050340 f   NpActor.obj
 0001:0004f380       ?getShapeManager@NpActor@physx@@SAAEAVNpShapeManager@2@AEAVPxRigidActor@2@@Z 0000000180050380 f   NpActor.obj
 0001:0004f3b0       ?getAPIScene@NpActor@physx@@SAPEAVNpScene@2@AEBVPxActor@2@@Z 00000001800503b0 f   NpActor.obj
 0001:0004f3f0       ?getOwnerScene@NpActor@physx@@SAPEAVNpScene@2@AEBVPxActor@2@@Z 00000001800503f0 f   NpActor.obj
 0001:0004f420       ?onActorRelease@NpActor@physx@@SAXPEAVPxActor@2@@Z 0000000180050420 f   NpActor.obj
 0001:0004f440       ??1NpActor@physx@@IEAA@XZ  0000000180050440 f   NpActor.obj
 0001:0004f450       ?addConstraintsToSceneInternal@NpActor@physx@@AEAAXXZ 0000000180050450 f   NpActor.obj
 0001:0004f550       ?removeConnector@NpActor@physx@@AEAAXAEAVPxActor@2@I@Z 0000000180050550 f   NpActor.obj
 0001:0004f600       ??0Offsets@NpActor@physx@@QEAA@XZ 0000000180050600 f   NpActor.obj
 0001:0004f9e0       ??$exportArray@VNpConnector@physx@@V?$InlineAllocator@$0EA@VNamedAllocator@shdfnd@physx@@@shdfnd@2@@Cm@physx@@YAXAEBV?$Array@VNpConnector@physx@@V?$InlineAllocator@$0EA@VNamedAllocator@shdfnd@physx@@@shdfnd@2@@shdfnd@1@AEAVPxSerializationContext@1@@Z 00000001800509e0 f i NpActor.obj
 0001:0004fa20       ??$exportInlineArray@VNpConnector@physx@@$03VNamedAllocator@shdfnd@2@@Cm@physx@@YAXAEBV?$InlineArray@VNpConnector@physx@@$03VNamedAllocator@shdfnd@2@@shdfnd@1@AEAVPxSerializationContext@1@@Z 0000000180050a20 f i NpActor.obj
 0001:0004fa70       ??$importArray@VNpConnector@physx@@V?$InlineAllocator@$0EA@VNamedAllocator@shdfnd@physx@@@shdfnd@2@@Cm@physx@@YAXAEAV?$Array@VNpConnector@physx@@V?$InlineAllocator@$0EA@VNamedAllocator@shdfnd@physx@@@shdfnd@2@@shdfnd@1@AEAVPxDeserializationContext@1@@Z 0000000180050a70 f i NpActor.obj
 0001:0004fac0       ??$importInlineArray@VNpConnector@physx@@$03VNamedAllocator@shdfnd@2@@Cm@physx@@YAXAEAV?$InlineArray@VNpConnector@physx@@$03VNamedAllocator@shdfnd@2@@shdfnd@1@AEAVPxDeserializationContext@1@@Z 0000000180050ac0 f i NpActor.obj
 0001:0004fb10       ?growAndPushBack@?$Array@PEAVPxConstraint@physx@@VNamedAllocator@shdfnd@2@@shdfnd@physx@@IEAAAEAPEAVPxConstraint@3@AEBQEAV43@@Z 0000000180050b10 f i NpActor.obj
 0001:0004fc30       ?growAndPushBack@?$Array@VNpConnector@physx@@V?$InlineAllocator@$0EA@VNamedAllocator@shdfnd@physx@@@shdfnd@2@@shdfnd@physx@@IEAAAEAVNpConnector@3@AEBV43@@Z 0000000180050c30 f i NpActor.obj
 0001:0004fdb0       ?recreate@?$Array@VNpConnector@physx@@V?$InlineAllocator@$0EA@VNamedAllocator@shdfnd@physx@@@shdfnd@2@@shdfnd@physx@@IEAAXI@Z 0000000180050db0 f i NpActor.obj
 0001:0004fee0       ?resizeUninitialized@?$Array@VNpConnector@physx@@V?$InlineAllocator@$0EA@VNamedAllocator@shdfnd@physx@@@shdfnd@2@@shdfnd@physx@@QEAAXI@Z 0000000180050ee0 f i NpActor.obj
 0001:0004ff30       ?exportExtraData@NpAggregate@physx@@UEAAXAEAVPxSerializationContext@2@@Z 0000000180050f30 f   NpAggregate.obj
 0001:0004ff80       ?importExtraData@NpAggregate@physx@@QEAAXAEAVPxDeserializationContext@2@@Z 0000000180050f80 f   NpAggregate.obj
 0001:0004ffb0       ?resolveReferences@NpAggregate@physx@@QEAAXAEAVPxDeserializationContext@2@@Z 0000000180050fb0 f   NpAggregate.obj
 0001:000500c0       ?requires@NpAggregate@physx@@UEAAXAEAVPxProcessPxBaseCallback@2@@Z 00000001800510c0 f   NpAggregate.obj
 0001:00050140       ?createObject@NpAggregate@physx@@SAPEAV12@AEAPEAEAEAVPxDeserializationContext@2@@Z 0000000180051140 f   NpAggregate.obj
 0001:000501c0       ??0NpAggregate@physx@@QEAA@I_N@Z 00000001800511c0 f   NpAggregate.obj
 0001:00050230       ??1NpAggregate@physx@@UEAA@XZ 0000000180051230 f   NpAggregate.obj
 0001:00050280       ?release@NpAggregate@physx@@UEAAXXZ 0000000180051280 f   NpAggregate.obj
 0001:00050430       ?addActor@NpAggregate@physx@@UEAA_NAEAVPxActor@2@@Z 0000000180051430 f   NpAggregate.obj
 0001:00050580       ?removeActor@NpAggregate@physx@@UEAA_NAEAVPxActor@2@@Z 0000000180051580 f   NpAggregate.obj
 0001:00050630       ?addArticulation@NpAggregate@physx@@UEAA_NAEAVPxArticulation@2@@Z 0000000180051630 f   NpAggregate.obj
 0001:00050820       ?removeArticulation@NpAggregate@physx@@UEAA_NAEAVPxArticulation@2@@Z 0000000180051820 f   NpAggregate.obj
 0001:00050890       ?getNbActors@NpAggregate@physx@@UEBAIXZ 0000000180051890 f   NpAggregate.obj
 0001:000508e0       ?getMaxNbActors@NpAggregate@physx@@UEBAIXZ 00000001800518e0 f   NpAggregate.obj
 0001:00050930       ?getActors@NpAggregate@physx@@UEBAIPEAPEAVPxActor@2@II@Z 0000000180051930 f   NpAggregate.obj
 0001:000509e0       ?getScene@NpAggregate@physx@@UEAAPEAVPxScene@2@XZ 00000001800519e0 f   NpAggregate.obj
 0001:00050a20       ?getSelfCollision@NpAggregate@physx@@UEBA_NXZ 0000000180051a20 f   NpAggregate.obj
 0001:00050a70       ?getAPIScene@NpAggregate@physx@@QEBAPEAVNpScene@2@XZ 0000000180051a70 f   NpAggregate.obj
 0001:00050ab0       ?getOwnerScene@NpAggregate@physx@@QEBAPEAVNpScene@2@XZ 0000000180051ab0 f   NpAggregate.obj
 0001:00050ad0       ?addActorInternal@NpAggregate@physx@@QEAAXAEAVPxActor@2@AEAVNpScene@2@@Z 0000000180051ad0 f   NpAggregate.obj
 0001:00050bc0       ?removeAndReinsert@NpAggregate@physx@@QEAAXAEAVPxActor@2@_N@Z 0000000180051bc0 f   NpAggregate.obj
 0001:00050c30       ?removeActorAndReinsert@NpAggregate@physx@@QEAA_NAEAVPxActor@2@_N@Z 0000000180051c30 f   NpAggregate.obj
 0001:00050d10       ?removeArticulationAndReinsert@NpAggregate@physx@@QEAA_NAEAVPxArticulation@2@_N@Z 0000000180051d10 f   NpAggregate.obj
 0001:00051210       ??$pointerOffset@PEAVNpActor@physx@@@shdfnd@physx@@YAPEAVNpActor@1@PEAX_J@Z 0000000180052210 f i NpAggregate.obj
 0001:00051220       ??1PxAggregate@physx@@MEAA@XZ 0000000180052220 f i NpAggregate.obj
 0001:00051230       ??_GNpAggregate@physx@@UEAAPEAXI@Z 0000000180052230 f i NpAggregate.obj
 0001:00051230       ??_ENpAggregate@physx@@UEAAPEAXI@Z 0000000180052230 f i NpAggregate.obj
 0001:000512e0       ??_EPxAggregate@physx@@MEAAPEAXI@Z 00000001800522e0 f i NpAggregate.obj
 0001:000512e0       ??_GPxAggregate@physx@@MEAAPEAXI@Z 00000001800522e0 f i NpAggregate.obj
 0001:00051320       ?getConcreteTypeName@PxAggregate@physx@@UEBAPEBDXZ 0000000180052320 f i NpAggregate.obj
 0001:00051330       ?isKindOf@PxAggregate@physx@@MEBA_NPEBD@Z 0000000180052330 f i NpAggregate.obj
 0001:00051390       ??1NpArticulation@physx@@UEAA@XZ 0000000180052390 f   NpArticulation.obj
 0001:00051410       ?exportExtraData@NpArticulation@physx@@UEAAXAEAVPxSerializationContext@2@@Z 0000000180052410 f   NpArticulation.obj
 0001:00051490       ?importExtraData@NpArticulation@physx@@QEAAXAEAVPxDeserializationContext@2@@Z 0000000180052490 f   NpArticulation.obj
 0001:00051510       ?resolveReferences@NpArticulation@physx@@QEAAXAEAVPxDeserializationContext@2@@Z 0000000180052510 f   NpArticulation.obj
 0001:000515b0       ?requires@NpArticulation@physx@@UEAAXAEAVPxProcessPxBaseCallback@2@@Z 00000001800525b0 f   NpArticulation.obj
 0001:00051620       ?createObject@NpArticulation@physx@@SAPEAV12@AEAPEAEAEAVPxDeserializationContext@2@@Z 0000000180052620 f   NpArticulation.obj
 0001:00051690       ?release@NpArticulation@physx@@UEAAXXZ 0000000180052690 f   NpArticulation.obj
 0001:00051810       ?getScene@NpArticulation@physx@@UEBAPEAVPxScene@2@XZ 0000000180052810 f   NpArticulation.obj
 0001:00051850       ?getInternalDriveIterations@NpArticulation@physx@@UEBAIXZ 0000000180052850 f   NpArticulation.obj
 0001:000518c0       ?setInternalDriveIterations@NpArticulation@physx@@UEAAXI@Z 00000001800528c0 f   NpArticulation.obj
 0001:00051920       ?getExternalDriveIterations@NpArticulation@physx@@UEBAIXZ 0000000180052920 f   NpArticulation.obj
 0001:000519a0       ?setExternalDriveIterations@NpArticulation@physx@@UEAAXI@Z 00000001800529a0 f   NpArticulation.obj
 0001:00051a00       ?getMaxProjectionIterations@NpArticulation@physx@@UEBAIXZ 0000000180052a00 f   NpArticulation.obj
 0001:00051a80       ?setMaxProjectionIterations@NpArticulation@physx@@UEAAXI@Z 0000000180052a80 f   NpArticulation.obj
 0001:00051ae0       ?getSeparationTolerance@NpArticulation@physx@@UEBAMXZ 0000000180052ae0 f   NpArticulation.obj
 0001:00051b50       ?setSeparationTolerance@NpArticulation@physx@@UEAAXM@Z 0000000180052b50 f   NpArticulation.obj
 0001:00051bb0       ?setSleepThreshold@NpArticulation@physx@@UEAAXM@Z 0000000180052bb0 f   NpArticulation.obj
 0001:00051c10       ?getSleepThreshold@NpArticulation@physx@@UEBAMXZ 0000000180052c10 f   NpArticulation.obj
 0001:00051c80       ?setStabilizationThreshold@NpArticulation@physx@@UEAAXM@Z 0000000180052c80 f   NpArticulation.obj
 0001:00051ce0       ?getStabilizationThreshold@NpArticulation@physx@@UEBAMXZ 0000000180052ce0 f   NpArticulation.obj
 0001:00051d50       ?setWakeCounter@NpArticulation@physx@@UEAAXM@Z 0000000180052d50 f   NpArticulation.obj
 0001:00051e00       ?getWakeCounter@NpArticulation@physx@@UEBAMXZ 0000000180052e00 f   NpArticulation.obj
 0001:00051e60       ?setSolverIterationCounts@NpArticulation@physx@@UEAAXII@Z 0000000180052e60 f   NpArticulation.obj
 0001:00051f70       ?getSolverIterationCounts@NpArticulation@physx@@UEBAXAEAI0@Z 0000000180052f70 f   NpArticulation.obj
 0001:00052000       ?isSleeping@NpArticulation@physx@@UEBA_NXZ 0000000180053000 f   NpArticulation.obj
 0001:000520f0       ?wakeUp@NpArticulation@physx@@UEAAXXZ 00000001800530f0 f   NpArticulation.obj
 0001:000522e0       ?putToSleep@NpArticulation@physx@@UEAAXXZ 00000001800532e0 f   NpArticulation.obj
 0001:00052460       ?createLink@NpArticulation@physx@@UEAAPEAVPxArticulationLink@2@PEAV32@AEBVPxTransform@2@@Z 0000000180053460 f   NpArticulation.obj
 0001:00052690       ?getNbLinks@NpArticulation@physx@@UEBAIXZ 0000000180053690 f   NpArticulation.obj
 0001:000526e0       ?getLinks@NpArticulation@physx@@UEBAIPEAPEAVPxArticulationLink@2@I@Z 00000001800536e0 f   NpArticulation.obj
 0001:00052790       ?getWorldBounds@NpArticulation@physx@@UEBA?AVPxBounds3@2@M@Z 0000000180053790 f   NpArticulation.obj
 0001:000529a0       ?getAggregate@NpArticulation@physx@@UEBAPEAVPxAggregate@2@XZ 00000001800539a0 f   NpArticulation.obj
 0001:000529f0       ?setName@NpArticulation@physx@@UEAAXPEBD@Z 00000001800539f0 f   NpArticulation.obj
 0001:00052a50       ?getName@NpArticulation@physx@@UEBAPEBDXZ 0000000180053a50 f   NpArticulation.obj
 0001:00052aa0       ?createDriveCache@NpArticulation@physx@@UEBAPEAVPxArticulationDriveCache@2@MI@Z 0000000180053aa0 f   NpArticulation.obj
 0001:00052bc0       ?updateDriveCache@NpArticulation@physx@@UEBAXAEAVPxArticulationDriveCache@2@MI@Z 0000000180053bc0 f   NpArticulation.obj
 0001:00052d60       ?releaseDriveCache@NpArticulation@physx@@UEBAXAEAVPxArticulationDriveCache@2@@Z 0000000180053d60 f   NpArticulation.obj
 0001:00052e70       ?applyImpulse@NpArticulation@physx@@UEAAXPEAVPxArticulationLink@2@AEBVPxArticulationDriveCache@2@AEBVPxVec3@2@2@Z 0000000180053e70 f   NpArticulation.obj
 0001:000531e0       ?computeImpulseResponse@NpArticulation@physx@@UEBAXPEAVPxArticulationLink@2@AEAVPxVec3@2@1AEBVPxArticulationDriveCache@2@AEBV42@3@Z 00000001800541e0 f   NpArticulation.obj
 0001:00053490       ??0NpArticulation@physx@@QEAA@XZ 0000000180054490 f   NpArticulation.obj
 0001:00053540       ?getRoot@NpArticulation@physx@@QEAAPEAVNpArticulationLink@2@XZ 0000000180054540 f   NpArticulation.obj
 0001:00053560       ?getAPIScene@NpArticulation@physx@@QEBAPEAVNpScene@2@XZ 0000000180054560 f   NpArticulation.obj
 0001:000535a0       ?getOwnerScene@NpArticulation@physx@@QEBAPEAVNpScene@2@XZ 00000001800545a0 f   NpArticulation.obj
 0001:000535c0       ?wakeUpInternal@NpArticulation@physx@@QEAAX_N0@Z 00000001800545c0 f   NpArticulation.obj
 0001:00053790       ?visualize@NpArticulation@physx@@QEAAXAEAVRenderOutput@Cm@2@PEAVNpScene@2@@Z 0000000180054790 f   NpArticulation.obj
 0001:00053800       ?NpArticulationGetRootFromScb@physx@@YAPEAVBody@Scb@1@AEAVArticulation@31@@Z 0000000180054800 f   NpArticulation.obj
 0001:00054150       ??$exportArray@PEAVNpArticulationLink@physx@@V?$InlineAllocator@$0CA@VNamedAllocator@shdfnd@physx@@@shdfnd@2@@Cm@physx@@YAXAEBV?$Array@PEAVNpArticulationLink@physx@@V?$InlineAllocator@$0CA@VNamedAllocator@shdfnd@physx@@@shdfnd@2@@shdfnd@1@AEAVPxSerializationContext@1@@Z 0000000180055150 f i NpArticulation.obj
 0001:00054190       ??$exportInlineArray@PEAVNpArticulationLink@physx@@$03VNamedAllocator@shdfnd@2@@Cm@physx@@YAXAEBV?$InlineArray@PEAVNpArticulationLink@physx@@$03VNamedAllocator@shdfnd@2@@shdfnd@1@AEAVPxSerializationContext@1@@Z 0000000180055190 f i NpArticulation.obj
 0001:000541e0       ??$importArray@PEAVNpArticulationLink@physx@@V?$InlineAllocator@$0CA@VNamedAllocator@shdfnd@physx@@@shdfnd@2@@Cm@physx@@YAXAEAV?$Array@PEAVNpArticulationLink@physx@@V?$InlineAllocator@$0CA@VNamedAllocator@shdfnd@physx@@@shdfnd@2@@shdfnd@1@AEAVPxDeserializationContext@1@@Z 00000001800551e0 f i NpArticulation.obj
 0001:00054220       ??$importInlineArray@PEAVNpArticulationLink@physx@@$03VNamedAllocator@shdfnd@2@@Cm@physx@@YAXAEAV?$InlineArray@PEAVNpArticulationLink@physx@@$03VNamedAllocator@shdfnd@2@@shdfnd@1@AEAVPxDeserializationContext@1@@Z 0000000180055220 f i NpArticulation.obj
 0001:00054270       ??0?$InlineArray@PEAVNpArticulationLink@physx@@$03VNamedAllocator@shdfnd@2@@shdfnd@physx@@QEAA@AEBVNamedAllocator@12@@Z 0000000180055270 f i NpArticulation.obj
 0001:00054340       ??0NpArticulation@physx@@QEAA@V?$PxFlags@W4Enum@PxBaseFlag@physx@@G@1@@Z 0000000180055340 f i NpArticulation.obj
 0001:000543d0       ??1PxArticulation@physx@@MEAA@XZ 00000001800553d0 f i NpArticulation.obj
 0001:000543e0       ??_GNpArticulation@physx@@UEAAPEAXI@Z 00000001800553e0 f i NpArticulation.obj
 0001:000543e0       ??_ENpArticulation@physx@@UEAAPEAXI@Z 00000001800553e0 f i NpArticulation.obj
 0001:00054450       ??_EPxArticulation@physx@@MEAAPEAXI@Z 0000000180055450 f i NpArticulation.obj
 0001:00054450       ??_GPxArticulation@physx@@MEAAPEAXI@Z 0000000180055450 f i NpArticulation.obj
 0001:00054490       ?getConcreteTypeName@PxArticulation@physx@@UEBAPEBDXZ 0000000180055490 f i NpArticulation.obj
 0001:000544a0       ?isFinite@PxVec3@physx@@QEBA_NXZ 00000001800554a0 f i NpArticulation.obj
 0001:00054510       ?isKindOf@PxArticulation@physx@@MEBA_NPEBD@Z 0000000180055510 f i NpArticulation.obj
 0001:00054570       ?setExternalDriveIterations@Articulation@Scb@physx@@QEAAXI@Z 0000000180055570 f i NpArticulation.obj
 0001:00054650       ?setFreezeThreshold@Articulation@Scb@physx@@QEAAXM@Z 0000000180055650 f i NpArticulation.obj
 0001:00054740       ?setInternalDriveIterations@Articulation@Scb@physx@@QEAAXI@Z 0000000180055740 f i NpArticulation.obj
 0001:00054820       ?setMaxProjectionIterations@Articulation@Scb@physx@@QEAAXI@Z 0000000180055820 f i NpArticulation.obj
 0001:00054900       ?setSeparationTolerance@Articulation@Scb@physx@@QEAAXM@Z 0000000180055900 f i NpArticulation.obj
 0001:000549f0       ?setSleepThreshold@Articulation@Scb@physx@@QEAAXM@Z 00000001800559f0 f i NpArticulation.obj
 0001:00054ae0       ?setSolverIterationCounts@Articulation@Scb@physx@@QEAAXG@Z 0000000180055ae0 f i NpArticulation.obj
 0001:00054bc0       ?setWakeCounter@Articulation@Scb@physx@@QEAAXM@Z 0000000180055bc0 f i NpArticulation.obj
 0001:00054cd0       ?setWakeCounter@Body@Scb@physx@@QEAAXM@Z 0000000180055cd0 f i NpArticulation.obj
 0001:00054dd0       ?wakeUpInternal@Body@Scb@physx@@QEAAXM@Z 0000000180055dd0 f i NpArticulation.obj
 0001:00054e70       ?NpArticulationJointGetBodiesFromScb@physx@@YAXAEAVArticulationJoint@Scb@1@AEAPEAVBody@31@1@Z 0000000180055e70 f   NpArticulationJoint.obj
 0001:00054ea0       ?resolveReferences@NpArticulationJoint@physx@@UEAAXAEAVPxDeserializationContext@2@@Z 0000000180055ea0 f   NpArticulationJoint.obj
 0001:00054f20       ?createObject@NpArticulationJoint@physx@@SAPEAV12@AEAPEAEAEAVPxDeserializationContext@2@@Z 0000000180055f20 f   NpArticulationJoint.obj
 0001:00054f80       ??0NpArticulationJoint@physx@@QEAA@AEAVNpArticulationLink@1@AEBVPxTransform@1@01@Z 0000000180055f80 f   NpArticulationJoint.obj
 0001:00055010       ??1NpArticulationJoint@physx@@UEAA@XZ 0000000180056010 f   NpArticulationJoint.obj
 0001:00055050       ?getParentPose@NpArticulationJoint@physx@@UEBA?AVPxTransform@2@XZ 0000000180056050 f   NpArticulationJoint.obj
 0001:00055270       ?setParentPose@NpArticulationJoint@physx@@UEAAXAEBVPxTransform@2@@Z 0000000180056270 f   NpArticulationJoint.obj
 0001:000555f0       ?getChildPose@NpArticulationJoint@physx@@UEBA?AVPxTransform@2@XZ 00000001800565f0 f   NpArticulationJoint.obj
 0001:00055820       ?setChildPose@NpArticulationJoint@physx@@UEAAXAEBVPxTransform@2@@Z 0000000180056820 f   NpArticulationJoint.obj
 0001:00055ba0       ?setTargetOrientation@NpArticulationJoint@physx@@UEAAXAEBVPxQuat@2@@Z 0000000180056ba0 f   NpArticulationJoint.obj
 0001:00055dc0       ?getTargetOrientation@NpArticulationJoint@physx@@UEBA?AVPxQuat@2@XZ 0000000180056dc0 f   NpArticulationJoint.obj
 0001:00055e40       ?setTargetVelocity@NpArticulationJoint@physx@@UEAAXAEBVPxVec3@2@@Z 0000000180056e40 f   NpArticulationJoint.obj
 0001:00055f50       ?getTargetVelocity@NpArticulationJoint@physx@@UEBA?AVPxVec3@2@XZ 0000000180056f50 f   NpArticulationJoint.obj
 0001:00055fd0       ?setDriveType@NpArticulationJoint@physx@@UEAAXW4Enum@PxArticulationJointDriveType@2@@Z 0000000180056fd0 f   NpArticulationJoint.obj
 0001:00056030       ?getDriveType@NpArticulationJoint@physx@@UEBA?AW4Enum@PxArticulationJointDriveType@2@XZ 0000000180057030 f   NpArticulationJoint.obj
 0001:000560a0       ?setStiffness@NpArticulationJoint@physx@@UEAAXM@Z 00000001800570a0 f   NpArticulationJoint.obj
 0001:00056190       ?getStiffness@NpArticulationJoint@physx@@UEBAMXZ 0000000180057190 f   NpArticulationJoint.obj
 0001:00056200       ?setDamping@NpArticulationJoint@physx@@UEAAXM@Z 0000000180057200 f   NpArticulationJoint.obj
 0001:000562f0       ?getDamping@NpArticulationJoint@physx@@UEBAMXZ 00000001800572f0 f   NpArticulationJoint.obj
 0001:00056360       ?setInternalCompliance@NpArticulationJoint@physx@@UEAAXM@Z 0000000180057360 f   NpArticulationJoint.obj
 0001:00056450       ?getInternalCompliance@NpArticulationJoint@physx@@UEBAMXZ 0000000180057450 f   NpArticulationJoint.obj
 0001:000564c0       ?setExternalCompliance@NpArticulationJoint@physx@@UEAAXM@Z 00000001800574c0 f   NpArticulationJoint.obj
 0001:000565b0       ?getExternalCompliance@NpArticulationJoint@physx@@UEBAMXZ 00000001800575b0 f   NpArticulationJoint.obj
 0001:00056620       ?setSwingLimit@NpArticulationJoint@physx@@UEAAXMM@Z 0000000180057620 f   NpArticulationJoint.obj
 0001:00056780       ?getSwingLimit@NpArticulationJoint@physx@@UEBAXAEAM0@Z 0000000180057780 f   NpArticulationJoint.obj
 0001:00056820       ?setTangentialStiffness@NpArticulationJoint@physx@@UEAAXM@Z 0000000180057820 f   NpArticulationJoint.obj
 0001:00056910       ?getTangentialStiffness@NpArticulationJoint@physx@@UEBAMXZ 0000000180057910 f   NpArticulationJoint.obj
 0001:00056980       ?setTangentialDamping@NpArticulationJoint@physx@@UEAAXM@Z 0000000180057980 f   NpArticulationJoint.obj
 0001:00056a70       ?getTangentialDamping@NpArticulationJoint@physx@@UEBAMXZ 0000000180057a70 f   NpArticulationJoint.obj
 0001:00056ae0       ?setSwingLimitEnabled@NpArticulationJoint@physx@@UEAAX_N@Z 0000000180057ae0 f   NpArticulationJoint.obj
 0001:00056b40       ?getSwingLimitEnabled@NpArticulationJoint@physx@@UEBA_NXZ 0000000180057b40 f   NpArticulationJoint.obj
 0001:00056bc0       ?setSwingLimitContactDistance@NpArticulationJoint@physx@@UEAAXM@Z 0000000180057bc0 f   NpArticulationJoint.obj
 0001:00056cb0       ?getSwingLimitContactDistance@NpArticulationJoint@physx@@UEBAMXZ 0000000180057cb0 f   NpArticulationJoint.obj
 0001:00056d20       ?setTwistLimit@NpArticulationJoint@physx@@UEAAXMM@Z 0000000180057d20 f   NpArticulationJoint.obj
 0001:00056e50       ?getTwistLimit@NpArticulationJoint@physx@@UEBAXAEAM0@Z 0000000180057e50 f   NpArticulationJoint.obj
 0001:00056ef0       ?setTwistLimitEnabled@NpArticulationJoint@physx@@UEAAX_N@Z 0000000180057ef0 f   NpArticulationJoint.obj
 0001:00056f50       ?getTwistLimitEnabled@NpArticulationJoint@physx@@UEBA_NXZ 0000000180057f50 f   NpArticulationJoint.obj
 0001:00056fd0       ?setTwistLimitContactDistance@NpArticulationJoint@physx@@UEAAXM@Z 0000000180057fd0 f   NpArticulationJoint.obj
 0001:000570c0       ?getTwistLimitContactDistance@NpArticulationJoint@physx@@UEBAMXZ 00000001800580c0 f   NpArticulationJoint.obj
 0001:00057130       ?release@NpArticulationJoint@physx@@UEAAXXZ 0000000180058130 f   NpArticulationJoint.obj
 0001:000571a0       ?getOwnerScene@NpArticulationJoint@physx@@AEBAPEAVNpScene@2@XZ 00000001800581a0 f   NpArticulationJoint.obj
 0001:00057a80       ??1PxArticulationJoint@physx@@MEAA@XZ 0000000180058a80 f i NpArticulationJoint.obj
 0001:00057a90       ??_GNpArticulationJoint@physx@@UEAAPEAXI@Z 0000000180058a90 f i NpArticulationJoint.obj
 0001:00057a90       ??_ENpArticulationJoint@physx@@UEAAPEAXI@Z 0000000180058a90 f i NpArticulationJoint.obj
 0001:00057b20       ??_GPxArticulationJoint@physx@@MEAAPEAXI@Z 0000000180058b20 f i NpArticulationJoint.obj
 0001:00057b20       ??_EPxArticulationJoint@physx@@MEAAPEAXI@Z 0000000180058b20 f i NpArticulationJoint.obj
 0001:00057b60       ?getConcreteTypeName@PxArticulationJoint@physx@@UEBAPEBDXZ 0000000180058b60 f i NpArticulationJoint.obj
 0001:00057b70       ?isKindOf@PxArticulationJoint@physx@@MEBA_NPEBD@Z 0000000180058b70 f i NpArticulationJoint.obj
 0001:00057bd0       ?isSubordinate@NpArticulationJoint@physx@@UEBA_NXZ 0000000180058bd0 f i NpArticulationJoint.obj
 0001:00057be0       ?isUnit@PxQuat@physx@@QEBA_NXZ 0000000180058be0 f i NpArticulationJoint.obj
 0001:00057c70       ?requires@NpArticulationJoint@physx@@UEAAXAEAVPxProcessPxBaseCallback@2@@Z 0000000180058c70 f i NpArticulationJoint.obj
 0001:00057c80       ?setChildPose@ArticulationJoint@Scb@physx@@QEAAXAEBVPxTransform@3@@Z 0000000180058c80 f i NpArticulationJoint.obj
 0001:00057da0       ?setDamping@ArticulationJoint@Scb@physx@@QEAAXM@Z 0000000180058da0 f i NpArticulationJoint.obj
 0001:00057e90       ?setDriveType@ArticulationJoint@Scb@physx@@QEAAXW4Enum@PxArticulationJointDriveType@3@@Z 0000000180058e90 f i NpArticulationJoint.obj
 0001:00057f70       ?setExternalCompliance@ArticulationJoint@Scb@physx@@QEAAXM@Z 0000000180058f70 f i NpArticulationJoint.obj
 0001:00058060       ?setInternalCompliance@ArticulationJoint@Scb@physx@@QEAAXM@Z 0000000180059060 f i NpArticulationJoint.obj
 0001:00058150       ?setParentPose@ArticulationJoint@Scb@physx@@QEAAXAEBVPxTransform@3@@Z 0000000180059150 f i NpArticulationJoint.obj
 0001:00058260       ?setStiffness@ArticulationJoint@Scb@physx@@QEAAXM@Z 0000000180059260 f i NpArticulationJoint.obj
 0001:00058350       ?setSwingLimit@ArticulationJoint@Scb@physx@@QEAAXMM@Z 0000000180059350 f i NpArticulationJoint.obj
 0001:00058440       ?setSwingLimitContactDistance@ArticulationJoint@Scb@physx@@QEAAXM@Z 0000000180059440 f i NpArticulationJoint.obj
 0001:00058530       ?setSwingLimitEnabled@ArticulationJoint@Scb@physx@@QEAAX_N@Z 0000000180059530 f i NpArticulationJoint.obj
 0001:00058620       ?setTangentialDamping@ArticulationJoint@Scb@physx@@QEAAXM@Z 0000000180059620 f i NpArticulationJoint.obj
 0001:00058710       ?setTangentialStiffness@ArticulationJoint@Scb@physx@@QEAAXM@Z 0000000180059710 f i NpArticulationJoint.obj
 0001:00058800       ?setTargetOrientation@ArticulationJoint@Scb@physx@@QEAAXAEBVPxQuat@3@@Z 0000000180059800 f i NpArticulationJoint.obj
 0001:00058900       ?setTargetVelocity@ArticulationJoint@Scb@physx@@QEAAXAEBVPxVec3@3@@Z 0000000180059900 f i NpArticulationJoint.obj
 0001:000589f0       ?setTwistLimit@ArticulationJoint@Scb@physx@@QEAAXMM@Z 00000001800599f0 f i NpArticulationJoint.obj
 0001:00058ae0       ?setTwistLimitContactDistance@ArticulationJoint@Scb@physx@@QEAAXM@Z 0000000180059ae0 f i NpArticulationJoint.obj
 0001:00058bd0       ?setTwistLimitEnabled@ArticulationJoint@Scb@physx@@QEAAX_N@Z 0000000180059bd0 f i NpArticulationJoint.obj
 0001:00058cc0       ?exportExtraData@NpArticulationLink@physx@@UEAAXAEAVPxSerializationContext@2@@Z 0000000180059cc0 f   NpArticulationLink.obj
 0001:00058d40       ?importExtraData@NpArticulationLink@physx@@QEAAXAEAVPxDeserializationContext@2@@Z 0000000180059d40 f   NpArticulationLink.obj
 0001:00058dc0       ?resolveReferences@NpArticulationLink@physx@@UEAAXAEAVPxDeserializationContext@2@@Z 0000000180059dc0 f   NpArticulationLink.obj
 0001:00058eb0       ?requires@NpArticulationLink@physx@@UEAAXAEAVPxProcessPxBaseCallback@2@@Z 0000000180059eb0 f   NpArticulationLink.obj
 0001:00058f50       ?createObject@NpArticulationLink@physx@@SAPEAV12@AEAPEAEAEAVPxDeserializationContext@2@@Z 0000000180059f50 f   NpArticulationLink.obj
 0001:00058fc0       ??1NpArticulationLink@physx@@UEAA@XZ 0000000180059fc0 f   NpArticulationLink.obj
 0001:00059070       ?release@NpArticulationLink@physx@@UEAAXXZ 000000018005a070 f   NpArticulationLink.obj
 0001:00059150       ?setGlobalPose@NpArticulationLink@physx@@UEAAXAEBVPxTransform@2@@Z 000000018005a150 f   NpArticulationLink.obj
 0001:00059170       ?setGlobalPose@NpArticulationLink@physx@@UEAAXAEBVPxTransform@2@_N@Z 000000018005a170 f   NpArticulationLink.obj
 0001:00059520       ?getGlobalPose@NpArticulationLink@physx@@UEBA?AVPxTransform@2@XZ 000000018005a520 f   NpArticulationLink.obj
 0001:000598a0       ?setLinearVelocity@NpArticulationLink@physx@@UEAAXAEBVPxVec3@2@_N@Z 000000018005a8a0 f   NpArticulationLink.obj
 0001:000599f0       ?setAngularVelocity@NpArticulationLink@physx@@UEAAXAEBVPxVec3@2@_N@Z 000000018005a9f0 f   NpArticulationLink.obj
 0001:00059b40       ?getArticulation@NpArticulationLink@physx@@UEBAAEAVPxArticulation@2@XZ 000000018005ab40 f   NpArticulationLink.obj
 0001:00059b90       ?getInboundJoint@NpArticulationLink@physx@@UEBAPEAVPxArticulationJoint@2@XZ 000000018005ab90 f   NpArticulationLink.obj
 0001:00059be0       ?getNbChildren@NpArticulationLink@physx@@UEBAIXZ 000000018005abe0 f   NpArticulationLink.obj
 0001:00059c20       ?getChildren@NpArticulationLink@physx@@UEBAIPEAPEAVPxArticulationLink@2@I@Z 000000018005ac20 f   NpArticulationLink.obj
 0001:00059cb0       ?setCMassLocalPose@NpArticulationLink@physx@@UEAAXAEBVPxTransform@2@@Z 000000018005acb0 f   NpArticulationLink.obj
 0001:0005a400       ?addForce@NpArticulationLink@physx@@UEAAXAEBVPxVec3@2@W4Enum@PxForceMode@2@_N@Z 000000018005b400 f   NpArticulationLink.obj
 0001:0005a5b0       ?addTorque@NpArticulationLink@physx@@UEAAXAEBVPxVec3@2@W4Enum@PxForceMode@2@_N@Z 000000018005b5b0 f   NpArticulationLink.obj
 0001:0005a760       ?clearForce@NpArticulationLink@physx@@UEAAXW4Enum@PxForceMode@2@@Z 000000018005b760 f   NpArticulationLink.obj
 0001:0005a880       ?clearTorque@NpArticulationLink@physx@@UEAAXW4Enum@PxForceMode@2@@Z 000000018005b880 f   NpArticulationLink.obj
 0001:0005a9a0       ??0NpArticulationLink@physx@@QEAA@AEBVPxTransform@1@AEAVNpArticulation@1@PEAV01@@Z 000000018005b9a0 f   NpArticulationLink.obj
 0001:0005ab20       ?releaseInternal@NpArticulationLink@physx@@QEAAXXZ 000000018005bb20 f   NpArticulationLink.obj
 0001:0005ac60       ?visualize@NpArticulationLink@physx@@QEAAXAEAVRenderOutput@Cm@2@PEAVNpScene@2@@Z 000000018005bc60 f   NpArticulationLink.obj
 0001:0005afa0       ?visualizeJoint@NpArticulationLink@physx@@QEAAXAEAVPxConstraintVisualizer@2@@Z 000000018005bfa0 f   NpArticulationLink.obj
 0001:0005c190       ??$getConnectors@VPxConstraint@physx@@@NpActor@physx@@QEBAIW4Enum@NpConnectorType@1@PEAPEAVPxConstraint@1@II@Z 000000018005d190 f i NpArticulationLink.obj
 0001:0005c240       ??0?$NpActorTemplate@VPxArticulationLink@physx@@@physx@@QEAA@GV?$PxFlags@W4Enum@PxBaseFlag@physx@@G@1@PEBDPEAX@Z 000000018005d240 f i NpArticulationLink.obj
 0001:0005c2b0       ??0?$NpRigidActorTemplate@VPxArticulationLink@physx@@@physx@@QEAA@GV?$PxFlags@W4Enum@PxBaseFlag@physx@@G@1@@Z 000000018005d2b0 f i NpArticulationLink.obj
 0001:0005c320       ??0?$NpRigidBodyTemplate@VPxArticulationLink@physx@@@physx@@QEAA@GV?$PxFlags@W4Enum@PxBaseFlag@physx@@G@1@W4Enum@PxActorType@1@AEBVPxTransform@1@@Z 000000018005d320 f i NpArticulationLink.obj
 0001:0005c3c0       ??0?$NpRigidBodyTemplate@VPxArticulationLink@physx@@@physx@@QEAA@V?$PxFlags@W4Enum@PxBaseFlag@physx@@G@1@@Z 000000018005d3c0 f i NpArticulationLink.obj
 0001:0005c470       ??0Body@Scb@physx@@QEAA@W4Enum@PxActorType@2@AEBVPxTransform@2@@Z 000000018005d470 f i NpArticulationLink.obj
 0001:0005c5a0       ??0NpArticulationLink@physx@@QEAA@V?$PxFlags@W4Enum@PxBaseFlag@physx@@G@1@@Z 000000018005d5a0 f i NpArticulationLink.obj
 0001:0005c630       ??1?$NpActorTemplate@VPxArticulationLink@physx@@@physx@@UEAA@XZ 000000018005d630 f i NpArticulationLink.obj
 0001:0005c670       ??1?$NpRigidActorTemplate@VPxArticulationLink@physx@@@physx@@UEAA@XZ 000000018005d670 f i NpArticulationLink.obj
 0001:0005c6d0       ??1?$NpRigidBodyTemplate@VPxArticulationLink@physx@@@physx@@UEAA@XZ 000000018005d6d0 f i NpArticulationLink.obj
 0001:0005c740       ??1PxArticulationLink@physx@@MEAA@XZ 000000018005d740 f i NpArticulationLink.obj
 0001:0005c750       ??1PxConstraintVisualizer@physx@@MEAA@XZ 000000018005d750 f i NpArticulationLink.obj
 0001:0005c760       ??1PxRigidActor@physx@@MEAA@XZ 000000018005d760 f i NpArticulationLink.obj
 0001:0005c770       ??1PxRigidBody@physx@@MEAA@XZ 000000018005d770 f i NpArticulationLink.obj
 0001:0005c780       ??_G?$NpActorTemplate@VPxArticulationLink@physx@@@physx@@UEAAPEAXI@Z 000000018005d780 f i NpArticulationLink.obj
 0001:0005c780       ??_E?$NpActorTemplate@VPxArticulationLink@physx@@@physx@@UEAAPEAXI@Z 000000018005d780 f i NpArticulationLink.obj
 0001:0005c820       ??_E?$NpRigidActorTemplate@VPxArticulationLink@physx@@@physx@@UEAAPEAXI@Z 000000018005d820 f i NpArticulationLink.obj
 0001:0005c820       ??_G?$NpRigidActorTemplate@VPxArticulationLink@physx@@@physx@@UEAAPEAXI@Z 000000018005d820 f i NpArticulationLink.obj
 0001:0005c8d0       ??_G?$NpRigidBodyTemplate@VPxArticulationLink@physx@@@physx@@UEAAPEAXI@Z 000000018005d8d0 f i NpArticulationLink.obj
 0001:0005c8d0       ??_E?$NpRigidBodyTemplate@VPxArticulationLink@physx@@@physx@@UEAAPEAXI@Z 000000018005d8d0 f i NpArticulationLink.obj
 0001:0005c9a0       ??_EConstraintImmediateVisualizer@Cm@physx@@UEAAPEAXI@Z 000000018005d9a0 f i NpArticulationLink.obj
 0001:0005c9a0       ??_GConstraintImmediateVisualizer@Cm@physx@@UEAAPEAXI@Z 000000018005d9a0 f i NpArticulationLink.obj
 0001:0005c9e0       ??_ENpArticulationLink@physx@@UEAAPEAXI@Z 000000018005d9e0 f i NpArticulationLink.obj
 0001:0005c9e0       ??_GNpArticulationLink@physx@@UEAAPEAXI@Z 000000018005d9e0 f i NpArticulationLink.obj
 0001:0005ca50       ??_EPxArticulationLink@physx@@MEAAPEAXI@Z 000000018005da50 f i NpArticulationLink.obj
 0001:0005ca50       ??_GPxArticulationLink@physx@@MEAAPEAXI@Z 000000018005da50 f i NpArticulationLink.obj
 0001:0005ca90       ??_EPxConstraintVisualizer@physx@@MEAAPEAXI@Z 000000018005da90 f i NpArticulationLink.obj
 0001:0005ca90       ??_GPxConstraintVisualizer@physx@@MEAAPEAXI@Z 000000018005da90 f i NpArticulationLink.obj
 0001:0005cad0       ??_EPxRigidActor@physx@@MEAAPEAXI@Z 000000018005dad0 f i NpArticulationLink.obj
 0001:0005cad0       ??_GPxRigidActor@physx@@MEAAPEAXI@Z 000000018005dad0 f i NpArticulationLink.obj
 0001:0005cb10       ??_EPxRigidBody@physx@@MEAAPEAXI@Z 000000018005db10 f i NpArticulationLink.obj
 0001:0005cb10       ??_GPxRigidBody@physx@@MEAAPEAXI@Z 000000018005db10 f i NpArticulationLink.obj
 0001:0005cb50       ?accumulate@Body@Scb@physx@@AEAAXAEAVPxVec3@3@0IIPEBV43@1@Z 000000018005db50 f i NpArticulationLink.obj
 0001:0005cc20       ?addSpatialAcceleration@Body@Scb@physx@@QEAAXPEBVPxVec3@3@0@Z 000000018005dc20 f i NpArticulationLink.obj
 0001:0005cd10       ?addSpatialForce@?$NpRigidBodyTemplate@VPxArticulationLink@physx@@@physx@@IEAAXPEBVPxVec3@2@0W4Enum@PxForceMode@2@@Z 000000018005dd10 f i NpArticulationLink.obj
 0001:0005d030       ?addSpatialVelocity@Body@Scb@physx@@QEAAXPEBVPxVec3@3@0@Z 000000018005e030 f i NpArticulationLink.obj
 0001:0005d170       ?allocate@?$Array@PEAVNpArticulationLink@physx@@V?$InlineAllocator@$0CA@VNamedAllocator@shdfnd@physx@@@shdfnd@2@@shdfnd@physx@@IEAAPEAPEAVNpArticulationLink@3@I@Z 000000018005e170 f i NpArticulationLink.obj
 0001:0005d200       ?attachShape@?$NpRigidActorTemplate@VPxArticulationLink@physx@@@physx@@UEAAXAEAVPxShape@2@@Z 000000018005e200 f i NpArticulationLink.obj
 0001:0005d2f0       ?attachShape@?$NpRigidBodyTemplate@VPxArticulationLink@physx@@@physx@@UEAAXAEAVPxShape@2@@Z 000000018005e2f0 f i NpArticulationLink.obj
 0001:0005d490       ?clearSpatialAcceleration@Body@Scb@physx@@QEAAX_N0@Z 000000018005e490 f i NpArticulationLink.obj
 0001:0005d580       ?clearSpatialForce@?$NpRigidBodyTemplate@VPxArticulationLink@physx@@@physx@@IEAAXW4Enum@PxForceMode@2@_N1@Z 000000018005e580 f i NpArticulationLink.obj
 0001:0005d5d0       ?clearSpatialVelocity@Body@Scb@physx@@QEAAX_N0@Z 000000018005e5d0 f i NpArticulationLink.obj
 0001:0005d720       ?createShape@?$NpRigidBodyTemplate@VPxArticulationLink@physx@@@physx@@UEAAPEAVPxShape@2@AEBVPxGeometry@2@PEBQEAVPxMaterial@2@GV?$PxFlags@W4Enum@PxShapeFlag@physx@@E@2@@Z 000000018005e720 f i NpArticulationLink.obj
 0001:0005d900       ?detachShape@?$NpRigidActorTemplate@VPxArticulationLink@physx@@@physx@@UEAAXAEAVPxShape@2@_N@Z 000000018005e900 f i NpArticulationLink.obj
 0001:0005d9f0       ?exportExtraData@?$NpActorTemplate@VPxArticulationLink@physx@@@physx@@UEAAXAEAVPxSerializationContext@2@@Z 000000018005e9f0 f i NpArticulationLink.obj
 0001:0005da00       ?exportExtraData@?$NpRigidActorTemplate@VPxArticulationLink@physx@@@physx@@UEAAXAEAVPxSerializationContext@2@@Z 000000018005ea00 f i NpArticulationLink.obj
 0001:0005da40       ?getActorFlags@?$NpActorTemplate@VPxArticulationLink@physx@@@physx@@UEBA?AV?$PxFlags@W4Enum@PxActorFlag@physx@@G@2@XZ 000000018005ea40 f i NpArticulationLink.obj
 0001:0005dae0       ?getAggregate@?$NpActorTemplate@VPxArticulationLink@physx@@@physx@@UEBAPEAVPxAggregate@2@XZ 000000018005eae0 f i NpArticulationLink.obj
 0001:0005daf0       ?getAngularVelocity@?$NpRigidBodyTemplate@VPxArticulationLink@physx@@@physx@@UEBA?AVPxVec3@2@XZ 000000018005eaf0 f i NpArticulationLink.obj
 0001:0005db70       ?getCMassLocalPose@?$NpRigidBodyTemplate@VPxArticulationLink@physx@@@physx@@UEBA?AVPxTransform@2@XZ 000000018005eb70 f i NpArticulationLink.obj
 0001:0005dc20       ?getClientBehaviorFlags@?$NpActorTemplate@VPxArticulationLink@physx@@@physx@@UEBA?AV?$PxFlags@W4Enum@PxActorClientBehaviorFlag@physx@@E@2@XZ 000000018005ec20 f i NpArticulationLink.obj
 0001:0005dcc0       ?getConcreteTypeName@PxArticulationLink@physx@@UEBAPEBDXZ 000000018005ecc0 f i NpArticulationLink.obj
 0001:0005dcd0       ?getConstraints@?$NpRigidActorTemplate@VPxArticulationLink@physx@@@physx@@UEBAIPEAPEAVPxConstraint@2@II@Z 000000018005ecd0 f i NpArticulationLink.obj
 0001:0005dd60       ?getDominanceGroup@?$NpActorTemplate@VPxArticulationLink@physx@@@physx@@UEBAEXZ 000000018005ed60 f i NpArticulationLink.obj
 0001:0005de10       ?getGlobalInertiaTensorInverse@Body@Scb@physx@@QEBA?AVPxMat33@3@XZ 000000018005ee10 f i NpArticulationLink.obj
 0001:0005e040       ?getInvMass@?$NpRigidBodyTemplate@VPxArticulationLink@physx@@@physx@@UEBAMXZ 000000018005f040 f i NpArticulationLink.obj
 0001:0005e0c0       ?getLinearVelocity@?$NpRigidBodyTemplate@VPxArticulationLink@physx@@@physx@@UEBA?AVPxVec3@2@XZ 000000018005f0c0 f i NpArticulationLink.obj
 0001:0005e140       ?getMass@?$NpRigidBodyTemplate@VPxArticulationLink@physx@@@physx@@UEBAMXZ 000000018005f140 f i NpArticulationLink.obj
 0001:0005e1d0       ?getMassSpaceInertiaTensor@?$NpRigidBodyTemplate@VPxArticulationLink@physx@@@physx@@UEBA?AVPxVec3@2@XZ 000000018005f1d0 f i NpArticulationLink.obj
 0001:0005e2c0       ?getMassSpaceInvInertiaTensor@?$NpRigidBodyTemplate@VPxArticulationLink@physx@@@physx@@UEBA?AVPxVec3@2@XZ 000000018005f2c0 f i NpArticulationLink.obj
 0001:0005e350       ?getMaxDepenetrationVelocity@?$NpRigidBodyTemplate@VPxArticulationLink@physx@@@physx@@UEBAMXZ 000000018005f350 f i NpArticulationLink.obj
 0001:0005e390       ?getMinCCDAdvanceCoefficient@?$NpRigidBodyTemplate@VPxArticulationLink@physx@@@physx@@UEBAMXZ 000000018005f390 f i NpArticulationLink.obj
 0001:0005e3c0       ?getName@?$NpActorTemplate@VPxArticulationLink@physx@@@physx@@UEBAPEBDXZ 000000018005f3c0 f i NpArticulationLink.obj
 0001:0005e410       ?getNbConstraints@?$NpRigidActorTemplate@VPxArticulationLink@physx@@@physx@@UEBAIXZ 000000018005f410 f i NpArticulationLink.obj
 0001:0005e470       ?getNbShapes@?$NpRigidActorTemplate@VPxArticulationLink@physx@@@physx@@UEBAIXZ 000000018005f470 f i NpArticulationLink.obj
 0001:0005e4c0       ?getOwnerClient@?$NpActorTemplate@VPxArticulationLink@physx@@@physx@@UEBAEXZ 000000018005f4c0 f i NpArticulationLink.obj
 0001:0005e500       ?getRigidBodyFlags@?$NpRigidBodyTemplate@VPxArticulationLink@physx@@@physx@@UEBA?AV?$PxFlags@W4Enum@PxRigidBodyFlag@physx@@E@2@XZ 000000018005f500 f i NpArticulationLink.obj
 0001:0005e580       ?getRigidDynamicFlags@?$NpRigidBodyTemplate@VPxArticulationLink@physx@@@physx@@UEBA?AV?$PxFlags@W4Enum@PxRigidBodyFlag@physx@@E@2@XZ 000000018005f580 f i NpArticulationLink.obj
 0001:0005e600       ?getScene@?$NpActorTemplate@VPxArticulationLink@physx@@@physx@@UEBAPEAVPxScene@2@XZ 000000018005f600 f i NpArticulationLink.obj
 0001:0005e610       ?getShapes@?$NpRigidActorTemplate@VPxArticulationLink@physx@@@physx@@UEBAIPEAPEAVPxShape@2@II@Z 000000018005f610 f i NpArticulationLink.obj
 0001:0005e6a0       ?getType@NpArticulationLink@physx@@UEBA?AW4Enum@PxActorType@2@XZ 000000018005f6a0 f i NpArticulationLink.obj
 0001:0005e6b0       ?getWorldBounds@?$NpRigidActorTemplate@VPxArticulationLink@physx@@@physx@@UEBA?AVPxBounds3@2@M@Z 000000018005f6b0 f i NpArticulationLink.obj
 0001:0005e850       ?growAndPushBack@?$Array@PEAVNpArticulationLink@physx@@V?$InlineAllocator@$0CA@VNamedAllocator@shdfnd@physx@@@shdfnd@2@@shdfnd@physx@@IEAAAEAPEAVNpArticulationLink@3@AEBQEAV43@@Z 000000018005f850 f i NpArticulationLink.obj
 0001:0005e950       ?importExtraData@?$NpRigidActorTemplate@VPxArticulationLink@physx@@@physx@@QEAAXAEAVPxDeserializationContext@2@@Z 000000018005f950 f i NpArticulationLink.obj
 0001:0005e990       ?isKindOf@PxArticulationLink@physx@@MEBA_NPEBD@Z 000000018005f990 f i NpArticulationLink.obj
 0001:0005ea00       ?isKindOf@PxRigidActor@physx@@MEBA_NPEBD@Z 000000018005fa00 f i NpArticulationLink.obj
 0001:0005ea90       ?isKindOf@PxRigidBody@physx@@MEBA_NPEBD@Z 000000018005fa90 f i NpArticulationLink.obj
 0001:0005eaf0       ?isSubordinate@NpArticulationLink@physx@@UEBA_NXZ 000000018005faf0 f i NpArticulationLink.obj
 0001:0005eb00       ?isValid@PxTransform@physx@@QEBA_NXZ 000000018005fb00 f i NpArticulationLink.obj
 0001:0005eb90       ?release@?$NpActorTemplate@VPxArticulationLink@physx@@@physx@@UEAAXXZ 000000018005fb90 f i NpArticulationLink.obj
 0001:0005eba0       ?release@?$NpRigidActorTemplate@VPxArticulationLink@physx@@@physx@@UEAAXXZ 000000018005fba0 f i NpArticulationLink.obj
 0001:0005ec00       ?requires@?$NpRigidActorTemplate@VPxArticulationLink@physx@@@physx@@UEAAXAEAVPxProcessPxBaseCallback@2@@Z 000000018005fc00 f i NpArticulationLink.obj
 0001:0005ec90       ?resolveReferences@?$NpActorTemplate@VPxArticulationLink@physx@@@physx@@UEAAXAEAVPxDeserializationContext@2@@Z 000000018005fc90 f i NpArticulationLink.obj
 0001:0005eca0       ?resolveReferences@?$NpRigidActorTemplate@VPxArticulationLink@physx@@@physx@@UEAAXAEAVPxDeserializationContext@2@@Z 000000018005fca0 f i NpArticulationLink.obj
 0001:0005ed50       ?setActorFlag@?$NpActorTemplate@VPxArticulationLink@physx@@@physx@@UEAAXW4Enum@PxActorFlag@2@_N@Z 000000018005fd50 f i NpArticulationLink.obj
 0001:0005ee50       ?setActorFlag@?$NpRigidActorTemplate@VPxArticulationLink@physx@@@physx@@UEAAXW4Enum@PxActorFlag@2@_N@Z 000000018005fe50 f i NpArticulationLink.obj
 0001:0005f1a0       ?setActorFlags@?$NpActorTemplate@VPxArticulationLink@physx@@@physx@@UEAAXV?$PxFlags@W4Enum@PxActorFlag@physx@@G@2@@Z 00000001800601a0 f i NpArticulationLink.obj
 0001:0005f220       ?setActorFlags@?$NpRigidActorTemplate@VPxArticulationLink@physx@@@physx@@UEAAXV?$PxFlags@W4Enum@PxActorFlag@physx@@G@2@@Z 0000000180060220 f i NpArticulationLink.obj
 0001:0005f4d0       ?setBody2Actor@Body@Scb@physx@@QEAAXAEBVPxTransform@3@@Z 00000001800604d0 f i NpArticulationLink.obj
 0001:0005f630       ?setBody2World@Body@Scb@physx@@QEAAXAEBVPxTransform@3@_N@Z 0000000180060630 f i NpArticulationLink.obj
 0001:0005f770       ?setCMassLocalPoseInternal@?$NpRigidBodyTemplate@VPxArticulationLink@physx@@@physx@@IEAAXAEBVPxTransform@2@@Z 0000000180060770 f i NpArticulationLink.obj
 0001:0005f9f0       ?setClientBehaviorFlags@?$NpActorTemplate@VPxArticulationLink@physx@@@physx@@UEAAXV?$PxFlags@W4Enum@PxActorClientBehaviorFlag@physx@@E@2@@Z 00000001800609f0 f i NpArticulationLink.obj
 0001:0005fa70       ?setClientBehaviorFlags@?$NpRigidActorTemplate@VPxArticulationLink@physx@@@physx@@UEAAXV?$PxFlags@W4Enum@PxActorClientBehaviorFlag@physx@@E@2@@Z 0000000180060a70 f i NpArticulationLink.obj
 0001:0005fb30       ?setDominanceGroup@?$NpActorTemplate@VPxArticulationLink@physx@@@physx@@UEAAXE@Z 0000000180060b30 f i NpArticulationLink.obj
 0001:0005fbb0       ?setFlags@Body@Scb@physx@@QEAAXV?$PxFlags@W4Enum@PxRigidBodyFlag@physx@@E@3@@Z 0000000180060bb0 f i NpArticulationLink.obj
 0001:0005fdb0       ?setInverseInertia@Body@Scb@physx@@QEAAXAEBVPxVec3@3@@Z 0000000180060db0 f i NpArticulationLink.obj
 0001:0005feb0       ?setInverseMass@Body@Scb@physx@@QEAAXM@Z 0000000180060eb0 f i NpArticulationLink.obj
 0001:0005ffa0       ?setMass@?$NpRigidBodyTemplate@VPxArticulationLink@physx@@@physx@@UEAAXM@Z 0000000180060fa0 f i NpArticulationLink.obj
 0001:00060110       ?setMassSpaceInertiaTensor@?$NpRigidBodyTemplate@VPxArticulationLink@physx@@@physx@@UEAAXAEBVPxVec3@2@@Z 0000000180061110 f i NpArticulationLink.obj
 0001:000603f0       ?setMaxDepenetrationVelocity@?$NpRigidBodyTemplate@VPxArticulationLink@physx@@@physx@@UEAAXM@Z 00000001800613f0 f i NpArticulationLink.obj
 0001:00060460       ?setMaxPenetrationBias@Body@Scb@physx@@QEAAXM@Z 0000000180061460 f i NpArticulationLink.obj
 0001:00060550       ?setMinCCDAdvanceCoefficient@?$NpRigidBodyTemplate@VPxArticulationLink@physx@@@physx@@UEAAXM@Z 0000000180061550 f i NpArticulationLink.obj
 0001:00060560       ?setMinCCDAdvanceCoefficient@Body@Scb@physx@@QEAAXM@Z 0000000180061560 f i NpArticulationLink.obj
 0001:00060650       ?setName@?$NpActorTemplate@VPxArticulationLink@physx@@@physx@@UEAAXPEBD@Z 0000000180061650 f i NpArticulationLink.obj
 0001:00060730       ?setOwnerClient@?$NpActorTemplate@VPxArticulationLink@physx@@@physx@@UEAAXE@Z 0000000180061730 f i NpArticulationLink.obj
 0001:000607d0       ?setRigidBodyFlag@?$NpRigidBodyTemplate@VPxArticulationLink@physx@@@physx@@UEAAXW4Enum@PxRigidBodyFlag@2@_N@Z 00000001800617d0 f i NpArticulationLink.obj
 0001:00060d60       ?setRigidBodyFlags@?$NpRigidBodyTemplate@VPxArticulationLink@physx@@@physx@@UEAAXV?$PxFlags@W4Enum@PxRigidBodyFlag@physx@@E@2@@Z 0000000180061d60 f i NpArticulationLink.obj
 0001:00061330       ?setRigidDynamicFlag@?$NpRigidBodyTemplate@VPxArticulationLink@physx@@@physx@@UEAAXW4Enum@PxRigidBodyFlag@2@_N@Z 0000000180062330 f i NpArticulationLink.obj
 0001:00061340       ?setRigidDynamicFlags@?$NpRigidBodyTemplate@VPxArticulationLink@physx@@@physx@@UEAAXV?$PxFlags@W4Enum@PxRigidBodyFlag@physx@@E@2@@Z 0000000180062340 f i NpArticulationLink.obj
 0001:00061370       ?switchFromNoSim@?$NpRigidActorTemplate@VPxArticulationLink@physx@@@physx@@UEAAXXZ 0000000180062370 f i NpArticulationLink.obj
 0001:00061380       ?switchToNoSim@?$NpRigidActorTemplate@VPxArticulationLink@physx@@@physx@@UEAAXXZ 0000000180062380 f i NpArticulationLink.obj
 0001:00061390       ?transformInertiaTensor@Cm@physx@@YAXAEBVPxVec3@2@AEBVPxMat33@2@AEAV42@@Z 0000000180062390 f i NpArticulationLink.obj
 0001:00061570       ?updateShaderComs@?$NpRigidActorTemplate@VPxArticulationLink@physx@@@physx@@QEAAXXZ 0000000180062570 f i NpArticulationLink.obj
 0001:00061610       ?visualize@?$NpRigidActorTemplate@VPxArticulationLink@physx@@@physx@@QEAAXAEAVRenderOutput@Cm@2@PEAVNpScene@2@@Z 0000000180062610 f i NpArticulationLink.obj
 0001:00061620       ?visualize@?$NpRigidBodyTemplate@VPxArticulationLink@physx@@@physx@@QEAAXAEAVRenderOutput@Cm@2@PEAVNpScene@2@@Z 0000000180062620 f i NpArticulationLink.obj
 0001:00061b10       ?visualizeAngularLimit@ConstraintImmediateVisualizer@Cm@physx@@UEAAXAEBVPxTransform@3@MM_N@Z 0000000180062b10 f i NpArticulationLink.obj
 0001:00061b50       ?visualizeDoubleCone@ConstraintImmediateVisualizer@Cm@physx@@UEAAXAEBVPxTransform@3@M_N@Z 0000000180062b50 f i NpArticulationLink.obj
 0001:00061b80       ?visualizeJointFrames@ConstraintImmediateVisualizer@Cm@physx@@UEAAXAEBVPxTransform@3@0@Z 0000000180062b80 f i NpArticulationLink.obj
 0001:00061ba0       ?visualizeLimitCone@ConstraintImmediateVisualizer@Cm@physx@@UEAAXAEBVPxTransform@3@MM_N@Z 0000000180062ba0 f i NpArticulationLink.obj
 0001:00061be0       ?visualizeLinearLimit@ConstraintImmediateVisualizer@Cm@physx@@UEAAXAEBVPxTransform@3@0M_N@Z 0000000180062be0 f i NpArticulationLink.obj
 0001:00061c20       ??0NpBatchQuery@physx@@QEAA@AEAVNpScene@1@AEBVPxBatchQueryDesc@1@@Z 0000000180062c20 f   NpBatchQuery.obj
 0001:00061db0       ??1NpBatchQuery@physx@@UEAA@XZ 0000000180062db0 f   NpBatchQuery.obj
 0001:00061e50       ?execute@NpBatchQuery@physx@@UEAAXXZ 0000000180062e50 f   NpBatchQuery.obj
 0001:00062870       ?release@NpBatchQuery@physx@@UEAAXXZ 0000000180063870 f   NpBatchQuery.obj
 0001:000628e0       ?getPreFilterShader@NpBatchQuery@physx@@UEBAP6A?AW4Enum@PxQueryHitType@2@UPxFilterData@2@0PEBXIAEAV?$PxFlags@W4Enum@PxHitFlag@physx@@G@2@@ZXZ 00000001800638e0 f   NpBatchQuery.obj
 0001:000628f0       ?getPostFilterShader@NpBatchQuery@physx@@UEBAP6A?AW4Enum@PxQueryHitType@2@UPxFilterData@2@0PEBXIAEBUPxQueryHit@2@@ZXZ 00000001800638f0 f   NpBatchQuery.obj
 0001:00062900       ?getFilterShaderData@NpBatchQuery@physx@@UEBAPEBXXZ 0000000180063900 f   NpBatchQuery.obj
 0001:00062910       ?getFilterShaderDataSize@NpBatchQuery@physx@@UEBAIXZ 0000000180063910 f   NpBatchQuery.obj
 0001:00062920       ?getOwnerClient@NpBatchQuery@physx@@UEBAEXZ 0000000180063920 f   NpBatchQuery.obj
 0001:00062930       ?setUserMemory@NpBatchQuery@physx@@UEAAXAEBUPxBatchQueryMemory@2@@Z 0000000180063930 f   NpBatchQuery.obj
 0001:000629e0       ?getUserMemory@NpBatchQuery@physx@@UEAAAEBUPxBatchQueryMemory@2@XZ 00000001800639e0 f   NpBatchQuery.obj
 0001:000629f0       ?raycast@NpBatchQuery@physx@@UEAAXAEBVPxVec3@2@0MGV?$PxFlags@W4Enum@PxHitFlag@physx@@G@2@AEBUPxQueryFilterData@2@PEAXPEBUPxQueryCache@2@@Z 00000001800639f0 f   NpBatchQuery.obj
 0001:00062d10       ?overlap@NpBatchQuery@physx@@UEAAXAEBVPxGeometry@2@AEBVPxTransform@2@GAEBUPxQueryFilterData@2@PEAXPEBUPxQueryCache@2@@Z 0000000180063d10 f   NpBatchQuery.obj
 0001:00062ed0       ?sweep@NpBatchQuery@physx@@UEAAXAEBVPxGeometry@2@AEBVPxTransform@2@AEBVPxVec3@2@MGV?$PxFlags@W4Enum@PxHitFlag@physx@@G@2@AEBUPxQueryFilterData@2@PEAXPEBUPxQueryCache@2@M@Z 0000000180063ed0 f   NpBatchQuery.obj
 0001:000633d0       ?resetResultBuffers@NpBatchQuery@physx@@AEAAXXZ 00000001800643d0 f   NpBatchQuery.obj
 0001:000634f0       ?finalizeExecute@NpBatchQuery@physx@@AEAAXXZ 00000001800644f0 f   NpBatchQuery.obj
 0001:00063520       ?checkForSPUErrors@NpBatchQuery@physx@@AEAAXXZ 0000000180064520 f   NpBatchQuery.obj
 0001:00063530       ?writeBatchHeader@NpBatchQuery@physx@@AEAAXAEBUBatchStreamHeader@2@@Z 0000000180064530 f   NpBatchQuery.obj
 0001:00063c80       ??$writeStatus@U?$PxBatchQueryResult@UPxOverlapHit@physx@@@physx@@UPxOverlapHit@2@@@YAXPEAU?$PxBatchQueryResult@UPxOverlapHit@physx@@@physx@@AEBU?$PxHitBuffer@UPxOverlapHit@physx@@@1@PEAX_N@Z 0000000180064c80 f i NpBatchQuery.obj
 0001:00063ce0       ??$writeStatus@U?$PxBatchQueryResult@UPxRaycastHit@physx@@@physx@@UPxRaycastHit@2@@@YAXPEAU?$PxBatchQueryResult@UPxRaycastHit@physx@@@physx@@AEBU?$PxHitBuffer@UPxRaycastHit@physx@@@1@PEAX_N@Z 0000000180064ce0 f i NpBatchQuery.obj
 0001:00063d90       ??$writeStatus@U?$PxBatchQueryResult@UPxSweepHit@physx@@@physx@@UPxSweepHit@2@@@YAXPEAU?$PxBatchQueryResult@UPxSweepHit@physx@@@physx@@AEBU?$PxHitBuffer@UPxSweepHit@physx@@@1@PEAX_N@Z 0000000180064d90 f i NpBatchQuery.obj
 0001:00063e40       ??1?$PxHitBuffer@UPxOverlapHit@physx@@@physx@@UEAA@XZ 0000000180064e40 f i NpBatchQuery.obj
 0001:00063e50       ??1?$PxHitBuffer@UPxRaycastHit@physx@@@physx@@UEAA@XZ 0000000180064e50 f i NpBatchQuery.obj
 0001:00063e60       ??1?$PxHitBuffer@UPxSweepHit@physx@@@physx@@UEAA@XZ 0000000180064e60 f i NpBatchQuery.obj
 0001:00063e70       ??1?$PxHitCallback@UPxOverlapHit@physx@@@physx@@UEAA@XZ 0000000180064e70 f i NpBatchQuery.obj
 0001:00063e80       ??1?$PxHitCallback@UPxRaycastHit@physx@@@physx@@UEAA@XZ 0000000180064e80 f i NpBatchQuery.obj
 0001:00063e90       ??1?$PxHitCallback@UPxSweepHit@physx@@@physx@@UEAA@XZ 0000000180064e90 f i NpBatchQuery.obj
 0001:00063ea0       ??1PxBatchQuery@physx@@MEAA@XZ 0000000180064ea0 f i NpBatchQuery.obj
 0001:00063eb0       ??_G?$PxHitBuffer@UPxOverlapHit@physx@@@physx@@UEAAPEAXI@Z 0000000180064eb0 f i NpBatchQuery.obj
 0001:00063eb0       ??_E?$PxHitBuffer@UPxOverlapHit@physx@@@physx@@UEAAPEAXI@Z 0000000180064eb0 f i NpBatchQuery.obj
 0001:00063ef0       ??_G?$PxHitBuffer@UPxRaycastHit@physx@@@physx@@UEAAPEAXI@Z 0000000180064ef0 f i NpBatchQuery.obj
 0001:00063ef0       ??_E?$PxHitBuffer@UPxRaycastHit@physx@@@physx@@UEAAPEAXI@Z 0000000180064ef0 f i NpBatchQuery.obj
 0001:00063f30       ??_E?$PxHitBuffer@UPxSweepHit@physx@@@physx@@UEAAPEAXI@Z 0000000180064f30 f i NpBatchQuery.obj
 0001:00063f30       ??_G?$PxHitBuffer@UPxSweepHit@physx@@@physx@@UEAAPEAXI@Z 0000000180064f30 f i NpBatchQuery.obj
 0001:00063f70       ??_G?$PxHitCallback@UPxOverlapHit@physx@@@physx@@UEAAPEAXI@Z 0000000180064f70 f i NpBatchQuery.obj
 0001:00063f70       ??_E?$PxHitCallback@UPxOverlapHit@physx@@@physx@@UEAAPEAXI@Z 0000000180064f70 f i NpBatchQuery.obj
 0001:00063fb0       ??_E?$PxHitCallback@UPxRaycastHit@physx@@@physx@@UEAAPEAXI@Z 0000000180064fb0 f i NpBatchQuery.obj
 0001:00063fb0       ??_G?$PxHitCallback@UPxRaycastHit@physx@@@physx@@UEAAPEAXI@Z 0000000180064fb0 f i NpBatchQuery.obj
 0001:00063ff0       ??_G?$PxHitCallback@UPxSweepHit@physx@@@physx@@UEAAPEAXI@Z 0000000180064ff0 f i NpBatchQuery.obj
 0001:00063ff0       ??_E?$PxHitCallback@UPxSweepHit@physx@@@physx@@UEAAPEAXI@Z 0000000180064ff0 f i NpBatchQuery.obj
 0001:00064030       ??_E?$PxOverflowBuffer@UPxOverlapHit@physx@@@@UEAAPEAXI@Z 0000000180065030 f i NpBatchQuery.obj
 0001:00064030       ??_G?$PxOverflowBuffer@UPxOverlapHit@physx@@@@UEAAPEAXI@Z 0000000180065030 f i NpBatchQuery.obj
 0001:00064070       ??_E?$PxOverflowBuffer@UPxRaycastHit@physx@@@@UEAAPEAXI@Z 0000000180065070 f i NpBatchQuery.obj
 0001:00064070       ??_G?$PxOverflowBuffer@UPxRaycastHit@physx@@@@UEAAPEAXI@Z 0000000180065070 f i NpBatchQuery.obj
 0001:000640b0       ??_E?$PxOverflowBuffer@UPxSweepHit@physx@@@@UEAAPEAXI@Z 00000001800650b0 f i NpBatchQuery.obj
 0001:000640b0       ??_G?$PxOverflowBuffer@UPxSweepHit@physx@@@@UEAAPEAXI@Z 00000001800650b0 f i NpBatchQuery.obj
 0001:000640f0       ??_ENpBatchQuery@physx@@UEAAPEAXI@Z 00000001800650f0 f i NpBatchQuery.obj
 0001:000640f0       ??_GNpBatchQuery@physx@@UEAAPEAXI@Z 00000001800650f0 f i NpBatchQuery.obj
 0001:00064160       ??_EPxBatchQuery@physx@@MEAAPEAXI@Z 0000000180065160 f i NpBatchQuery.obj
 0001:00064160       ??_GPxBatchQuery@physx@@MEAAPEAXI@Z 0000000180065160 f i NpBatchQuery.obj
 0001:000641a0       ?finalizeQuery@?$PxHitCallback@UPxOverlapHit@physx@@@physx@@UEAAXXZ 00000001800651a0 f i NpBatchQuery.obj
 0001:000641b0       ?finalizeQuery@?$PxHitCallback@UPxRaycastHit@physx@@@physx@@UEAAXXZ 00000001800651b0 f i NpBatchQuery.obj
 0001:000641c0       ?finalizeQuery@?$PxHitCallback@UPxSweepHit@physx@@@physx@@UEAAXXZ 00000001800651c0 f i NpBatchQuery.obj
 0001:000641d0       ?finalizeQuery@?$PxOverflowBuffer@UPxOverlapHit@physx@@@@UEAAXXZ 00000001800651d0 f i NpBatchQuery.obj
 0001:00064200       ?finalizeQuery@?$PxOverflowBuffer@UPxRaycastHit@physx@@@@UEAAXXZ 0000000180065200 f i NpBatchQuery.obj
 0001:00064230       ?finalizeQuery@?$PxOverflowBuffer@UPxSweepHit@physx@@@@UEAAXXZ 0000000180065230 f i NpBatchQuery.obj
 0001:00064260       ?getDesc@NpBatchQuery@physx@@UEBAAEBVPxBatchQueryDesc@2@XZ 0000000180065260 f i NpBatchQuery.obj
 0001:00064270       ?getRunOnSpu@NpBatchQuery@physx@@UEAA_NXZ 0000000180065270 f i NpBatchQuery.obj
 0001:00064280       ?processTouches@?$PxHitBuffer@UPxOverlapHit@physx@@@physx@@MEAA_NPEBUPxOverlapHit@2@I@Z 0000000180065280 f i NpBatchQuery.obj
 0001:00064290       ?processTouches@?$PxHitBuffer@UPxRaycastHit@physx@@@physx@@MEAA_NPEBUPxRaycastHit@2@I@Z 0000000180065290 f i NpBatchQuery.obj
 0001:000642a0       ?processTouches@?$PxHitBuffer@UPxSweepHit@physx@@@physx@@MEAA_NPEBUPxSweepHit@2@I@Z 00000001800652a0 f i NpBatchQuery.obj
 0001:000642b0       ?processTouches@?$PxOverflowBuffer@UPxOverlapHit@physx@@@@UEAA_NPEBUPxOverlapHit@physx@@I@Z 00000001800652b0 f i NpBatchQuery.obj
 0001:000642f0       ?processTouches@?$PxOverflowBuffer@UPxRaycastHit@physx@@@@UEAA_NPEBUPxRaycastHit@physx@@I@Z 00000001800652f0 f i NpBatchQuery.obj
 0001:00064340       ?processTouches@?$PxOverflowBuffer@UPxSweepHit@physx@@@@UEAA_NPEBUPxSweepHit@physx@@I@Z 0000000180065340 f i NpBatchQuery.obj
 0001:000644a0       ?recreate@?$Array@DVNamedAllocator@shdfnd@physx@@@shdfnd@physx@@IEAAXI@Z 00000001800654a0 f i NpBatchQuery.obj
 0001:00064580       ?resizeUninitialized@?$Array@DVNamedAllocator@shdfnd@physx@@@shdfnd@physx@@QEAAXI@Z 0000000180065580 f i NpBatchQuery.obj
 0001:000645d0       ?setRunOnSpu@NpBatchQuery@physx@@UEAAX_N@Z 00000001800655d0 f i NpBatchQuery.obj
 0001:00064a40       ?NpConstraintGetRigidObjectsFromScb@physx@@YAXAEBVConstraint@Scb@1@AEAPEAVRigidObject@31@1@Z 0000000180065a40 f   NpConstraint.obj
 0001:00064ab0       ?setConstraintFunctions@NpConstraint@physx@@UEAAXAEAVPxConstraintConnector@2@AEBUPxConstraintShaderTable@2@@Z 0000000180065ab0 f   NpConstraint.obj
 0001:00064d50       ?createObject@NpConstraint@physx@@SAPEAV12@AEAPEAEAEAVPxDeserializationContext@2@@Z 0000000180065d50 f   NpConstraint.obj
 0001:00064df0       ?resolveReferences@NpConstraint@physx@@QEAAXAEAVPxDeserializationContext@2@@Z 0000000180065df0 f   NpConstraint.obj
 0001:00064e50       ??0NpConstraint@physx@@QEAA@PEAVPxRigidActor@1@0AEAVPxConstraintConnector@1@AEBUPxConstraintShaderTable@1@I@Z 0000000180065e50 f   NpConstraint.obj
 0001:00065050       ??1NpConstraint@physx@@UEAA@XZ 0000000180066050 f   NpConstraint.obj
 0001:000650b0       ?release@NpConstraint@physx@@UEAAXXZ 00000001800660b0 f   NpConstraint.obj
 0001:00065230       ?getScene@NpConstraint@physx@@UEBAPEAVPxScene@2@XZ 0000000180066230 f   NpConstraint.obj
 0001:00065270       ?getActors@NpConstraint@physx@@UEBAXAEAPEAVPxRigidActor@2@0@Z 0000000180066270 f   NpConstraint.obj
 0001:00065310       ?setActors@NpConstraint@physx@@UEAAXPEAVPxRigidActor@2@0@Z 0000000180066310 f   NpConstraint.obj
 0001:00065740       ?getFlags@NpConstraint@physx@@UEBA?AV?$PxFlags@W4Enum@PxConstraintFlag@physx@@G@2@XZ 0000000180066740 f   NpConstraint.obj
 0001:000657f0       ?setFlags@NpConstraint@physx@@UEAAXV?$PxFlags@W4Enum@PxConstraintFlag@physx@@G@2@@Z 00000001800667f0 f   NpConstraint.obj
 0001:000658f0       ?setFlag@NpConstraint@physx@@UEAAXW4Enum@PxConstraintFlag@2@_N@Z 00000001800668f0 f   NpConstraint.obj
 0001:00065a40       ?getForce@NpConstraint@physx@@UEBAXAEAVPxVec3@2@0@Z 0000000180066a40 f   NpConstraint.obj
 0001:00065b00       ?markDirty@NpConstraint@physx@@UEAAXXZ 0000000180066b00 f   NpConstraint.obj
 0001:00065b10       ?setBreakForce@NpConstraint@physx@@UEAAXMM@Z 0000000180066b10 f   NpConstraint.obj
 0001:00065bd0       ?getBreakForce@NpConstraint@physx@@UEBAXAEAM0@Z 0000000180066bd0 f   NpConstraint.obj
 0001:00065cb0       ?isValid@NpConstraint@physx@@UEBA_NXZ 0000000180066cb0 f   NpConstraint.obj
 0001:00065d80       ?getExternalReference@NpConstraint@physx@@UEAAPEAXAEAI@Z 0000000180066d80 f   NpConstraint.obj
 0001:00065e10       ?updateConstants@NpConstraint@physx@@QEAAXXZ 0000000180066e10 f   NpConstraint.obj
 0001:00065e90       ?comShift@NpConstraint@physx@@QEAAXPEAVPxRigidActor@2@@Z 0000000180066e90 f   NpConstraint.obj
 0001:00065ef0       ?actorDeleted@NpConstraint@physx@@QEAAXPEAVPxRigidActor@2@@Z 0000000180066ef0 f   NpConstraint.obj
 0001:00065f10       ?getNpScene@NpConstraint@physx@@QEBAPEAVNpScene@2@XZ 0000000180066f10 f   NpConstraint.obj
 0001:00065f50       ?getSceneFromActors@NpConstraint@physx@@QEBAPEAVNpScene@2@XZ 0000000180066f50 f   NpConstraint.obj
 0001:00066030       ?getScbRigidObject@NpConstraint@physx@@SAPEAVRigidObject@Scb@2@PEAVPxRigidActor@2@@Z 0000000180067030 f   NpConstraint.obj
 0001:000665d0       ??1PxConstraint@physx@@MEAA@XZ 00000001800675d0 f i NpConstraint.obj
 0001:000665e0       ??_GNpConstraint@physx@@UEAAPEAXI@Z 00000001800675e0 f i NpConstraint.obj
 0001:000665e0       ??_ENpConstraint@physx@@UEAAPEAXI@Z 00000001800675e0 f i NpConstraint.obj
 0001:000666a0       ??_GPxConstraint@physx@@MEAAPEAXI@Z 00000001800676a0 f i NpConstraint.obj
 0001:000666a0       ??_EPxConstraint@physx@@MEAAPEAXI@Z 00000001800676a0 f i NpConstraint.obj
 0001:000666e0       ?getConcreteTypeName@PxConstraint@physx@@UEBAPEBDXZ 00000001800676e0 f i NpConstraint.obj
 0001:000666f0       ?isKindOf@PxConstraint@physx@@MEBA_NPEBD@Z 00000001800676f0 f i NpConstraint.obj
 0001:00066750       ?isSubordinate@NpConstraint@physx@@UEBA_NXZ 0000000180067750 f i NpConstraint.obj
 0001:00066760       ?requires@NpConstraint@physx@@UEAAXAEAVPxProcessPxBaseCallback@2@@Z 0000000180067760 f i NpConstraint.obj
 0001:00066770       ?setBodies@Constraint@Scb@physx@@QEAAXPEAVRigidObject@23@0@Z 0000000180067770 f i NpConstraint.obj
 0001:000668f0       ?setBreakForce@Constraint@Scb@physx@@QEAAXMM@Z 00000001800678f0 f i NpConstraint.obj
 0001:00066a00       ?setFlags@Constraint@Scb@physx@@QEAAXV?$PxFlags@W4Enum@PxConstraintFlag@physx@@G@3@@Z 0000000180067a00 f i NpConstraint.obj
 0001:00066b00       ??0NpFactory@physx@@QEAA@XZ 0000000180067b00 f   NpFactory.obj
 0001:000678d0       ??1NpFactory@physx@@EEAA@XZ 00000001800688d0 f   NpFactory.obj
 0001:00067cd0       ?createInstance@NpFactory@physx@@SAXXZ 0000000180068cd0 f   NpFactory.obj
 0001:00067d60       ?destroyInstance@NpFactory@physx@@SAXXZ 0000000180068d60 f   NpFactory.obj
 0001:00067d90       ?registerArticulations@NpFactory@physx@@SAXXZ 0000000180068d90 f   NpFactory.obj
 0001:00067dc0       ?registerCloth@NpFactory@physx@@SAXXZ 0000000180068dc0 f   NpFactory.obj
 0001:00067e00       ?registerParticles@NpFactory@physx@@SAXXZ 0000000180068e00 f   NpFactory.obj
 0001:00067e30       ?release@NpFactory@physx@@QEAAXXZ 0000000180068e30 f   NpFactory.obj
 0001:00067ed0       ?addCollection@NpFactory@physx@@QEAAXAEBVCollection@Cm@2@@Z 0000000180068ed0 f   NpFactory.obj
 0001:00068220       ?createRigidDynamic@NpFactory@physx@@QEAAPEAVPxRigidDynamic@2@AEBVPxTransform@2@@Z 0000000180069220 f   NpFactory.obj
 0001:00068320       ?addRigidDynamic@NpFactory@physx@@QEAAXPEAVPxRigidDynamic@2@_N@Z 0000000180069320 f   NpFactory.obj
 0001:00068340       ?releaseRigidDynamicToPool@NpFactory@physx@@QEAAXAEAVNpRigidDynamic@2@@Z 0000000180069340 f   NpFactory.obj
 0001:000683e0       ?createRigidStatic@NpFactory@physx@@QEAAPEAVPxRigidStatic@2@AEBVPxTransform@2@@Z 00000001800693e0 f   NpFactory.obj
 0001:000684e0       ?addRigidStatic@NpFactory@physx@@QEAAXPEAVPxRigidStatic@2@_N@Z 00000001800694e0 f   NpFactory.obj
 0001:00068500       ?releaseRigidStaticToPool@NpFactory@physx@@QEAAXAEAVNpRigidStatic@2@@Z 0000000180069500 f   NpFactory.obj
 0001:000685a0       ?createShape@NpFactory@physx@@QEAAPEAVNpShape@2@AEBVPxGeometry@2@V?$PxFlags@W4Enum@PxShapeFlag@physx@@E@2@PEBQEAVPxMaterial@2@G_N@Z 00000001800695a0 f   NpFactory.obj
 0001:00068980       ?addShape@NpFactory@physx@@QEAAXPEAVPxShape@2@_N@Z 0000000180069980 f   NpFactory.obj
 0001:00068a00       ?releaseShapeToPool@NpFactory@physx@@QEAAXAEAVNpShape@2@@Z 0000000180069a00 f   NpFactory.obj
 0001:00068aa0       ?getNbShapes@NpFactory@physx@@QEBAIXZ 0000000180069aa0 f   NpFactory.obj
 0001:00068ab0       ?getShapes@NpFactory@physx@@QEBAIPEAPEAVPxShape@2@II@Z 0000000180069ab0 f   NpFactory.obj
 0001:00068b00       ?addConstraint@NpFactory@physx@@QEAAXPEAVPxConstraint@2@_N@Z 0000000180069b00 f   NpFactory.obj
 0001:00068b80       ?createConstraint@NpFactory@physx@@QEAAPEAVPxConstraint@2@PEAVPxRigidActor@2@0AEAVPxConstraintConnector@2@AEBUPxConstraintShaderTable@2@I@Z 0000000180069b80 f   NpFactory.obj
 0001:00068cf0       ?releaseConstraintToPool@NpFactory@physx@@QEAAXAEAVNpConstraint@2@@Z 0000000180069cf0 f   NpFactory.obj
 0001:00068d90       ?addArticulation@NpFactory@physx@@QEAAXPEAVPxArticulation@2@_N@Z 0000000180069d90 f   NpFactory.obj
 0001:00068e10       ?createArticulation@NpFactory@physx@@QEAAPEAVPxArticulation@2@XZ 0000000180069e10 f   NpFactory.obj
 0001:00068ec0       ?createNpArticulation@NpFactory@physx@@QEAAPEAVNpArticulation@2@XZ 0000000180069ec0 f   NpFactory.obj
 0001:00068f20       ?releaseArticulationToPool@NpFactory@physx@@QEAAXAEAVNpArticulation@2@@Z 0000000180069f20 f   NpFactory.obj
 0001:00068fc0       ?createNpArticulationLink@NpFactory@physx@@QEAAPEAVNpArticulationLink@2@AEAVNpArticulation@2@PEAV32@AEBVPxTransform@2@@Z 0000000180069fc0 f   NpFactory.obj
 0001:00069050       ?releaseArticulationLinkToPool@NpFactory@physx@@QEAAXAEAVNpArticulationLink@2@@Z 000000018006a050 f   NpFactory.obj
 0001:000690f0       ?createArticulationLink@NpFactory@physx@@QEAAPEAVPxArticulationLink@2@AEAVNpArticulation@2@PEAVNpArticulationLink@2@AEBVPxTransform@2@@Z 000000018006a0f0 f   NpFactory.obj
 0001:00069150       ?createNpArticulationJoint@NpFactory@physx@@QEAAPEAVNpArticulationJoint@2@AEAVNpArticulationLink@2@AEBVPxTransform@2@01@Z 000000018006a150 f   NpFactory.obj
 0001:000691e0       ?releaseArticulationJointToPool@NpFactory@physx@@QEAAXAEAVNpArticulationJoint@2@@Z 000000018006a1e0 f   NpFactory.obj
 0001:00069280       ?addAggregate@NpFactory@physx@@QEAAXPEAVPxAggregate@2@_N@Z 000000018006a280 f   NpFactory.obj
 0001:00069300       ?createAggregate@NpFactory@physx@@QEAAPEAVPxAggregate@2@I_N@Z 000000018006a300 f   NpFactory.obj
 0001:00069400       ?releaseAggregateToPool@NpFactory@physx@@QEAAXAEAVNpAggregate@2@@Z 000000018006a400 f   NpFactory.obj
 0001:000694a0       ?createNpParticleSystem@NpFactory@physx@@QEAAPEAVNpParticleSystem@2@I_N@Z 000000018006a4a0 f   NpFactory.obj
 0001:00069520       ?releaseParticleSystemToPool@NpFactory@physx@@QEAAXAEAVNpParticleSystem@2@@Z 000000018006a520 f   NpFactory.obj
 0001:000695c0       ?createNpParticleFluid@NpFactory@physx@@QEAAPEAVNpParticleFluid@2@I_N@Z 000000018006a5c0 f   NpFactory.obj
 0001:00069640       ?releaseParticleFluidToPool@NpFactory@physx@@QEAAXAEAVNpParticleFluid@2@@Z 000000018006a640 f   NpFactory.obj
 0001:000696e0       ?addParticleSystem@NpFactory@physx@@QEAAXPEAVPxParticleSystem@2@_N@Z 000000018006a6e0 f   NpFactory.obj
 0001:00069700       ?createParticleSystem@NpFactory@physx@@QEAAPEAVPxParticleSystem@2@I_N@Z 000000018006a700 f   NpFactory.obj
 0001:000697f0       ?addParticleFluid@NpFactory@physx@@QEAAXPEAVPxParticleFluid@2@_N@Z 000000018006a7f0 f   NpFactory.obj
 0001:00069810       ?createParticleFluid@NpFactory@physx@@QEAAPEAVPxParticleFluid@2@I_N@Z 000000018006a810 f   NpFactory.obj
 0001:00069900       ?createNpCloth@NpFactory@physx@@QEAAPEAVNpCloth@2@AEBVPxTransform@2@AEAVPxClothFabric@2@PEBUPxClothParticle@2@V?$PxFlags@W4Enum@PxClothFlag@physx@@G@2@@Z 000000018006a900 f   NpFactory.obj
 0001:000699a0       ?releaseClothToPool@NpFactory@physx@@QEAAXAEAVNpCloth@2@@Z 000000018006a9a0 f   NpFactory.obj
 0001:00069a40       ?addCloth@NpFactory@physx@@QEAAXPEAVPxCloth@2@_N@Z 000000018006aa40 f   NpFactory.obj
 0001:00069a60       ?addClothFabric@NpFactory@physx@@QEAAXPEAVNpClothFabric@2@_N@Z 000000018006aa60 f   NpFactory.obj
 0001:00069b90       ?createClothFabric@NpFactory@physx@@QEAAPEAVPxClothFabric@2@AEAVPxInputStream@2@@Z 000000018006ab90 f   NpFactory.obj
 0001:00069c10       ?createClothFabric@NpFactory@physx@@QEAAPEAVPxClothFabric@2@AEBVPxClothFabricDesc@2@@Z 000000018006ac10 f   NpFactory.obj
 0001:00069c90       ?createNpClothFabric@NpFactory@physx@@QEAAPEAVNpClothFabric@2@XZ 000000018006ac90 f   NpFactory.obj
 0001:00069cf0       ?releaseClothFabricToPool@NpFactory@physx@@QEAAXAEAVNpClothFabric@2@@Z 000000018006acf0 f   NpFactory.obj
 0001:00069d90       ?removeClothFabric@NpFactory@physx@@QEAA_NAEAVPxClothFabric@2@@Z 000000018006ad90 f   NpFactory.obj
 0001:00069e20       ?getNbClothFabrics@NpFactory@physx@@QEBAIXZ 000000018006ae20 f   NpFactory.obj
 0001:00069e30       ?getClothFabrics@NpFactory@physx@@QEBAIPEAPEAVPxClothFabric@2@I@Z 000000018006ae30 f   NpFactory.obj
 0001:00069e90       ?createCloth@NpFactory@physx@@QEAAPEAVPxCloth@2@AEBVPxTransform@2@AEAVPxClothFabric@2@PEBUPxClothParticle@2@V?$PxFlags@W4Enum@PxClothFlag@physx@@G@2@@Z 000000018006ae90 f   NpFactory.obj
 0001:0006a060       ?createMaterial@NpFactory@physx@@QEAAPEAVPxMaterial@2@MMM@Z 000000018006b060 f   NpFactory.obj
 0001:0006a1b0       ?releaseMaterialToPool@NpFactory@physx@@QEAAXAEAVNpMaterial@2@@Z 000000018006b1b0 f   NpFactory.obj
 0001:0006a250       ?onActorRelease@NpFactory@physx@@QEAAXPEAVPxActor@2@@Z 000000018006b250 f   NpFactory.obj
 0001:0006a290       ?onConstraintRelease@NpFactory@physx@@QEAAXPEAVPxConstraint@2@@Z 000000018006b290 f   NpFactory.obj
 0001:0006a2d0       ?onAggregateRelease@NpFactory@physx@@QEAAXPEAVPxAggregate@2@@Z 000000018006b2d0 f   NpFactory.obj
 0001:0006a310       ?onArticulationRelease@NpFactory@physx@@QEAAXPEAVPxArticulation@2@@Z 000000018006b310 f   NpFactory.obj
 0001:0006a350       ?onShapeRelease@NpFactory@physx@@QEAAXPEAVPxShape@2@@Z 000000018006b350 f   NpFactory.obj
 0001:0006a390       ?acquireConnectorArray@NpFactory@physx@@QEAAPEAVNpConnectorArray@2@XZ 000000018006b390 f   NpFactory.obj
 0001:0006a430       ?releaseConnectorArray@NpFactory@physx@@QEAAXPEAVNpConnectorArray@2@@Z 000000018006b430 f   NpFactory.obj
 0001:0006a480       ?setNpFactoryListener@NpFactory@physx@@QEAAXAEAVNpFactoryListener@2@@Z 000000018006b480 f   NpFactory.obj
 0001:0006a4a0       ?NpDestroy@physx@@YAXAEAVBase@Scb@1@@Z 000000018006b4a0 f   NpFactory.obj
 0001:0006bed0       ??$copy@V?$InlineAllocator@$0CAA@VNamedAllocator@shdfnd@physx@@@shdfnd@physx@@@?$Array@PEAXVNamedAllocator@shdfnd@physx@@@shdfnd@physx@@IEAAXAEBV?$Array@PEAXV?$InlineAllocator@$0CAA@VNamedAllocator@shdfnd@physx@@@shdfnd@physx@@@12@@Z 000000018006ced0 f i NpFactory.obj
 0001:0006c670       ??0?$InlineArray@PEAX$0EA@VNamedAllocator@shdfnd@physx@@@shdfnd@physx@@QEAA@AEBVNamedAllocator@12@@Z 000000018006d670 f i NpFactory.obj
 0001:0006c790       ??0?$InlineArray@VNpConnector@physx@@$03VNamedAllocator@shdfnd@2@@shdfnd@physx@@QEAA@AEBVNamedAllocator@12@@Z 000000018006d790 f i NpFactory.obj
 0001:0006c870       ??0NpConnectorArray@physx@@QEAA@XZ 000000018006d870 f i NpFactory.obj
 0001:0006c8f0       ??0NpPtrTableStorageManager@physx@@QEAA@XZ 000000018006d8f0 f i NpFactory.obj
 0001:0006cb30       ??1?$PoolBase@V?$PtrBlock@$03@NpPtrTableStorageManager@physx@@VNamedAllocator@shdfnd@3@@shdfnd@physx@@QEAA@XZ 000000018006db30 f i NpFactory.obj
 0001:0006cc50       ??1?$PoolBase@V?$PtrBlock@$0BA@@NpPtrTableStorageManager@physx@@VNamedAllocator@shdfnd@3@@shdfnd@physx@@QEAA@XZ 000000018006dc50 f i NpFactory.obj
 0001:0006cd70       ??1?$PoolBase@V?$PtrBlock@$0EA@@NpPtrTableStorageManager@physx@@VNamedAllocator@shdfnd@3@@shdfnd@physx@@QEAA@XZ 000000018006dd70 f i NpFactory.obj
 0001:0006ce90       ??1?$PoolBase@VNpAggregate@physx@@VNamedAllocator@shdfnd@2@@shdfnd@physx@@QEAA@XZ 000000018006de90 f i NpFactory.obj
 0001:0006cfb0       ??1?$PoolBase@VNpArticulation@physx@@VNamedAllocator@shdfnd@2@@shdfnd@physx@@QEAA@XZ 000000018006dfb0 f i NpFactory.obj
 0001:0006d0d0       ??1?$PoolBase@VNpArticulationJoint@physx@@VNamedAllocator@shdfnd@2@@shdfnd@physx@@QEAA@XZ 000000018006e0d0 f i NpFactory.obj
 0001:0006d1f0       ??1?$PoolBase@VNpArticulationLink@physx@@VNamedAllocator@shdfnd@2@@shdfnd@physx@@QEAA@XZ 000000018006e1f0 f i NpFactory.obj
 0001:0006d310       ??1?$PoolBase@VNpCloth@physx@@VNamedAllocator@shdfnd@2@@shdfnd@physx@@QEAA@XZ 000000018006e310 f i NpFactory.obj
 0001:0006d430       ??1?$PoolBase@VNpClothFabric@physx@@VNamedAllocator@shdfnd@2@@shdfnd@physx@@QEAA@XZ 000000018006e430 f i NpFactory.obj
 0001:0006d550       ??1?$PoolBase@VNpConnectorArray@physx@@VNamedAllocator@shdfnd@2@@shdfnd@physx@@QEAA@XZ 000000018006e550 f i NpFactory.obj
 0001:0006d670       ??1?$PoolBase@VNpConstraint@physx@@VNamedAllocator@shdfnd@2@@shdfnd@physx@@QEAA@XZ 000000018006e670 f i NpFactory.obj
 0001:0006d790       ??1?$PoolBase@VNpMaterial@physx@@VNamedAllocator@shdfnd@2@@shdfnd@physx@@QEAA@XZ 000000018006e790 f i NpFactory.obj
 0001:0006d8b0       ??1?$PoolBase@VNpParticleFluid@physx@@VNamedAllocator@shdfnd@2@@shdfnd@physx@@QEAA@XZ 000000018006e8b0 f i NpFactory.obj
 0001:0006d9d0       ??1?$PoolBase@VNpParticleSystem@physx@@VNamedAllocator@shdfnd@2@@shdfnd@physx@@QEAA@XZ 000000018006e9d0 f i NpFactory.obj
 0001:0006daf0       ??1?$PoolBase@VNpRigidDynamic@physx@@VNamedAllocator@shdfnd@2@@shdfnd@physx@@QEAA@XZ 000000018006eaf0 f i NpFactory.obj
 0001:0006dc10       ??1?$PoolBase@VNpRigidStatic@physx@@VNamedAllocator@shdfnd@2@@shdfnd@physx@@QEAA@XZ 000000018006ec10 f i NpFactory.obj
 0001:0006dd30       ??1?$PoolBase@VNpShape@physx@@VNamedAllocator@shdfnd@2@@shdfnd@physx@@QEAA@XZ 000000018006ed30 f i NpFactory.obj
 0001:0006de50       ??1NpPtrTableStorageManager@physx@@UEAA@XZ 000000018006ee50 f i NpFactory.obj
 0001:0006dee0       ??1PtrTableStorageManager@Cm@physx@@MEAA@XZ 000000018006eee0 f i NpFactory.obj
 0001:0006def0       ??_ENpFactory@physx@@EEAAPEAXI@Z 000000018006eef0 f i NpFactory.obj
 0001:0006def0       ??_GNpFactory@physx@@EEAAPEAXI@Z 000000018006eef0 f i NpFactory.obj
 0001:0006df60       ??_GNpPtrTableStorageManager@physx@@UEAAPEAXI@Z 000000018006ef60 f i NpFactory.obj
 0001:0006df60       ??_ENpPtrTableStorageManager@physx@@UEAAPEAXI@Z 000000018006ef60 f i NpFactory.obj
 0001:0006dfd0       ??_EPtrTableStorageManager@Cm@physx@@MEAAPEAXI@Z 000000018006efd0 f i NpFactory.obj
 0001:0006dfd0       ??_GPtrTableStorageManager@Cm@physx@@MEAAPEAXI@Z 000000018006efd0 f i NpFactory.obj
 0001:0006e0c0       ?allocate@?$Array@PEAXV?$InlineAllocator@$0CAA@VNamedAllocator@shdfnd@physx@@@shdfnd@physx@@@shdfnd@physx@@IEAAPEAPEAXI@Z 000000018006f0c0 f i NpFactory.obj
 0001:0006e160       ?allocate@?$PoolBase@V?$PtrBlock@$0EA@@NpPtrTableStorageManager@physx@@VNamedAllocator@shdfnd@3@@shdfnd@physx@@QEAAPEAV?$PtrBlock@$0EA@@NpPtrTableStorageManager@3@XZ 000000018006f160 f i NpFactory.obj
 0001:0006e210       ?allocate@?$PoolBase@VNpAggregate@physx@@VNamedAllocator@shdfnd@2@@shdfnd@physx@@QEAAPEAVNpAggregate@3@XZ 000000018006f210 f i NpFactory.obj
 0001:0006e2a0       ?allocate@?$PoolBase@VNpArticulation@physx@@VNamedAllocator@shdfnd@2@@shdfnd@physx@@QEAAPEAVNpArticulation@3@XZ 000000018006f2a0 f i NpFactory.obj
 0001:0006e360       ?allocate@?$PoolBase@VNpArticulationJoint@physx@@VNamedAllocator@shdfnd@2@@shdfnd@physx@@QEAAPEAVNpArticulationJoint@3@XZ 000000018006f360 f i NpFactory.obj
 0001:0006e420       ?allocate@?$PoolBase@VNpArticulationLink@physx@@VNamedAllocator@shdfnd@2@@shdfnd@physx@@QEAAPEAVNpArticulationLink@3@XZ 000000018006f420 f i NpFactory.obj
 0001:0006e4d0       ?allocate@?$PoolBase@VNpCloth@physx@@VNamedAllocator@shdfnd@2@@shdfnd@physx@@QEAAPEAVNpCloth@3@XZ 000000018006f4d0 f i NpFactory.obj
 0001:0006e590       ?allocate@?$PoolBase@VNpClothFabric@physx@@VNamedAllocator@shdfnd@2@@shdfnd@physx@@QEAAPEAVNpClothFabric@3@XZ 000000018006f590 f i NpFactory.obj
 0001:0006e610       ?allocate@?$PoolBase@VNpConstraint@physx@@VNamedAllocator@shdfnd@2@@shdfnd@physx@@QEAAPEAVNpConstraint@3@XZ 000000018006f610 f i NpFactory.obj
 0001:0006e6c0       ?allocate@?$PoolBase@VNpMaterial@physx@@VNamedAllocator@shdfnd@2@@shdfnd@physx@@QEAAPEAVNpMaterial@3@XZ 000000018006f6c0 f i NpFactory.obj
 0001:0006e750       ?allocate@?$PoolBase@VNpParticleFluid@physx@@VNamedAllocator@shdfnd@2@@shdfnd@physx@@QEAAPEAVNpParticleFluid@3@XZ 000000018006f750 f i NpFactory.obj
 0001:0006e800       ?allocate@?$PoolBase@VNpParticleSystem@physx@@VNamedAllocator@shdfnd@2@@shdfnd@physx@@QEAAPEAVNpParticleSystem@3@XZ 000000018006f800 f i NpFactory.obj
 0001:0006e8b0       ?allocate@?$PoolBase@VNpRigidDynamic@physx@@VNamedAllocator@shdfnd@2@@shdfnd@physx@@QEAAPEAVNpRigidDynamic@3@XZ 000000018006f8b0 f i NpFactory.obj
 0001:0006e970       ?allocate@?$PoolBase@VNpRigidStatic@physx@@VNamedAllocator@shdfnd@2@@shdfnd@physx@@QEAAPEAVNpRigidStatic@3@XZ 000000018006f970 f i NpFactory.obj
 0001:0006ea30       ?allocate@?$PoolBase@VNpShape@physx@@VNamedAllocator@shdfnd@2@@shdfnd@physx@@QEAAPEAVNpShape@3@XZ 000000018006fa30 f i NpFactory.obj
 0001:0006eae0       ?allocate@?$ReflectionAllocator@PEAVPxActor@physx@@@shdfnd@physx@@QEAAPEAX_KPEBDH@Z 000000018006fae0 f i NpFactory.obj
 0001:0006eba0       ?allocate@?$ReflectionAllocator@PEAVPxAggregate@physx@@@shdfnd@physx@@QEAAPEAX_KPEBDH@Z 000000018006fba0 f i NpFactory.obj
 0001:0006ec60       ?allocate@?$ReflectionAllocator@PEAVPxArticulation@physx@@@shdfnd@physx@@QEAAPEAX_KPEBDH@Z 000000018006fc60 f i NpFactory.obj
 0001:0006ed20       ?allocate@?$ReflectionAllocator@PEAVPxConstraint@physx@@@shdfnd@physx@@QEAAPEAX_KPEBDH@Z 000000018006fd20 f i NpFactory.obj
 0001:0006ede0       ?allocate@NpPtrTableStorageManager@physx@@UEAAPEAPEAXI@Z 000000018006fde0 f i NpFactory.obj
 0001:0006eec0       ?allocateSlab@?$PoolBase@V?$PtrBlock@$03@NpPtrTableStorageManager@physx@@VNamedAllocator@shdfnd@3@@shdfnd@physx@@IEAAXXZ 000000018006fec0 f i NpFactory.obj
 0001:0006efb0       ?allocateSlab@?$PoolBase@V?$PtrBlock@$0BA@@NpPtrTableStorageManager@physx@@VNamedAllocator@shdfnd@3@@shdfnd@physx@@IEAAXXZ 000000018006ffb0 f i NpFactory.obj
 0001:0006f0a0       ?allocateSlab@?$PoolBase@V?$PtrBlock@$0EA@@NpPtrTableStorageManager@physx@@VNamedAllocator@shdfnd@3@@shdfnd@physx@@IEAAXXZ 00000001800700a0 f i NpFactory.obj
 0001:0006f190       ?allocateSlab@?$PoolBase@VNpAggregate@physx@@VNamedAllocator@shdfnd@2@@shdfnd@physx@@IEAAXXZ 0000000180070190 f i NpFactory.obj
 0001:0006f280       ?allocateSlab@?$PoolBase@VNpArticulation@physx@@VNamedAllocator@shdfnd@2@@shdfnd@physx@@IEAAXXZ 0000000180070280 f i NpFactory.obj
 0001:0006f370       ?allocateSlab@?$PoolBase@VNpArticulationJoint@physx@@VNamedAllocator@shdfnd@2@@shdfnd@physx@@IEAAXXZ 0000000180070370 f i NpFactory.obj
 0001:0006f460       ?allocateSlab@?$PoolBase@VNpArticulationLink@physx@@VNamedAllocator@shdfnd@2@@shdfnd@physx@@IEAAXXZ 0000000180070460 f i NpFactory.obj
 0001:0006f550       ?allocateSlab@?$PoolBase@VNpCloth@physx@@VNamedAllocator@shdfnd@2@@shdfnd@physx@@IEAAXXZ 0000000180070550 f i NpFactory.obj
 0001:0006f640       ?allocateSlab@?$PoolBase@VNpClothFabric@physx@@VNamedAllocator@shdfnd@2@@shdfnd@physx@@IEAAXXZ 0000000180070640 f i NpFactory.obj
 0001:0006f730       ?allocateSlab@?$PoolBase@VNpConnectorArray@physx@@VNamedAllocator@shdfnd@2@@shdfnd@physx@@IEAAXXZ 0000000180070730 f i NpFactory.obj
 0001:0006f820       ?allocateSlab@?$PoolBase@VNpConstraint@physx@@VNamedAllocator@shdfnd@2@@shdfnd@physx@@IEAAXXZ 0000000180070820 f i NpFactory.obj
 0001:0006f910       ?allocateSlab@?$PoolBase@VNpMaterial@physx@@VNamedAllocator@shdfnd@2@@shdfnd@physx@@IEAAXXZ 0000000180070910 f i NpFactory.obj
 0001:0006fa00       ?allocateSlab@?$PoolBase@VNpParticleFluid@physx@@VNamedAllocator@shdfnd@2@@shdfnd@physx@@IEAAXXZ 0000000180070a00 f i NpFactory.obj
 0001:0006faf0       ?allocateSlab@?$PoolBase@VNpParticleSystem@physx@@VNamedAllocator@shdfnd@2@@shdfnd@physx@@IEAAXXZ 0000000180070af0 f i NpFactory.obj
 0001:0006fbe0       ?allocateSlab@?$PoolBase@VNpRigidDynamic@physx@@VNamedAllocator@shdfnd@2@@shdfnd@physx@@IEAAXXZ 0000000180070be0 f i NpFactory.obj
 0001:0006fcd0       ?allocateSlab@?$PoolBase@VNpRigidStatic@physx@@VNamedAllocator@shdfnd@2@@shdfnd@physx@@IEAAXXZ 0000000180070cd0 f i NpFactory.obj
 0001:0006fdc0       ?allocateSlab@?$PoolBase@VNpShape@physx@@VNamedAllocator@shdfnd@2@@shdfnd@physx@@IEAAXXZ 0000000180070dc0 f i NpFactory.obj
 0001:0006feb0       ?canReuse@NpPtrTableStorageManager@physx@@UEAA_NII@Z 0000000180070eb0 f i NpFactory.obj
 0001:0006ff20       ?construct@?$PoolBase@V?$PtrBlock@$03@NpPtrTableStorageManager@physx@@VNamedAllocator@shdfnd@3@@shdfnd@physx@@QEAAPEAV?$PtrBlock@$03@NpPtrTableStorageManager@3@XZ 0000000180070f20 f i NpFactory.obj
 0001:0006ffb0       ?construct@?$PoolBase@V?$PtrBlock@$0BA@@NpPtrTableStorageManager@physx@@VNamedAllocator@shdfnd@3@@shdfnd@physx@@QEAAPEAV?$PtrBlock@$0BA@@NpPtrTableStorageManager@3@XZ 0000000180070fb0 f i NpFactory.obj
 0001:00070050       ?create@?$HashBase@PEAVPxActor@physx@@PEAV12@U?$Hash@PEAVPxActor@physx@@@shdfnd@2@UGetKey@?$HashSetBase@PEAVPxActor@physx@@U?$Hash@PEAVPxActor@physx@@@shdfnd@2@VAllocator@42@$0A@@internal@42@VAllocator@42@$0A@@internal@shdfnd@physx@@QEAAPEAPEAVPxActor@4@AEBQEAV54@AEA_N@Z 0000000180071050 f i NpFactory.obj
 0001:00070240       ?create@?$HashBase@PEAVPxAggregate@physx@@PEAV12@U?$Hash@PEAVPxAggregate@physx@@@shdfnd@2@UGetKey@?$HashSetBase@PEAVPxAggregate@physx@@U?$Hash@PEAVPxAggregate@physx@@@shdfnd@2@VAllocator@42@$0A@@internal@42@VAllocator@42@$0A@@internal@shdfnd@physx@@QEAAPEAPEAVPxAggregate@4@AEBQEAV54@AEA_N@Z 0000000180071240 f i NpFactory.obj
 0001:00070430       ?create@?$HashBase@PEAVPxArticulation@physx@@PEAV12@U?$Hash@PEAVPxArticulation@physx@@@shdfnd@2@UGetKey@?$HashSetBase@PEAVPxArticulation@physx@@U?$Hash@PEAVPxArticulation@physx@@@shdfnd@2@VAllocator@42@$0A@@internal@42@VAllocator@42@$0A@@internal@shdfnd@physx@@QEAAPEAPEAVPxArticulation@4@AEBQEAV54@AEA_N@Z 0000000180071430 f i NpFactory.obj
 0001:00070620       ?create@?$HashBase@PEAVPxConstraint@physx@@PEAV12@U?$Hash@PEAVPxConstraint@physx@@@shdfnd@2@UGetKey@?$HashSetBase@PEAVPxConstraint@physx@@U?$Hash@PEAVPxConstraint@physx@@@shdfnd@2@VAllocator@42@$0A@@internal@42@VAllocator@42@$0A@@internal@shdfnd@physx@@QEAAPEAPEAVPxConstraint@4@AEBQEAV54@AEA_N@Z 0000000180071620 f i NpFactory.obj
 0001:00070810       ?create@?$HashBase@PEAVPxShape@physx@@PEAV12@U?$Hash@PEAVPxShape@physx@@@shdfnd@2@UGetKey@?$HashSetBase@PEAVPxShape@physx@@U?$Hash@PEAVPxShape@physx@@@shdfnd@2@VAllocator@42@$00@internal@42@VAllocator@42@$00@internal@shdfnd@physx@@QEAAPEAPEAVPxShape@4@AEBQEAV54@AEA_N@Z 0000000180071810 f i NpFactory.obj
 0001:00070a10       ?deallocate@NpPtrTableStorageManager@physx@@UEAAXPEAPEAXI@Z 0000000180071a10 f i NpFactory.obj
 0001:00070b60       ?destroy@?$PoolBase@V?$PtrBlock@$0EA@@NpPtrTableStorageManager@physx@@VNamedAllocator@shdfnd@3@@shdfnd@physx@@QEAAXQEAV?$PtrBlock@$0EA@@NpPtrTableStorageManager@3@@Z 0000000180071b60 f i NpFactory.obj
 0001:00070bd0       ?destroy@?$PoolBase@VNpConnectorArray@physx@@VNamedAllocator@shdfnd@2@@shdfnd@physx@@QEAAXQEAVNpConnectorArray@3@@Z 0000000180071bd0 f i NpFactory.obj
 0001:00070c90       ?disposeElements@?$PoolBase@V?$PtrBlock@$03@NpPtrTableStorageManager@physx@@VNamedAllocator@shdfnd@3@@shdfnd@physx@@IEAAXXZ 0000000180071c90 f i NpFactory.obj
 0001:00070e70       ?disposeElements@?$PoolBase@V?$PtrBlock@$0BA@@NpPtrTableStorageManager@physx@@VNamedAllocator@shdfnd@3@@shdfnd@physx@@IEAAXXZ 0000000180071e70 f i NpFactory.obj
 0001:00071050       ?disposeElements@?$PoolBase@V?$PtrBlock@$0EA@@NpPtrTableStorageManager@physx@@VNamedAllocator@shdfnd@3@@shdfnd@physx@@IEAAXXZ 0000000180072050 f i NpFactory.obj
 0001:00071230       ?disposeElements@?$PoolBase@VNpAggregate@physx@@VNamedAllocator@shdfnd@2@@shdfnd@physx@@IEAAXXZ 0000000180072230 f i NpFactory.obj
 0001:00071470       ?disposeElements@?$PoolBase@VNpArticulation@physx@@VNamedAllocator@shdfnd@2@@shdfnd@physx@@IEAAXXZ 0000000180072470 f i NpFactory.obj
 0001:000716b0       ?disposeElements@?$PoolBase@VNpArticulationJoint@physx@@VNamedAllocator@shdfnd@2@@shdfnd@physx@@IEAAXXZ 00000001800726b0 f i NpFactory.obj
 0001:000718f0       ?disposeElements@?$PoolBase@VNpArticulationLink@physx@@VNamedAllocator@shdfnd@2@@shdfnd@physx@@IEAAXXZ 00000001800728f0 f i NpFactory.obj
 0001:00071b30       ?disposeElements@?$PoolBase@VNpCloth@physx@@VNamedAllocator@shdfnd@2@@shdfnd@physx@@IEAAXXZ 0000000180072b30 f i NpFactory.obj
 0001:00071d70       ?disposeElements@?$PoolBase@VNpClothFabric@physx@@VNamedAllocator@shdfnd@2@@shdfnd@physx@@IEAAXXZ 0000000180072d70 f i NpFactory.obj
 0001:00071fb0       ?disposeElements@?$PoolBase@VNpConnectorArray@physx@@VNamedAllocator@shdfnd@2@@shdfnd@physx@@IEAAXXZ 0000000180072fb0 f i NpFactory.obj
 0001:00072210       ?disposeElements@?$PoolBase@VNpConstraint@physx@@VNamedAllocator@shdfnd@2@@shdfnd@physx@@IEAAXXZ 0000000180073210 f i NpFactory.obj
 0001:00072450       ?disposeElements@?$PoolBase@VNpMaterial@physx@@VNamedAllocator@shdfnd@2@@shdfnd@physx@@IEAAXXZ 0000000180073450 f i NpFactory.obj
 0001:00072690       ?disposeElements@?$PoolBase@VNpParticleFluid@physx@@VNamedAllocator@shdfnd@2@@shdfnd@physx@@IEAAXXZ 0000000180073690 f i NpFactory.obj
 0001:000728d0       ?disposeElements@?$PoolBase@VNpParticleSystem@physx@@VNamedAllocator@shdfnd@2@@shdfnd@physx@@IEAAXXZ 00000001800738d0 f i NpFactory.obj
 0001:00072b10       ?disposeElements@?$PoolBase@VNpRigidDynamic@physx@@VNamedAllocator@shdfnd@2@@shdfnd@physx@@IEAAXXZ 0000000180073b10 f i NpFactory.obj
 0001:00072d50       ?disposeElements@?$PoolBase@VNpRigidStatic@physx@@VNamedAllocator@shdfnd@2@@shdfnd@physx@@IEAAXXZ 0000000180073d50 f i NpFactory.obj
 0001:00072f90       ?disposeElements@?$PoolBase@VNpShape@physx@@VNamedAllocator@shdfnd@2@@shdfnd@physx@@IEAAXXZ 0000000180073f90 f i NpFactory.obj
 0001:000731d0       ?erase@?$HashBase@PEAVPxActor@physx@@PEAV12@U?$Hash@PEAVPxActor@physx@@@shdfnd@2@UGetKey@?$HashSetBase@PEAVPxActor@physx@@U?$Hash@PEAVPxActor@physx@@@shdfnd@2@VAllocator@42@$0A@@internal@42@VAllocator@42@$0A@@internal@shdfnd@physx@@QEAA_NAEBQEAVPxActor@4@@Z 00000001800741d0 f i NpFactory.obj
 0001:000732e0       ?erase@?$HashBase@PEAVPxAggregate@physx@@PEAV12@U?$Hash@PEAVPxAggregate@physx@@@shdfnd@2@UGetKey@?$HashSetBase@PEAVPxAggregate@physx@@U?$Hash@PEAVPxAggregate@physx@@@shdfnd@2@VAllocator@42@$0A@@internal@42@VAllocator@42@$0A@@internal@shdfnd@physx@@QEAA_NAEBQEAVPxAggregate@4@@Z 00000001800742e0 f i NpFactory.obj
 0001:000733f0       ?erase@?$HashBase@PEAVPxArticulation@physx@@PEAV12@U?$Hash@PEAVPxArticulation@physx@@@shdfnd@2@UGetKey@?$HashSetBase@PEAVPxArticulation@physx@@U?$Hash@PEAVPxArticulation@physx@@@shdfnd@2@VAllocator@42@$0A@@internal@42@VAllocator@42@$0A@@internal@shdfnd@physx@@QEAA_NAEBQEAVPxArticulation@4@@Z 00000001800743f0 f i NpFactory.obj
 0001:00073500       ?erase@?$HashBase@PEAVPxConstraint@physx@@PEAV12@U?$Hash@PEAVPxConstraint@physx@@@shdfnd@2@UGetKey@?$HashSetBase@PEAVPxConstraint@physx@@U?$Hash@PEAVPxConstraint@physx@@@shdfnd@2@VAllocator@42@$0A@@internal@42@VAllocator@42@$0A@@internal@shdfnd@physx@@QEAA_NAEBQEAVPxConstraint@4@@Z 0000000180074500 f i NpFactory.obj
 0001:00073610       ?erase@?$HashBase@PEAVPxShape@physx@@PEAV12@U?$Hash@PEAVPxShape@physx@@@shdfnd@2@UGetKey@?$HashSetBase@PEAVPxShape@physx@@U?$Hash@PEAVPxShape@physx@@@shdfnd@2@VAllocator@42@$00@internal@42@VAllocator@42@$00@internal@shdfnd@physx@@QEAA_NAEBQEAVPxShape@4@@Z 0000000180074610 f i NpFactory.obj
 0001:00073730       ?freeListAdd@?$HashBase@PEAVPxActor@physx@@PEAV12@U?$Hash@PEAVPxActor@physx@@@shdfnd@2@UGetKey@?$HashSetBase@PEAVPxActor@physx@@U?$Hash@PEAVPxActor@physx@@@shdfnd@2@VAllocator@42@$0A@@internal@42@VAllocator@42@$0A@@internal@shdfnd@physx@@AEAAXII@Z 0000000180074730 f i NpFactory.obj
 0001:00073870       ?freeListAdd@?$HashBase@PEAVPxAggregate@physx@@PEAV12@U?$Hash@PEAVPxAggregate@physx@@@shdfnd@2@UGetKey@?$HashSetBase@PEAVPxAggregate@physx@@U?$Hash@PEAVPxAggregate@physx@@@shdfnd@2@VAllocator@42@$0A@@internal@42@VAllocator@42@$0A@@internal@shdfnd@physx@@AEAAXII@Z 0000000180074870 f i NpFactory.obj
 0001:000739b0       ?freeListAdd@?$HashBase@PEAVPxArticulation@physx@@PEAV12@U?$Hash@PEAVPxArticulation@physx@@@shdfnd@2@UGetKey@?$HashSetBase@PEAVPxArticulation@physx@@U?$Hash@PEAVPxArticulation@physx@@@shdfnd@2@VAllocator@42@$0A@@internal@42@VAllocator@42@$0A@@internal@shdfnd@physx@@AEAAXII@Z 00000001800749b0 f i NpFactory.obj
 0001:00073af0       ?freeListAdd@?$HashBase@PEAVPxConstraint@physx@@PEAV12@U?$Hash@PEAVPxConstraint@physx@@@shdfnd@2@UGetKey@?$HashSetBase@PEAVPxConstraint@physx@@U?$Hash@PEAVPxConstraint@physx@@@shdfnd@2@VAllocator@42@$0A@@internal@42@VAllocator@42@$0A@@internal@shdfnd@physx@@AEAAXII@Z 0000000180074af0 f i NpFactory.obj
 0001:00073c30       ?getMaterial@Shape@Scb@physx@@QEBAPEAVPxMaterial@3@I@Z 0000000180074c30 f i NpFactory.obj
 0001:00073cf0       ?growAndPushBack@?$Array@PEAVNpClothFabric@physx@@VNamedAllocator@shdfnd@2@@shdfnd@physx@@IEAAAEAPEAVNpClothFabric@3@AEBQEAV43@@Z 0000000180074cf0 f i NpFactory.obj
 0001:00073e10       ?growAndPushBack@?$Array@PEAVPxActor@physx@@V?$ReflectionAllocator@PEAVPxActor@physx@@@shdfnd@2@@shdfnd@physx@@IEAAAEAPEAVPxActor@3@AEBQEAV43@@Z 0000000180074e10 f i NpFactory.obj
 0001:00073f50       ?growAndPushBack@?$Array@PEAVPxAggregate@physx@@V?$ReflectionAllocator@PEAVPxAggregate@physx@@@shdfnd@2@@shdfnd@physx@@IEAAAEAPEAVPxAggregate@3@AEBQEAV43@@Z 0000000180074f50 f i NpFactory.obj
 0001:00074090       ?growAndPushBack@?$Array@PEAVPxArticulation@physx@@V?$ReflectionAllocator@PEAVPxArticulation@physx@@@shdfnd@2@@shdfnd@physx@@IEAAAEAPEAVPxArticulation@3@AEBQEAV43@@Z 0000000180075090 f i NpFactory.obj
 0001:000741d0       ?growAndPushBack@?$Array@PEAVPxConstraint@physx@@V?$ReflectionAllocator@PEAVPxConstraint@physx@@@shdfnd@2@@shdfnd@physx@@IEAAAEAPEAVPxConstraint@3@AEBQEAV43@@Z 00000001800751d0 f i NpFactory.obj
 0001:00074310       ?growAndPushBack@?$Array@PEAXV?$InlineAllocator@$0CAA@VNamedAllocator@shdfnd@physx@@@shdfnd@physx@@@shdfnd@physx@@IEAAAEAPEAXAEBQEAX@Z 0000000180075310 f i NpFactory.obj
 0001:00074430       ?isValid@PxBoxGeometry@physx@@QEBA_NXZ 0000000180075430 f i NpFactory.obj
 0001:000744c0       ?isValid@PxCapsuleGeometry@physx@@QEBA_NXZ 00000001800754c0 f i NpFactory.obj
 0001:00074530       ?isValid@PxConvexMeshGeometry@physx@@QEBA_NXZ 0000000180075530 f i NpFactory.obj
 0001:000745e0       ?isValid@PxHeightFieldGeometry@physx@@QEBA_NXZ 00000001800755e0 f i NpFactory.obj
 0001:00074690       ?isValid@PxSphereGeometry@physx@@QEBA_NXZ 0000000180075690 f i NpFactory.obj
 0001:000746e0       ?isValid@PxTriangleMeshGeometry@physx@@QEBA_NXZ 00000001800756e0 f i NpFactory.obj
 0001:00074790       ?recreate@?$Array@GV?$InlineAllocator@$07VNamedAllocator@shdfnd@physx@@@shdfnd@physx@@@shdfnd@physx@@IEAAXI@Z 0000000180075790 f i NpFactory.obj
 0001:000748a0       ?recreate@?$Array@PEAVNpClothFabric@physx@@VNamedAllocator@shdfnd@2@@shdfnd@physx@@IEAAXI@Z 00000001800758a0 f i NpFactory.obj
 0001:00074980       ?recreate@?$Array@PEAVPxActor@physx@@V?$ReflectionAllocator@PEAVPxActor@physx@@@shdfnd@2@@shdfnd@physx@@IEAAXI@Z 0000000180075980 f i NpFactory.obj
 0001:00074a70       ?recreate@?$Array@PEAVPxAggregate@physx@@V?$ReflectionAllocator@PEAVPxAggregate@physx@@@shdfnd@2@@shdfnd@physx@@IEAAXI@Z 0000000180075a70 f i NpFactory.obj
 0001:00074b60       ?recreate@?$Array@PEAVPxArticulation@physx@@V?$ReflectionAllocator@PEAVPxArticulation@physx@@@shdfnd@2@@shdfnd@physx@@IEAAXI@Z 0000000180075b60 f i NpFactory.obj
 0001:00074c50       ?recreate@?$Array@PEAVPxConstraint@physx@@V?$ReflectionAllocator@PEAVPxConstraint@physx@@@shdfnd@2@@shdfnd@physx@@IEAAXI@Z 0000000180075c50 f i NpFactory.obj
 0001:00074d40       ?releaseEmptySlabs@?$PoolBase@V?$PtrBlock@$03@NpPtrTableStorageManager@physx@@VNamedAllocator@shdfnd@3@@shdfnd@physx@@IEAAXXZ 0000000180075d40 f i NpFactory.obj
 0001:000750c0       ?releaseEmptySlabs@?$PoolBase@V?$PtrBlock@$0BA@@NpPtrTableStorageManager@physx@@VNamedAllocator@shdfnd@3@@shdfnd@physx@@IEAAXXZ 00000001800760c0 f i NpFactory.obj
 0001:00075440       ?releaseEmptySlabs@?$PoolBase@V?$PtrBlock@$0EA@@NpPtrTableStorageManager@physx@@VNamedAllocator@shdfnd@3@@shdfnd@physx@@IEAAXXZ 0000000180076440 f i NpFactory.obj
 0001:000757c0       ?releaseEmptySlabs@?$PoolBase@VNpAggregate@physx@@VNamedAllocator@shdfnd@2@@shdfnd@physx@@IEAAXXZ 00000001800767c0 f i NpFactory.obj
 0001:00075b40       ?releaseEmptySlabs@?$PoolBase@VNpArticulation@physx@@VNamedAllocator@shdfnd@2@@shdfnd@physx@@IEAAXXZ 0000000180076b40 f i NpFactory.obj
 0001:00075ec0       ?releaseEmptySlabs@?$PoolBase@VNpArticulationJoint@physx@@VNamedAllocator@shdfnd@2@@shdfnd@physx@@IEAAXXZ 0000000180076ec0 f i NpFactory.obj
 0001:00076240       ?releaseEmptySlabs@?$PoolBase@VNpArticulationLink@physx@@VNamedAllocator@shdfnd@2@@shdfnd@physx@@IEAAXXZ 0000000180077240 f i NpFactory.obj
 0001:000765c0       ?releaseEmptySlabs@?$PoolBase@VNpCloth@physx@@VNamedAllocator@shdfnd@2@@shdfnd@physx@@IEAAXXZ 00000001800775c0 f i NpFactory.obj
 0001:00076940       ?releaseEmptySlabs@?$PoolBase@VNpClothFabric@physx@@VNamedAllocator@shdfnd@2@@shdfnd@physx@@IEAAXXZ 0000000180077940 f i NpFactory.obj
 0001:00076cc0       ?releaseEmptySlabs@?$PoolBase@VNpConnectorArray@physx@@VNamedAllocator@shdfnd@2@@shdfnd@physx@@IEAAXXZ 0000000180077cc0 f i NpFactory.obj
 0001:00077040       ?releaseEmptySlabs@?$PoolBase@VNpConstraint@physx@@VNamedAllocator@shdfnd@2@@shdfnd@physx@@IEAAXXZ 0000000180078040 f i NpFactory.obj
 0001:000773c0       ?releaseEmptySlabs@?$PoolBase@VNpMaterial@physx@@VNamedAllocator@shdfnd@2@@shdfnd@physx@@IEAAXXZ 00000001800783c0 f i NpFactory.obj
 0001:00077740       ?releaseEmptySlabs@?$PoolBase@VNpParticleFluid@physx@@VNamedAllocator@shdfnd@2@@shdfnd@physx@@IEAAXXZ 0000000180078740 f i NpFactory.obj
 0001:00077ac0       ?releaseEmptySlabs@?$PoolBase@VNpParticleSystem@physx@@VNamedAllocator@shdfnd@2@@shdfnd@physx@@IEAAXXZ 0000000180078ac0 f i NpFactory.obj
 0001:00077e40       ?releaseEmptySlabs@?$PoolBase@VNpRigidDynamic@physx@@VNamedAllocator@shdfnd@2@@shdfnd@physx@@IEAAXXZ 0000000180078e40 f i NpFactory.obj
 0001:000781c0       ?releaseEmptySlabs@?$PoolBase@VNpRigidStatic@physx@@VNamedAllocator@shdfnd@2@@shdfnd@physx@@IEAAXXZ 00000001800791c0 f i NpFactory.obj
 0001:00078540       ?releaseEmptySlabs@?$PoolBase@VNpShape@physx@@VNamedAllocator@shdfnd@2@@shdfnd@physx@@IEAAXXZ 0000000180079540 f i NpFactory.obj
 0001:000788c0       ?replaceWithLast@?$HashBase@PEAVPxShape@physx@@PEAV12@U?$Hash@PEAVPxShape@physx@@@shdfnd@2@UGetKey@?$HashSetBase@PEAVPxShape@physx@@U?$Hash@PEAVPxShape@physx@@@shdfnd@2@VAllocator@42@$00@internal@42@VAllocator@42@$00@internal@shdfnd@physx@@AEAAXI@Z 00000001800798c0 f i NpFactory.obj
 0001:000789c0       ?reserveInternal@?$HashBase@PEAVPxActor@physx@@PEAV12@U?$Hash@PEAVPxActor@physx@@@shdfnd@2@UGetKey@?$HashSetBase@PEAVPxActor@physx@@U?$Hash@PEAVPxActor@physx@@@shdfnd@2@VAllocator@42@$0A@@internal@42@VAllocator@42@$0A@@internal@shdfnd@physx@@AEAAXI@Z 00000001800799c0 f i NpFactory.obj
 0001:00078d20       ?reserveInternal@?$HashBase@PEAVPxAggregate@physx@@PEAV12@U?$Hash@PEAVPxAggregate@physx@@@shdfnd@2@UGetKey@?$HashSetBase@PEAVPxAggregate@physx@@U?$Hash@PEAVPxAggregate@physx@@@shdfnd@2@VAllocator@42@$0A@@internal@42@VAllocator@42@$0A@@internal@shdfnd@physx@@AEAAXI@Z 0000000180079d20 f i NpFactory.obj
 0001:00079080       ?reserveInternal@?$HashBase@PEAVPxArticulation@physx@@PEAV12@U?$Hash@PEAVPxArticulation@physx@@@shdfnd@2@UGetKey@?$HashSetBase@PEAVPxArticulation@physx@@U?$Hash@PEAVPxArticulation@physx@@@shdfnd@2@VAllocator@42@$0A@@internal@42@VAllocator@42@$0A@@internal@shdfnd@physx@@AEAAXI@Z 000000018007a080 f i NpFactory.obj
 0001:000793e0       ?reserveInternal@?$HashBase@PEAVPxConstraint@physx@@PEAV12@U?$Hash@PEAVPxConstraint@physx@@@shdfnd@2@UGetKey@?$HashSetBase@PEAVPxConstraint@physx@@U?$Hash@PEAVPxConstraint@physx@@@shdfnd@2@VAllocator@42@$0A@@internal@42@VAllocator@42@$0A@@internal@shdfnd@physx@@AEAAXI@Z 000000018007a3e0 f i NpFactory.obj
 0001:00079740       ?reserveInternal@?$HashBase@PEAVPxShape@physx@@PEAV12@U?$Hash@PEAVPxShape@physx@@@shdfnd@2@UGetKey@?$HashSetBase@PEAVPxShape@physx@@U?$Hash@PEAVPxShape@physx@@@shdfnd@2@VAllocator@42@$00@internal@42@VAllocator@42@$00@internal@shdfnd@physx@@AEAAXI@Z 000000018007a740 f i NpFactory.obj
 0001:00079960       ?resize@?$Array@GV?$InlineAllocator@$07VNamedAllocator@shdfnd@physx@@@shdfnd@physx@@@shdfnd@physx@@QEAAXIAEBG@Z 000000018007a960 f i NpFactory.obj
 0001:000799e0       ?onRefCountZero@NpMaterial@physx@@UEAAXXZ 000000018007a9e0 f   NpMaterial.obj
 0001:00079a40       ?resolveReferences@NpMaterial@physx@@UEAAXAEAVPxDeserializationContext@2@@Z 000000018007aa40 f   NpMaterial.obj
 0001:00079a60       ?createObject@NpMaterial@physx@@SAPEAV12@AEAPEAEAEAVPxDeserializationContext@2@@Z 000000018007aa60 f   NpMaterial.obj
 0001:00079af0       ??0NpMaterial@physx@@QEAA@AEBVMaterialCore@Sc@1@@Z 000000018007aaf0 f   NpMaterial.obj
 0001:00079b90       ??1NpMaterial@physx@@UEAA@XZ 000000018007ab90 f   NpMaterial.obj
 0001:00079bf0       ?release@NpMaterial@physx@@UEAAXXZ 000000018007abf0 f   NpMaterial.obj
 0001:00079c50       ?getReferenceCount@NpMaterial@physx@@UEBAIXZ 000000018007ac50 f   NpMaterial.obj
 0001:00079c60       ?setDynamicFriction@NpMaterial@physx@@UEAAXM@Z 000000018007ac60 f   NpMaterial.obj
 0001:00079d10       ?getDynamicFriction@NpMaterial@physx@@UEBAMXZ 000000018007ad10 f   NpMaterial.obj
 0001:00079d20       ?setStaticFriction@NpMaterial@physx@@UEAAXM@Z 000000018007ad20 f   NpMaterial.obj
 0001:00079dd0       ?getStaticFriction@NpMaterial@physx@@UEBAMXZ 000000018007add0 f   NpMaterial.obj
 0001:00079de0       ?setRestitution@NpMaterial@physx@@UEAAXM@Z 000000018007ade0 f   NpMaterial.obj
 0001:00079f20       ?getRestitution@NpMaterial@physx@@UEBAMXZ 000000018007af20 f   NpMaterial.obj
 0001:00079f30       ?setFlag@NpMaterial@physx@@UEAAXW4Enum@PxMaterialFlag@2@_N@Z 000000018007af30 f   NpMaterial.obj
 0001:00079f70       ?setFlags@NpMaterial@physx@@UEAAXV?$PxFlags@W4Enum@PxMaterialFlag@physx@@G@2@@Z 000000018007af70 f   NpMaterial.obj
 0001:00079f90       ?getFlags@NpMaterial@physx@@UEBA?AV?$PxFlags@W4Enum@PxMaterialFlag@physx@@G@2@XZ 000000018007af90 f   NpMaterial.obj
 0001:00079fb0       ?setFrictionCombineMode@NpMaterial@physx@@UEAAXW4Enum@PxCombineMode@2@@Z 000000018007afb0 f   NpMaterial.obj
 0001:00079fd0       ?getFrictionCombineMode@NpMaterial@physx@@UEBA?AW4Enum@PxCombineMode@2@XZ 000000018007afd0 f   NpMaterial.obj
 0001:00079fe0       ?setRestitutionCombineMode@NpMaterial@physx@@UEAAXW4Enum@PxCombineMode@2@@Z 000000018007afe0 f   NpMaterial.obj
 0001:0007a000       ?getRestitutionCombineMode@NpMaterial@physx@@UEBA?AW4Enum@PxCombineMode@2@XZ 000000018007b000 f   NpMaterial.obj
 0001:0007a1a0       ??1PxMaterial@physx@@MEAA@XZ 000000018007b1a0 f i NpMaterial.obj
 0001:0007a1b0       ??_ENpMaterial@physx@@WBI@EAAPEAXI@Z 000000018007b1b0 f i NpMaterial.obj
 0001:0007a1c0       ??_ENpMaterial@physx@@UEAAPEAXI@Z 000000018007b1c0 f i NpMaterial.obj
 0001:0007a1c0       ??_GNpMaterial@physx@@UEAAPEAXI@Z 000000018007b1c0 f i NpMaterial.obj
 0001:0007a280       ??_EPxMaterial@physx@@MEAAPEAXI@Z 000000018007b280 f i NpMaterial.obj
 0001:0007a280       ??_GPxMaterial@physx@@MEAAPEAXI@Z 000000018007b280 f i NpMaterial.obj
 0001:0007a2c0       ?getConcreteTypeName@PxMaterial@physx@@UEBAPEBDXZ 000000018007b2c0 f i NpMaterial.obj
 0001:0007a2d0       ?isKindOf@PxMaterial@physx@@MEBA_NPEBD@Z 000000018007b2d0 f i NpMaterial.obj
 0001:0007a330       ?requires@NpMaterial@physx@@UEAAXAEAVPxProcessPxBaseCallback@2@@Z 000000018007b330 f i NpMaterial.obj
 0001:0007a340       ?getBinaryMetaData_PxBase@physx@@YAXAEAVPxOutputStream@1@@Z 000000018007b340 f   NpMetaData.obj
 0001:0007a490       ?getBinaryMetaData@RefCountable@Cm@physx@@SAXAEAVPxOutputStream@3@@Z 000000018007b490 f   NpMetaData.obj
 0001:0007a530       ?getBinaryMetaData@NpMaterial@physx@@SAXAEAVPxOutputStream@2@@Z 000000018007b530 f   NpMetaData.obj
 0001:0007a690       PxGetPhysicsBinaryMetaData 000000018007b690 f   NpMetaData.obj
 0001:0007a840       ?getBinaryMetaData@NpShape@physx@@SAXAEAVPxOutputStream@2@@Z 000000018007b840 f   NpMetaData.obj
 0001:0007aae0       ?getBinaryMetaData@NpShapeManager@physx@@SAXAEAVPxOutputStream@2@@Z 000000018007bae0 f   NpMetaData.obj
 0001:0007abc0       ?getBinaryMetaData@NpConstraint@physx@@SAXAEAVPxOutputStream@2@@Z 000000018007bbc0 f   NpMetaData.obj
 0001:0007ada0       ?getBinaryMetaData@NpConnector@physx@@SAXAEAVPxOutputStream@2@@Z 000000018007bda0 f   NpMetaData.obj
 0001:0007aed0       ?getBinaryMetaData@NpConnectorArray@physx@@SAXAEAVPxOutputStream@2@@Z 000000018007bed0 f   NpMetaData.obj
 0001:0007b100       ?getBinaryMetaData@NpActor@physx@@SAXAEAVPxOutputStream@2@@Z 000000018007c100 f   NpMetaData.obj
 0001:0007b1f0       ?getBinaryMetaData@NpRigidStatic@physx@@SAXAEAVPxOutputStream@2@@Z 000000018007c1f0 f   NpMetaData.obj
 0001:0007b450       ?getBinaryMetaData@NpRigidDynamic@physx@@SAXAEAVPxOutputStream@2@@Z 000000018007c450 f   NpMetaData.obj
 0001:0007b6b0       ?getBinaryMetaData@NpArticulationLinkArray@physx@@SAXAEAVPxOutputStream@2@@Z 000000018007c6b0 f   NpMetaData.obj
 0001:0007b8e0       ?getBinaryMetaData@NpArticulation@physx@@SAXAEAVPxOutputStream@2@@Z 000000018007c8e0 f   NpMetaData.obj
 0001:0007bb00       ?getBinaryMetaData@NpArticulationLink@physx@@SAXAEAVPxOutputStream@2@@Z 000000018007cb00 f   NpMetaData.obj
 0001:0007be60       ?getBinaryMetaData@NpArticulationJoint@physx@@SAXAEAVPxOutputStream@2@@Z 000000018007ce60 f   NpMetaData.obj
 0001:0007bfc0       ?getBinaryMetaData@NpClothFabric@physx@@SAXAEAVPxOutputStream@2@@Z 000000018007cfc0 f   NpMetaData.obj
 0001:0007c0e0       ?getBinaryMetaData@NpCloth@physx@@SAXAEAVPxOutputStream@2@@Z 000000018007d0e0 f   NpMetaData.obj
 0001:0007c2d0       ?getBinaryMetaData@NpAggregate@physx@@SAXAEAVPxOutputStream@2@@Z 000000018007d2d0 f   NpMetaData.obj
 0001:0007c480       ?getBinaryMetaData@NpParticleSystem@physx@@SAXAEAVPxOutputStream@2@@Z 000000018007d480 f   NpMetaData.obj
 0001:0007c5e0       ?getBinaryMetaData@NpParticleFluid@physx@@SAXAEAVPxOutputStream@2@@Z 000000018007d5e0 f   NpMetaData.obj
 0001:0007e760       ??_EPxProfileNameProvider@physx@@MEAAPEAXI@Z 000000018007f760 f i NpPhysics.obj
 0001:0007e760       ??_GPxProfileNameProvider@physx@@MEAAPEAXI@Z 000000018007f760 f i NpPhysics.obj
 0001:0007e7a0       ??_ECmEventNameProvider@Cm@physx@@UEAAPEAXI@Z 000000018007f7a0 f i NpPhysics.obj
 0001:0007e7a0       ??_GCmEventNameProvider@Cm@physx@@UEAAPEAXI@Z 000000018007f7a0 f i NpPhysics.obj
 0001:0007e7e0       PxGetValue                 000000018007f7e0 f   NpPhysics.obj
 0001:0007e830       PxRegisterArticulations    000000018007f830 f   NpPhysics.obj
 0001:0007e850       PxRegisterHeightFields     000000018007f850 f   NpPhysics.obj
 0001:0007e8b0       PxRegisterUnifiedHeightFields 000000018007f8b0 f   NpPhysics.obj
 0001:0007e910       PxRegisterCloth            000000018007f910 f   NpPhysics.obj
 0001:0007e980       PxRegisterParticles        000000018007f980 f   NpPhysics.obj
 0001:0007e9a0       PxCreateBasePhysics        000000018007f9a0 f   NpPhysics.obj
 0001:0007e9b0       PxGetPhysics               000000018007f9b0 f   NpPhysics.obj
 0001:0007e9c0       PxAddCollectionToPhysics   000000018007f9c0 f   NpPhysics.obj
 0001:0007e9e0       ??0NpPhysics@physx@@AEAA@AEBVPxTolerancesScale@1@AEBUPxvOffsetTable@1@_NPEAVPxProfileZoneManager@1@@Z 000000018007f9e0 f   NpPhysics.obj
 0001:0007ece0       ??1NpPhysics@physx@@EEAA@XZ 000000018007fce0 f   NpPhysics.obj
 0001:0007efa0       ?createInstance@NpPhysics@physx@@SAPEAV12@IAEAVPxFoundation@2@AEBVPxTolerancesScale@2@_NPEAVPxProfileZoneManager@2@@Z 000000018007ffa0 f   NpPhysics.obj
 0001:0007f170       ?releaseInstance@NpPhysics@physx@@SAIXZ 0000000180080170 f   NpPhysics.obj
 0001:0007f1d0       ?release@NpPhysics@physx@@UEAAXXZ 00000001800801d0 f   NpPhysics.obj
 0001:0007f220       ?createScene@NpPhysics@physx@@UEAAPEAVPxScene@2@AEBVPxSceneDesc@2@@Z 0000000180080220 f   NpPhysics.obj
 0001:0007f4c0       ?releaseSceneInternal@NpPhysics@physx@@QEAAXAEAVPxScene@2@@Z 00000001800804c0 f   NpPhysics.obj
 0001:0007f550       ?getNbScenes@NpPhysics@physx@@UEBAIXZ 0000000180080550 f   NpPhysics.obj
 0001:0007f590       ?getScenes@NpPhysics@physx@@UEBAIPEAPEAVPxScene@2@II@Z 0000000180080590 f   NpPhysics.obj
 0001:0007f630       ?createRigidStatic@NpPhysics@physx@@UEAAPEAVPxRigidStatic@2@AEBVPxTransform@2@@Z 0000000180080630 f   NpPhysics.obj
 0001:0007f750       ?createRigidDynamic@NpPhysics@physx@@UEAAPEAVPxRigidDynamic@2@AEBVPxTransform@2@@Z 0000000180080750 f   NpPhysics.obj
 0001:0007f870       ?createArticulation@NpPhysics@physx@@UEAAPEAVPxArticulation@2@XZ 0000000180080870 f   NpPhysics.obj
 0001:0007f890       ?createConstraint@NpPhysics@physx@@UEAAPEAVPxConstraint@2@PEAVPxRigidActor@2@0AEAVPxConstraintConnector@2@AEBUPxConstraintShaderTable@2@I@Z 0000000180080890 f   NpPhysics.obj
 0001:0007f8b0       ?createAggregate@NpPhysics@physx@@UEAAPEAVPxAggregate@2@I_N@Z 00000001800808b0 f   NpPhysics.obj
 0001:0007f8d0       ?createShape@NpPhysics@physx@@UEAAPEAVPxShape@2@AEBVPxGeometry@2@PEBQEAVPxMaterial@2@G_NV?$PxFlags@W4Enum@PxShapeFlag@physx@@E@2@@Z 00000001800808d0 f   NpPhysics.obj
 0001:0007f9e0       ?getNbShapes@NpPhysics@physx@@UEBAIXZ 00000001800809e0 f   NpPhysics.obj
 0001:0007fa00       ?getShapes@NpPhysics@physx@@UEBAIPEAPEAVPxShape@2@II@Z 0000000180080a00 f   NpPhysics.obj
 0001:0007fa20       ?createParticleSystem@NpPhysics@physx@@UEAAPEAVPxParticleSystem@2@I_N@Z 0000000180080a20 f   NpPhysics.obj
 0001:0007fa40       ?createParticleFluid@NpPhysics@physx@@UEAAPEAVPxParticleFluid@2@I_N@Z 0000000180080a40 f   NpPhysics.obj
 0001:0007fa60       ?createCloth@NpPhysics@physx@@UEAAPEAVPxCloth@2@AEBVPxTransform@2@AEAVPxClothFabric@2@PEBUPxClothParticle@2@V?$PxFlags@W4Enum@PxClothFlag@physx@@G@2@@Z 0000000180080a60 f   NpPhysics.obj
 0001:0007fbc0       ?createMaterial@NpPhysics@physx@@UEAAPEAVPxMaterial@2@MMM@Z 0000000180080bc0 f   NpPhysics.obj
 0001:0007fbf0       ?getNbMaterials@NpPhysics@physx@@UEBAIXZ 0000000180080bf0 f   NpPhysics.obj
 0001:0007fc30       ?getMaterials@NpPhysics@physx@@UEBAIPEAPEAVPxMaterial@2@II@Z 0000000180080c30 f   NpPhysics.obj
 0001:0007fcf0       ?createTriangleMesh@NpPhysics@physx@@UEAAPEAVPxTriangleMesh@2@AEAVPxInputStream@2@@Z 0000000180080cf0 f   NpPhysics.obj
 0001:0007fd10       ?getNbTriangleMeshes@NpPhysics@physx@@UEBAIXZ 0000000180080d10 f   NpPhysics.obj
 0001:0007fd30       ?getTriangleMeshes@NpPhysics@physx@@UEBAIPEAPEAVPxTriangleMesh@2@II@Z 0000000180080d30 f   NpPhysics.obj
 0001:0007fd50       ?createHeightField@NpPhysics@physx@@UEAAPEAVPxHeightField@2@AEBVPxHeightFieldDesc@2@@Z 0000000180080d50 f   NpPhysics.obj
 0001:0007fd70       ?createHeightField@NpPhysics@physx@@UEAAPEAVPxHeightField@2@AEAVPxInputStream@2@@Z 0000000180080d70 f   NpPhysics.obj
 0001:0007fd90       ?getNbHeightFields@NpPhysics@physx@@UEBAIXZ 0000000180080d90 f   NpPhysics.obj
 0001:0007fdb0       ?getHeightFields@NpPhysics@physx@@UEBAIPEAPEAVPxHeightField@2@II@Z 0000000180080db0 f   NpPhysics.obj
 0001:0007fdd0       ?createConvexMesh@NpPhysics@physx@@UEAAPEAVPxConvexMesh@2@AEAVPxInputStream@2@@Z 0000000180080dd0 f   NpPhysics.obj
 0001:0007fdf0       ?getNbConvexMeshes@NpPhysics@physx@@UEBAIXZ 0000000180080df0 f   NpPhysics.obj
 0001:0007fe10       ?getConvexMeshes@NpPhysics@physx@@UEBAIPEAPEAVPxConvexMesh@2@II@Z 0000000180080e10 f   NpPhysics.obj
 0001:0007fe30       ?createClothFabric@NpPhysics@physx@@UEAAPEAVPxClothFabric@2@AEAVPxInputStream@2@@Z 0000000180080e30 f   NpPhysics.obj
 0001:0007fe50       ?createClothFabric@NpPhysics@physx@@UEAAPEAVPxClothFabric@2@AEBVPxClothFabricDesc@2@@Z 0000000180080e50 f   NpPhysics.obj
 0001:0007fe70       ?getNbClothFabrics@NpPhysics@physx@@UEBAIXZ 0000000180080e70 f   NpPhysics.obj
 0001:0007fe90       ?getClothFabrics@NpPhysics@physx@@UEBAIPEAPEAVPxClothFabric@2@I@Z 0000000180080e90 f   NpPhysics.obj
 0001:0007feb0       ?registerCloth@NpPhysics@physx@@QEAAXXZ 0000000180080eb0 f   NpPhysics.obj
 0001:0007ff20       ?getTolerancesScale@NpPhysics@physx@@UEBAAEBVPxTolerancesScale@2@XZ 0000000180080f20 f   NpPhysics.obj
 0001:0007ff30       ?getFoundation@NpPhysics@physx@@UEAAAEAVPxFoundation@2@XZ 0000000180080f30 f   NpPhysics.obj
 0001:0007ff40       ?getVisualDebugger@NpPhysics@physx@@UEAAPEAVPxVisualDebugger@2@XZ 0000000180080f40 f   NpPhysics.obj
 0001:0007ff50       ?getPvdConnectionManager@NpPhysics@physx@@UEAAPEAVPvdConnectionManager@comm@debugger@2@XZ 0000000180080f50 f   NpPhysics.obj
 0001:0007ff60       ?getProfileZone@NpPhysics@physx@@UEAAAEAVPxProfileZone@2@XZ 0000000180080f60 f   NpPhysics.obj
 0001:0007ff70       ?getProfileZoneManager@NpPhysics@physx@@UEAAPEAVPxProfileZoneManager@2@XZ 0000000180080f70 f   NpPhysics.obj
 0001:0007ff80       ?lockScene@NpPhysics@physx@@QEAA_NXZ 0000000180080f80 f   NpPhysics.obj
 0001:0007ffe0       ?unlockScene@NpPhysics@physx@@QEAA_NXZ 0000000180080fe0 f   NpPhysics.obj
 0001:00080000       ?destroySceneLock@NpPhysics@physx@@QEAAXXZ 0000000180081000 f   NpPhysics.obj
 0001:00080070       ?registerDeletionListener@NpPhysics@physx@@UEAAXAEAVPxDeletionListener@2@AEBV?$PxFlags@W4Enum@PxDeletionEventFlag@physx@@E@2@_N@Z 0000000180081070 f   NpPhysics.obj
 0001:00080240       ?unregisterDeletionListener@NpPhysics@physx@@UEAAXAEAVPxDeletionListener@2@@Z 0000000180081240 f   NpPhysics.obj
 0001:00080380       ?registerDeletionListenerObjects@NpPhysics@physx@@UEAAXAEAVPxDeletionListener@2@PEBQEBVPxBase@2@I@Z 0000000180081380 f   NpPhysics.obj
 0001:00080530       ?unregisterDeletionListenerObjects@NpPhysics@physx@@UEAAXAEAVPxDeletionListener@2@PEBQEBVPxBase@2@I@Z 0000000180081530 f   NpPhysics.obj
 0001:000806b0       ?notifyDeletionListeners@NpPhysics@physx@@QEAAXPEBVPxBase@2@PEAXW4Enum@PxDeletionEventFlag@2@@Z 00000001800816b0 f   NpPhysics.obj
 0001:00080770       ?removeMaterialFromTable@NpPhysics@physx@@QEAAXAEAVNpMaterial@2@@Z 0000000180081770 f   NpPhysics.obj
 0001:00080840       ?updateMaterial@NpPhysics@physx@@QEAAXAEAVNpMaterial@2@@Z 0000000180081840 f   NpPhysics.obj
 0001:000808c0       ?sendMaterialTable@NpPhysics@physx@@QEAA_NAEAVNpScene@2@@Z 00000001800818c0 f   NpPhysics.obj
 0001:00080950       ?addMaterial@NpPhysics@physx@@QEAAPEAVNpMaterial@2@PEAV32@@Z 0000000180081950 f   NpPhysics.obj
 0001:00080a10       ?initOffsetTables@NpPhysics@physx@@SAXAEAUPxvOffsetTable@2@@Z 0000000180081a10 f   NpPhysics.obj
 0001:00081440       ??$__vcrt_va_start_verify_argument_type@QEBD@@YAXXZ 0000000180082440 f i NpPhysics.obj
 0001:00081450       ??0?$MutexT@V?$ReflectionAllocator@VMutexImpl@shdfnd@physx@@@shdfnd@physx@@@shdfnd@physx@@QEAA@AEBV?$ReflectionAllocator@VMutexImpl@shdfnd@physx@@@12@@Z 0000000180082450 f i NpPhysics.obj
 0001:00081520       ??0NpDelListenerEntry@NpPhysics@physx@@QEAA@AEBV?$PxFlags@W4Enum@PxDeletionEventFlag@physx@@E@2@_N@Z 0000000180082520 f i NpPhysics.obj
 0001:000815a0       ??0NpMaterialManager@physx@@QEAA@XZ 00000001800825a0 f i NpPhysics.obj
 0001:00081650       ??1GuMeshFactoryListener@physx@@MEAA@XZ 0000000180082650 f i NpPhysics.obj
 0001:00081660       ??1PxPhysics@physx@@UEAA@XZ 0000000180082660 f i NpPhysics.obj
 0001:00081670       ??1PxPhysicsInsertionCallback@physx@@MEAA@XZ 0000000180082670 f i NpPhysics.obj
 0001:00081680       ??1PxProfileNameProvider@physx@@MEAA@XZ 0000000180082680 f i NpPhysics.obj
 0001:00081690       ??_EGuMeshFactoryListener@physx@@MEAAPEAXI@Z 0000000180082690 f i NpPhysics.obj
 0001:00081690       ??_GGuMeshFactoryListener@physx@@MEAAPEAXI@Z 0000000180082690 f i NpPhysics.obj
 0001:000816d0       ??_GMeshDeletionListener@NpPhysics@physx@@UEAAPEAXI@Z 00000001800826d0 f i NpPhysics.obj
 0001:000816d0       ??_EMeshDeletionListener@NpPhysics@physx@@UEAAPEAXI@Z 00000001800826d0 f i NpPhysics.obj
 0001:00081710       ??_GNpPhysics@physx@@EEAAPEAXI@Z 0000000180082710 f i NpPhysics.obj
 0001:00081710       ??_ENpPhysics@physx@@EEAAPEAXI@Z 0000000180082710 f i NpPhysics.obj
 0001:00081780       ??_ENpPhysicsInsertionCallback@physx@@UEAAPEAXI@Z 0000000180082780 f i NpPhysics.obj
 0001:00081780       ??_GNpPhysicsInsertionCallback@physx@@UEAAPEAXI@Z 0000000180082780 f i NpPhysics.obj
 0001:000817c0       ??_EPxPhysics@physx@@UEAAPEAXI@Z 00000001800827c0 f i NpPhysics.obj
 0001:000817c0       ??_GPxPhysics@physx@@UEAAPEAXI@Z 00000001800827c0 f i NpPhysics.obj
 0001:00081800       ??_GPxPhysicsInsertionCallback@physx@@MEAAPEAXI@Z 0000000180082800 f i NpPhysics.obj
 0001:00081800       ??_EPxPhysicsInsertionCallback@physx@@MEAAPEAXI@Z 0000000180082800 f i NpPhysics.obj
 0001:00081840       ?create@?$HashBase@PEBVPxBase@physx@@PEBV12@U?$Hash@PEBVPxBase@physx@@@shdfnd@2@UGetKey@?$HashSetBase@PEBVPxBase@physx@@U?$Hash@PEBVPxBase@physx@@@shdfnd@2@VAllocator@42@$0A@@internal@42@VAllocator@42@$0A@@internal@shdfnd@physx@@QEAAPEAPEBVPxBase@4@AEBQEBV54@AEA_N@Z 0000000180082840 f i NpPhysics.obj
 0001:00081a30       ?create@?$HashBase@V?$Pair@QEAVPxDeletionListener@physx@@PEAUNpDelListenerEntry@NpPhysics@2@@shdfnd@physx@@PEAVPxDeletionListener@3@U?$Hash@PEAVPxDeletionListener@physx@@@23@UGetKey@?$HashMapBase@PEAVPxDeletionListener@physx@@PEAUNpDelListenerEntry@NpPhysics@2@U?$Hash@PEAVPxDeletionListener@physx@@@shdfnd@2@VAllocator@62@@internal@23@VAllocator@23@$00@internal@shdfnd@physx@@QEAAPEAV?$Pair@QEAVPxDeletionListener@physx@@PEAUNpDelListenerEntry@NpPhysics@2@@34@AEBQEAVPxDeletionListener@4@AEA_N@Z 0000000180082a30 f i NpPhysics.obj
 0001:00081c30       ?erase@?$HashBase@PEBVPxBase@physx@@PEBV12@U?$Hash@PEBVPxBase@physx@@@shdfnd@2@UGetKey@?$HashSetBase@PEBVPxBase@physx@@U?$Hash@PEBVPxBase@physx@@@shdfnd@2@VAllocator@42@$0A@@internal@42@VAllocator@42@$0A@@internal@shdfnd@physx@@QEAA_NAEBQEBVPxBase@4@@Z 0000000180082c30 f i NpPhysics.obj
 0001:00081d40       ?erase@?$HashBase@V?$Pair@QEAVPxDeletionListener@physx@@PEAUNpDelListenerEntry@NpPhysics@2@@shdfnd@physx@@PEAVPxDeletionListener@3@U?$Hash@PEAVPxDeletionListener@physx@@@23@UGetKey@?$HashMapBase@PEAVPxDeletionListener@physx@@PEAUNpDelListenerEntry@NpPhysics@2@U?$Hash@PEAVPxDeletionListener@physx@@@shdfnd@2@VAllocator@62@@internal@23@VAllocator@23@$00@internal@shdfnd@physx@@QEAA_NAEBQEAVPxDeletionListener@4@@Z 0000000180082d40 f i NpPhysics.obj
 0001:00081e60       ?find@?$HashBase@PEBVPxBase@physx@@PEBV12@U?$Hash@PEBVPxBase@physx@@@shdfnd@2@UGetKey@?$HashSetBase@PEBVPxBase@physx@@U?$Hash@PEBVPxBase@physx@@@shdfnd@2@VAllocator@42@$0A@@internal@42@VAllocator@42@$0A@@internal@shdfnd@physx@@QEBAPEBQEBVPxBase@4@AEBQEBV54@@Z 0000000180082e60 f i NpPhysics.obj
 0001:00081f30       ?freeListAdd@?$HashBase@PEBVPxBase@physx@@PEBV12@U?$Hash@PEBVPxBase@physx@@@shdfnd@2@UGetKey@?$HashSetBase@PEBVPxBase@physx@@U?$Hash@PEBVPxBase@physx@@@shdfnd@2@VAllocator@42@$0A@@internal@42@VAllocator@42@$0A@@internal@shdfnd@physx@@AEAAXII@Z 0000000180082f30 f i NpPhysics.obj
 0001:00082070       ?getPhysicsInsertionCallback@NpPhysics@physx@@UEAAAEAVPxPhysicsInsertionCallback@2@XZ 0000000180083070 f i NpPhysics.obj
 0001:00082080       ?growAndPushBack@?$Array@IVNamedAllocator@shdfnd@physx@@@shdfnd@physx@@IEAAAEAIAEBI@Z 0000000180083080 f i NpPhysics.obj
 0001:000821a0       ?growAndPushBack@?$Array@PEAVNpScene@physx@@VNamedAllocator@shdfnd@2@@shdfnd@physx@@IEAAAEAPEAVNpScene@3@AEBQEAV43@@Z 00000001800831a0 f i NpPhysics.obj
 0001:000822c0       ?insertObject@NpPhysicsInsertionCallback@physx@@UEAA_NAEAVPxBase@2@@Z 00000001800832c0 f i NpPhysics.obj
 0001:000823b0       ?isValid@PxSceneDesc@physx@@QEBA_NXZ 00000001800833b0 f i NpPhysics.obj
 0001:00082650       ?onGuMeshFactoryBufferRelease@MeshDeletionListener@NpPhysics@physx@@UEAAXPEBVPxBase@3@G_N@Z 0000000180083650 f i NpPhysics.obj
 0001:00082680       ?releaseMaterials@NpMaterialManager@physx@@QEAAXXZ 0000000180083680 f i NpPhysics.obj
 0001:00082780       ?replaceWithLast@?$HashBase@V?$Pair@QEAVPxDeletionListener@physx@@PEAUNpDelListenerEntry@NpPhysics@2@@shdfnd@physx@@PEAVPxDeletionListener@3@U?$Hash@PEAVPxDeletionListener@physx@@@23@UGetKey@?$HashMapBase@PEAVPxDeletionListener@physx@@PEAUNpDelListenerEntry@NpPhysics@2@U?$Hash@PEAVPxDeletionListener@physx@@@shdfnd@2@VAllocator@62@@internal@23@VAllocator@23@$00@internal@shdfnd@physx@@AEAAXI@Z 0000000180083780 f i NpPhysics.obj
 0001:000828b0       ?reserveInternal@?$HashBase@PEBVPxBase@physx@@PEBV12@U?$Hash@PEBVPxBase@physx@@@shdfnd@2@UGetKey@?$HashSetBase@PEBVPxBase@physx@@U?$Hash@PEBVPxBase@physx@@@shdfnd@2@VAllocator@42@$0A@@internal@42@VAllocator@42@$0A@@internal@shdfnd@physx@@AEAAXI@Z 00000001800838b0 f i NpPhysics.obj
 0001:00082c10       ?reserveInternal@?$HashBase@V?$Pair@QEAVPxDeletionListener@physx@@PEAUNpDelListenerEntry@NpPhysics@2@@shdfnd@physx@@PEAVPxDeletionListener@3@U?$Hash@PEAVPxDeletionListener@physx@@@23@UGetKey@?$HashMapBase@PEAVPxDeletionListener@physx@@PEAUNpDelListenerEntry@NpPhysics@2@U?$Hash@PEAVPxDeletionListener@physx@@@shdfnd@2@VAllocator@62@@internal@23@VAllocator@23@$00@internal@shdfnd@physx@@AEAAXI@Z 0000000180083c10 f i NpPhysics.obj
 0001:00082e40       ?resize@NpMaterialManager@physx@@AEAAXXZ 0000000180083e40 f i NpPhysics.obj
 0001:00082f10       __local_stdio_printf_options 0000000180083f10 f i NpPhysics.obj
 0001:00082f20       sprintf                    0000000180083f20 f i NpPhysics.obj
 0001:00082f90       ??0PvdSceneQueryCollector@Pvd@physx@@QEAA@AEAVScene@Scb@2@_N@Z 0000000180083f90 f   NpPvdSceneQueryCollector.obj
 0001:000831b0       ??1PvdSceneQueryCollector@Pvd@physx@@QEAA@XZ 00000001800841b0 f   NpPvdSceneQueryCollector.obj
 0001:00083320       ?release@PvdSceneQueryCollector@Pvd@physx@@QEAAXXZ 0000000180084320 f   NpPvdSceneQueryCollector.obj
 0001:000833d0       ?raycastAny@PvdSceneQueryCollector@Pvd@physx@@QEAAXAEBVPxVec3@3@0MPEBUPxQueryHit@3@_NUPxFilterData@3@I@Z 00000001800843d0 f   NpPvdSceneQueryCollector.obj
 0001:000835f0       ?raycastSingle@PvdSceneQueryCollector@Pvd@physx@@QEAAXAEBVPxVec3@3@0MPEBUPxRaycastHit@3@_NUPxFilterData@3@I@Z 00000001800845f0 f   NpPvdSceneQueryCollector.obj
 0001:000838d0       ?raycastMultiple@PvdSceneQueryCollector@Pvd@physx@@QEAAXAEBVPxVec3@3@0MPEBUPxRaycastHit@3@IUPxFilterData@3@I@Z 00000001800848d0 f   NpPvdSceneQueryCollector.obj
 0001:00083b50       ?sweepAny@PvdSceneQueryCollector@Pvd@physx@@QEAAXAEBVPxGeometry@3@AEBVPxTransform@3@AEBVPxVec3@3@MPEBUPxQueryHit@3@_NUPxFilterData@3@I@Z 0000000180084b50 f   NpPvdSceneQueryCollector.obj
 0001:00083e70       ?sweepAny@PvdSceneQueryCollector@Pvd@physx@@QEAAXPEAPEBVPxGeometry@3@PEBVPxTransform@3@PEBUPxFilterData@3@IAEBVPxVec3@3@MPEBUPxQueryHit@3@_NI@Z 0000000180084e70 f   NpPvdSceneQueryCollector.obj
 0001:00084090       ?sweepSingle@PvdSceneQueryCollector@Pvd@physx@@QEAAXAEBVPxGeometry@3@AEBVPxTransform@3@AEBVPxVec3@3@MPEBUPxSweepHit@3@_NUPxFilterData@3@I@Z 0000000180085090 f   NpPvdSceneQueryCollector.obj
 0001:00084430       ?sweepSingle@PvdSceneQueryCollector@Pvd@physx@@QEAAXPEAPEBVPxGeometry@3@PEBVPxTransform@3@PEBUPxFilterData@3@IAEBVPxVec3@3@MPEBUPxSweepHit@3@_NI@Z 0000000180085430 f   NpPvdSceneQueryCollector.obj
 0001:000846d0       ?sweepMultiple@PvdSceneQueryCollector@Pvd@physx@@QEAAXAEBVPxGeometry@3@AEBVPxTransform@3@AEBVPxVec3@3@MPEBUPxSweepHit@3@IUPxFilterData@3@I@Z 00000001800856d0 f   NpPvdSceneQueryCollector.obj
 0001:00084a40       ?sweepMultiple@PvdSceneQueryCollector@Pvd@physx@@QEAAXPEAPEBVPxGeometry@3@PEBVPxTransform@3@PEBUPxFilterData@3@IAEBVPxVec3@3@MPEBUPxSweepHit@3@II@Z 0000000180085a40 f   NpPvdSceneQueryCollector.obj
 0001:00084ca0       ?overlapMultiple@PvdSceneQueryCollector@Pvd@physx@@QEAAXAEBVPxGeometry@3@AEBVPxTransform@3@PEBUPxOverlapHit@3@IUPxFilterData@3@I@Z 0000000180085ca0 f   NpPvdSceneQueryCollector.obj
 0001:00084f40       ?raycastAnyWithLock@PvdSceneQueryCollector@Pvd@physx@@QEAAXAEBVPxVec3@3@0MPEBUPxQueryHit@3@_NUPxFilterData@3@I@Z 0000000180085f40 f   NpPvdSceneQueryCollector.obj
 0001:00084fe0       ?raycastSingleWithLock@PvdSceneQueryCollector@Pvd@physx@@QEAAXAEBVPxVec3@3@0MPEBUPxRaycastHit@3@_NUPxFilterData@3@I@Z 0000000180085fe0 f   NpPvdSceneQueryCollector.obj
 0001:00085080       ?raycastMultipleWithLock@PvdSceneQueryCollector@Pvd@physx@@QEAAXAEBVPxVec3@3@0MPEBUPxRaycastHit@3@IUPxFilterData@3@I@Z 0000000180086080 f   NpPvdSceneQueryCollector.obj
 0001:00085120       ?sweepAnyWithLock@PvdSceneQueryCollector@Pvd@physx@@QEAAXAEBVPxGeometry@3@AEBVPxTransform@3@AEBVPxVec3@3@MPEBUPxQueryHit@3@_NUPxFilterData@3@I@Z 0000000180086120 f   NpPvdSceneQueryCollector.obj
 0001:000851d0       ?sweepAnyWithLock@PvdSceneQueryCollector@Pvd@physx@@QEAAXPEAPEBVPxGeometry@3@PEBVPxTransform@3@PEBUPxFilterData@3@IAEBVPxVec3@3@MPEBUPxQueryHit@3@_NI@Z 00000001800861d0 f   NpPvdSceneQueryCollector.obj
 0001:00085280       ?sweepSingleWithLock@PvdSceneQueryCollector@Pvd@physx@@QEAAXAEBVPxGeometry@3@AEBVPxTransform@3@AEBVPxVec3@3@MPEBUPxSweepHit@3@_NUPxFilterData@3@I@Z 0000000180086280 f   NpPvdSceneQueryCollector.obj
 0001:00085330       ?sweepSingleWithLock@PvdSceneQueryCollector@Pvd@physx@@QEAAXPEAPEBVPxGeometry@3@PEBVPxTransform@3@PEBUPxFilterData@3@IAEBVPxVec3@3@MPEBUPxSweepHit@3@_NI@Z 0000000180086330 f   NpPvdSceneQueryCollector.obj
 0001:000853e0       ?sweepMultipleWithLock@PvdSceneQueryCollector@Pvd@physx@@QEAAXAEBVPxGeometry@3@AEBVPxTransform@3@AEBVPxVec3@3@MPEBUPxSweepHit@3@IUPxFilterData@3@I@Z 00000001800863e0 f   NpPvdSceneQueryCollector.obj
 0001:00085490       ?sweepMultipleWithLock@PvdSceneQueryCollector@Pvd@physx@@QEAAXPEAPEBVPxGeometry@3@PEBVPxTransform@3@PEBUPxFilterData@3@IAEBVPxVec3@3@MPEBUPxSweepHit@3@II@Z 0000000180086490 f   NpPvdSceneQueryCollector.obj
 0001:00085540       ?overlapMultipleWithLock@PvdSceneQueryCollector@Pvd@physx@@QEAAXAEBVPxGeometry@3@AEBVPxTransform@3@PEBUPxOverlapHit@3@IUPxFilterData@3@I@Z 0000000180086540 f   NpPvdSceneQueryCollector.obj
 0001:000855d0       ?collectBatchedRaycastHits@PvdSceneQueryCollector@Pvd@physx@@QEAAXPEBU?$PxBatchQueryResult@UPxRaycastHit@physx@@@3@II@Z 00000001800865d0 f   NpPvdSceneQueryCollector.obj
 0001:00085810       ?collectBatchedOverlapHits@PvdSceneQueryCollector@Pvd@physx@@QEAAXPEBU?$PxBatchQueryResult@UPxOverlapHit@physx@@@3@II@Z 0000000180086810 f   NpPvdSceneQueryCollector.obj
 0001:000859c0       ?collectBatchedSweepHits@PvdSceneQueryCollector@Pvd@physx@@QEAAXPEBU?$PxBatchQueryResult@UPxSweepHit@physx@@@3@II@Z 00000001800869c0 f   NpPvdSceneQueryCollector.obj
 0001:00085be0       ?pushBack@PvdSceneQueryCollector@Pvd@physx@@IEAAXAEAUPvdReference@23@AEBVPxGeometry@3@@Z 0000000180086be0 f   NpPvdSceneQueryCollector.obj
 0001:00085c30       ?pushBack@PvdSceneQueryCollector@Pvd@physx@@IEAAXAEAUPvdReference@23@PEAPEBVPxGeometry@3@I@Z 0000000180086c30 f   NpPvdSceneQueryCollector.obj
 0001:00085da0       ?pushBack@PvdSceneQueryCollector@Pvd@physx@@IEAAXAEAUPvdReference@23@AEBVPxTransform@3@@Z 0000000180086da0 f   NpPvdSceneQueryCollector.obj
 0001:00085e30       ?pushBack@PvdSceneQueryCollector@Pvd@physx@@IEAAXAEAUPvdReference@23@PEBVPxTransform@3@I@Z 0000000180086e30 f   NpPvdSceneQueryCollector.obj
 0001:00085f00       ?pushBack@PvdSceneQueryCollector@Pvd@physx@@IEAAXAEAUPvdReference@23@AEBUPxFilterData@3@@Z 0000000180086f00 f   NpPvdSceneQueryCollector.obj
 0001:00085f60       ?pushBack@PvdSceneQueryCollector@Pvd@physx@@IEAAXAEAUPvdReference@23@PEBUPxFilterData@3@I@Z 0000000180086f60 f   NpPvdSceneQueryCollector.obj
 0001:00086040       ?doPushBack@PvdSceneQueryCollector@Pvd@physx@@IEAAXAEBVPxGeometry@3@@Z 0000000180087040 f   NpPvdSceneQueryCollector.obj
 0001:00086dc0       ??1?$Array@VPxGeometryHolder@physx@@VNamedAllocator@shdfnd@2@@shdfnd@physx@@QEAA@XZ 0000000180087dc0 f i NpPvdSceneQueryCollector.obj
 0001:00086e00       ??_F?$Array@VPxGeometryHolder@physx@@VNamedAllocator@shdfnd@2@@shdfnd@physx@@QEAAXXZ 0000000180087e00 f i NpPvdSceneQueryCollector.obj
 0001:00086e50       ??_I@YAXPEAX_K1P6AX0@Z@Z   0000000180087e50 f i NpPvdSceneQueryCollector.obj
 0001:00086ec0       ?copy@?$Array@UPvdOverlap@Pvd@physx@@VNamedAllocator@shdfnd@3@@shdfnd@physx@@KAXPEAUPvdOverlap@Pvd@3@0PEBU453@@Z 0000000180087ec0 f i NpPvdSceneQueryCollector.obj
 0001:00087220       ?copy@?$Array@UPvdRaycast@Pvd@physx@@VNamedAllocator@shdfnd@3@@shdfnd@physx@@KAXPEAUPvdRaycast@Pvd@3@0PEBU453@@Z 0000000180088220 f i NpPvdSceneQueryCollector.obj
 0001:00087530       ?copy@?$Array@UPvdSqHit@Pvd@physx@@VNamedAllocator@shdfnd@3@@shdfnd@physx@@KAXPEAUPvdSqHit@Pvd@3@0PEBU453@@Z 0000000180088530 f i NpPvdSceneQueryCollector.obj
 0001:000878b0       ?copy@?$Array@UPvdSweep@Pvd@physx@@VNamedAllocator@shdfnd@3@@shdfnd@physx@@KAXPEAUPvdSweep@Pvd@3@0PEBU453@@Z 00000001800888b0 f i NpPvdSceneQueryCollector.obj
 0001:00087bc0       ?copy@?$Array@VPxTransform@physx@@VNamedAllocator@shdfnd@2@@shdfnd@physx@@KAXPEAVPxTransform@3@0PEBV43@@Z 0000000180088bc0 f i NpPvdSceneQueryCollector.obj
 0001:00087dc0       ?growAndPushBack@?$Array@UPvdOverlap@Pvd@physx@@VNamedAllocator@shdfnd@3@@shdfnd@physx@@IEAAAEAUPvdOverlap@Pvd@3@AEBU453@@Z 0000000180088dc0 f i NpPvdSceneQueryCollector.obj
 0001:00087f20       ?growAndPushBack@?$Array@UPvdRaycast@Pvd@physx@@VNamedAllocator@shdfnd@3@@shdfnd@physx@@IEAAAEAUPvdRaycast@Pvd@3@AEBU453@@Z 0000000180088f20 f i NpPvdSceneQueryCollector.obj
 0001:00088080       ?growAndPushBack@?$Array@UPvdSqHit@Pvd@physx@@VNamedAllocator@shdfnd@3@@shdfnd@physx@@IEAAAEAUPvdSqHit@Pvd@3@AEBU453@@Z 0000000180089080 f i NpPvdSceneQueryCollector.obj
 0001:000881f0       ?growAndPushBack@?$Array@UPvdSweep@Pvd@physx@@VNamedAllocator@shdfnd@3@@shdfnd@physx@@IEAAAEAUPvdSweep@Pvd@3@AEBU453@@Z 00000001800891f0 f i NpPvdSceneQueryCollector.obj
 0001:00088340       ?growAndPushBack@?$Array@UPxFilterData@physx@@VNamedAllocator@shdfnd@2@@shdfnd@physx@@IEAAAEAUPxFilterData@3@AEBU43@@Z 0000000180089340 f i NpPvdSceneQueryCollector.obj
 0001:00088460       ?growAndPushBack@?$Array@VPxGeometryHolder@physx@@VNamedAllocator@shdfnd@2@@shdfnd@physx@@IEAAAEAVPxGeometryHolder@3@AEBV43@@Z 0000000180089460 f i NpPvdSceneQueryCollector.obj
 0001:000885c0       ?growAndPushBack@?$Array@VPxTransform@physx@@VNamedAllocator@shdfnd@2@@shdfnd@physx@@IEAAAEAVPxTransform@3@AEBV43@@Z 00000001800895c0 f i NpPvdSceneQueryCollector.obj
 0001:000886f0       ??0NpReadCheck@physx@@QEAA@PEBVNpScene@1@PEBD@Z 00000001800896f0 f   NpReadCheck.obj
 0001:000887e0       ??1NpReadCheck@physx@@QEAA@XZ 00000001800897e0 f   NpReadCheck.obj
 0001:000888f0       ?NpRigidDynamicGetShapes@physx@@YAIAEAVBody@Scb@1@AEAPEBQEAX@Z 00000001800898f0 f   NpRigidDynamic.obj
 0001:00088930       ?requires@NpRigidDynamic@physx@@UEAAXAEAVPxProcessPxBaseCallback@2@@Z 0000000180089930 f   NpRigidDynamic.obj
 0001:000889a0       ?createObject@NpRigidDynamic@physx@@SAPEAV12@AEAPEAEAEAVPxDeserializationContext@2@@Z 00000001800899a0 f   NpRigidDynamic.obj
 0001:00088a30       ??1NpRigidDynamic@physx@@UEAA@XZ 0000000180089a30 f   NpRigidDynamic.obj
 0001:00088a90       ?release@NpRigidDynamic@physx@@UEAAXXZ 0000000180089a90 f   NpRigidDynamic.obj
 0001:00088bc0       ?setGlobalPose@NpRigidDynamic@physx@@UEAAXAEBVPxTransform@2@_N@Z 0000000180089bc0 f   NpRigidDynamic.obj
 0001:00089160       ?setKinematicTarget@NpRigidDynamic@physx@@UEAAXAEBVPxTransform@2@@Z 000000018008a160 f   NpRigidDynamic.obj
 0001:000896a0       ?getKinematicTarget@NpRigidDynamic@physx@@UEAA_NAEAVPxTransform@2@@Z 000000018008a6a0 f   NpRigidDynamic.obj
 0001:00089b80       ?setCMassLocalPose@NpRigidDynamic@physx@@UEAAXAEBVPxTransform@2@@Z 000000018008ab80 f   NpRigidDynamic.obj
 0001:0008a340       ?setLinearDamping@NpRigidDynamic@physx@@UEAAXM@Z 000000018008b340 f   NpRigidDynamic.obj
 0001:0008a420       ?getLinearDamping@NpRigidDynamic@physx@@UEBAMXZ 000000018008b420 f   NpRigidDynamic.obj
 0001:0008a490       ?setAngularDamping@NpRigidDynamic@physx@@UEAAXM@Z 000000018008b490 f   NpRigidDynamic.obj
 0001:0008a570       ?getAngularDamping@NpRigidDynamic@physx@@UEBAMXZ 000000018008b570 f   NpRigidDynamic.obj
 0001:0008a5e0       ?setLinearVelocity@NpRigidDynamic@physx@@UEAAXAEBVPxVec3@2@_N@Z 000000018008b5e0 f   NpRigidDynamic.obj
 0001:0008a830       ?setAngularVelocity@NpRigidDynamic@physx@@UEAAXAEBVPxVec3@2@_N@Z 000000018008b830 f   NpRigidDynamic.obj
 0001:0008aa80       ?setMaxAngularVelocity@NpRigidDynamic@physx@@UEAAXM@Z 000000018008ba80 f   NpRigidDynamic.obj
 0001:0008ab60       ?getMaxAngularVelocity@NpRigidDynamic@physx@@UEBAMXZ 000000018008bb60 f   NpRigidDynamic.obj
 0001:0008abd0       ?addForce@NpRigidDynamic@physx@@UEAAXAEBVPxVec3@2@W4Enum@PxForceMode@2@_N@Z 000000018008bbd0 f   NpRigidDynamic.obj
 0001:0008ae70       ?clearForce@NpRigidDynamic@physx@@UEAAXW4Enum@PxForceMode@2@@Z 000000018008be70 f   NpRigidDynamic.obj
 0001:0008b080       ?addTorque@NpRigidDynamic@physx@@UEAAXAEBVPxVec3@2@W4Enum@PxForceMode@2@_N@Z 000000018008c080 f   NpRigidDynamic.obj
 0001:0008b310       ?clearTorque@NpRigidDynamic@physx@@UEAAXW4Enum@PxForceMode@2@@Z 000000018008c310 f   NpRigidDynamic.obj
 0001:0008b520       ?isSleeping@NpRigidDynamic@physx@@UEBA_NXZ 000000018008c520 f   NpRigidDynamic.obj
 0001:0008b5d0       ?getSleepThreshold@NpRigidDynamic@physx@@UEBAMXZ 000000018008c5d0 f   NpRigidDynamic.obj
 0001:0008b640       ?setSleepThreshold@NpRigidDynamic@physx@@UEAAXM@Z 000000018008c640 f   NpRigidDynamic.obj
 0001:0008b720       ?getStabilizationThreshold@NpRigidDynamic@physx@@UEBAMXZ 000000018008c720 f   NpRigidDynamic.obj
 0001:0008b790       ?setStabilizationThreshold@NpRigidDynamic@physx@@UEAAXM@Z 000000018008c790 f   NpRigidDynamic.obj
 0001:0008b870       ?setWakeCounter@NpRigidDynamic@physx@@UEAAXM@Z 000000018008c870 f   NpRigidDynamic.obj
 0001:0008ba30       ?getWakeCounter@NpRigidDynamic@physx@@UEBAMXZ 000000018008ca30 f   NpRigidDynamic.obj
 0001:0008ba80       ?wakeUp@NpRigidDynamic@physx@@UEAAXXZ 000000018008ca80 f   NpRigidDynamic.obj
 0001:0008bc10       ?putToSleep@NpRigidDynamic@physx@@UEAAXXZ 000000018008cc10 f   NpRigidDynamic.obj
 0001:0008bd90       ?setSolverIterationCounts@NpRigidDynamic@physx@@UEAAXII@Z 000000018008cd90 f   NpRigidDynamic.obj
 0001:0008be90       ?getSolverIterationCounts@NpRigidDynamic@physx@@UEBAXAEAI0@Z 000000018008ce90 f   NpRigidDynamic.obj
 0001:0008bf10       ?setContactReportThreshold@NpRigidDynamic@physx@@UEAAXM@Z 000000018008cf10 f   NpRigidDynamic.obj
 0001:0008bff0       ?getContactReportThreshold@NpRigidDynamic@physx@@UEBAMXZ 000000018008cff0 f   NpRigidDynamic.obj
 0001:0008c060       ??0NpRigidDynamic@physx@@QEAA@AEBVPxTransform@1@@Z 000000018008d060 f   NpRigidDynamic.obj
 0001:0008c0f0       ?switchToNoSim@NpRigidDynamic@physx@@UEAAXXZ 000000018008d0f0 f   NpRigidDynamic.obj
 0001:0008c1f0       ?switchFromNoSim@NpRigidDynamic@physx@@UEAAXXZ 000000018008d1f0 f   NpRigidDynamic.obj
 0001:0008c220       ?wakeUpInternalNoKinematicTest@NpRigidDynamic@physx@@QEAAXAEAVBody@Scb@2@_N1@Z 000000018008d220 f   NpRigidDynamic.obj
 0001:0008c2a0       ?visualize@NpRigidDynamic@physx@@QEAAXAEAVRenderOutput@Cm@2@PEAVNpScene@2@@Z 000000018008d2a0 f   NpRigidDynamic.obj
 0001:0008d470       ??0?$NpActorTemplate@VPxRigidDynamic@physx@@@physx@@QEAA@GV?$PxFlags@W4Enum@PxBaseFlag@physx@@G@1@PEBDPEAX@Z 000000018008e470 f i NpRigidDynamic.obj
 0001:0008d4e0       ??0?$NpRigidActorTemplate@VPxRigidDynamic@physx@@@physx@@QEAA@GV?$PxFlags@W4Enum@PxBaseFlag@physx@@G@1@@Z 000000018008e4e0 f i NpRigidDynamic.obj
 0001:0008d550       ??0?$NpRigidBodyTemplate@VPxRigidDynamic@physx@@@physx@@QEAA@GV?$PxFlags@W4Enum@PxBaseFlag@physx@@G@1@W4Enum@PxActorType@1@AEBVPxTransform@1@@Z 000000018008e550 f i NpRigidDynamic.obj
 0001:0008d5f0       ??0?$NpRigidBodyTemplate@VPxRigidDynamic@physx@@@physx@@QEAA@V?$PxFlags@W4Enum@PxBaseFlag@physx@@G@1@@Z 000000018008e5f0 f i NpRigidDynamic.obj
 0001:0008d6a0       ??1?$NpActorTemplate@VPxRigidDynamic@physx@@@physx@@UEAA@XZ 000000018008e6a0 f i NpRigidDynamic.obj
 0001:0008d6e0       ??1?$NpRigidActorTemplate@VPxRigidDynamic@physx@@@physx@@UEAA@XZ 000000018008e6e0 f i NpRigidDynamic.obj
 0001:0008d740       ??1?$NpRigidBodyTemplate@VPxRigidDynamic@physx@@@physx@@UEAA@XZ 000000018008e740 f i NpRigidDynamic.obj
 0001:0008d7b0       ??1PxRigidDynamic@physx@@MEAA@XZ 000000018008e7b0 f i NpRigidDynamic.obj
 0001:0008d7c0       ??_G?$NpActorTemplate@VPxRigidDynamic@physx@@@physx@@UEAAPEAXI@Z 000000018008e7c0 f i NpRigidDynamic.obj
 0001:0008d7c0       ??_E?$NpActorTemplate@VPxRigidDynamic@physx@@@physx@@UEAAPEAXI@Z 000000018008e7c0 f i NpRigidDynamic.obj
 0001:0008d860       ??_E?$NpRigidActorTemplate@VPxRigidDynamic@physx@@@physx@@UEAAPEAXI@Z 000000018008e860 f i NpRigidDynamic.obj
 0001:0008d860       ??_G?$NpRigidActorTemplate@VPxRigidDynamic@physx@@@physx@@UEAAPEAXI@Z 000000018008e860 f i NpRigidDynamic.obj
 0001:0008d910       ??_E?$NpRigidBodyTemplate@VPxRigidDynamic@physx@@@physx@@UEAAPEAXI@Z 000000018008e910 f i NpRigidDynamic.obj
 0001:0008d910       ??_G?$NpRigidBodyTemplate@VPxRigidDynamic@physx@@@physx@@UEAAPEAXI@Z 000000018008e910 f i NpRigidDynamic.obj
 0001:0008d9e0       ??_GNpRigidDynamic@physx@@UEAAPEAXI@Z 000000018008e9e0 f i NpRigidDynamic.obj
 0001:0008d9e0       ??_ENpRigidDynamic@physx@@UEAAPEAXI@Z 000000018008e9e0 f i NpRigidDynamic.obj
 0001:0008dab0       ??_GPxRigidDynamic@physx@@MEAAPEAXI@Z 000000018008eab0 f i NpRigidDynamic.obj
 0001:0008dab0       ??_EPxRigidDynamic@physx@@MEAAPEAXI@Z 000000018008eab0 f i NpRigidDynamic.obj
 0001:0008daf0       ?addSpatialForce@?$NpRigidBodyTemplate@VPxRigidDynamic@physx@@@physx@@IEAAXPEBVPxVec3@2@0W4Enum@PxForceMode@2@@Z 000000018008eaf0 f i NpRigidDynamic.obj
 0001:0008de10       ?attachShape@?$NpRigidActorTemplate@VPxRigidDynamic@physx@@@physx@@UEAAXAEAVPxShape@2@@Z 000000018008ee10 f i NpRigidDynamic.obj
 0001:0008df00       ?attachShape@?$NpRigidBodyTemplate@VPxRigidDynamic@physx@@@physx@@UEAAXAEAVPxShape@2@@Z 000000018008ef00 f i NpRigidDynamic.obj
 0001:0008e0a0       ?clearSpatialForce@?$NpRigidBodyTemplate@VPxRigidDynamic@physx@@@physx@@IEAAXW4Enum@PxForceMode@2@_N1@Z 000000018008f0a0 f i NpRigidDynamic.obj
 0001:0008e0f0       ?createShape@?$NpRigidBodyTemplate@VPxRigidDynamic@physx@@@physx@@UEAAPEAVPxShape@2@AEBVPxGeometry@2@PEBQEAVPxMaterial@2@GV?$PxFlags@W4Enum@PxShapeFlag@physx@@E@2@@Z 000000018008f0f0 f i NpRigidDynamic.obj
 0001:0008e2d0       ?detachShape@?$NpRigidActorTemplate@VPxRigidDynamic@physx@@@physx@@UEAAXAEAVPxShape@2@_N@Z 000000018008f2d0 f i NpRigidDynamic.obj
 0001:0008e3c0       ?exportExtraData@?$NpActorTemplate@VPxRigidDynamic@physx@@@physx@@UEAAXAEAVPxSerializationContext@2@@Z 000000018008f3c0 f i NpRigidDynamic.obj
 0001:0008e3d0       ?exportExtraData@?$NpRigidActorTemplate@VPxRigidDynamic@physx@@@physx@@UEAAXAEAVPxSerializationContext@2@@Z 000000018008f3d0 f i NpRigidDynamic.obj
 0001:0008e410       ?getActorFlags@?$NpActorTemplate@VPxRigidDynamic@physx@@@physx@@UEBA?AV?$PxFlags@W4Enum@PxActorFlag@physx@@G@2@XZ 000000018008f410 f i NpRigidDynamic.obj
 0001:0008e4b0       ?getAggregate@?$NpActorTemplate@VPxRigidDynamic@physx@@@physx@@UEBAPEAVPxAggregate@2@XZ 000000018008f4b0 f i NpRigidDynamic.obj
 0001:0008e4c0       ?getAngularVelocity@?$NpRigidBodyTemplate@VPxRigidDynamic@physx@@@physx@@UEBA?AVPxVec3@2@XZ 000000018008f4c0 f i NpRigidDynamic.obj
 0001:0008e540       ?getCMassLocalPose@?$NpRigidBodyTemplate@VPxRigidDynamic@physx@@@physx@@UEBA?AVPxTransform@2@XZ 000000018008f540 f i NpRigidDynamic.obj
 0001:0008e5f0       ?getClientBehaviorFlags@?$NpActorTemplate@VPxRigidDynamic@physx@@@physx@@UEBA?AV?$PxFlags@W4Enum@PxActorClientBehaviorFlag@physx@@E@2@XZ 000000018008f5f0 f i NpRigidDynamic.obj
 0001:0008e690       ?getConcreteTypeName@PxRigidDynamic@physx@@UEBAPEBDXZ 000000018008f690 f i NpRigidDynamic.obj
 0001:0008e6a0       ?getConstraints@?$NpRigidActorTemplate@VPxRigidDynamic@physx@@@physx@@UEBAIPEAPEAVPxConstraint@2@II@Z 000000018008f6a0 f i NpRigidDynamic.obj
 0001:0008e730       ?getDominanceGroup@?$NpActorTemplate@VPxRigidDynamic@physx@@@physx@@UEBAEXZ 000000018008f730 f i NpRigidDynamic.obj
 0001:0008e7e0       ?getGlobalPose@NpRigidDynamic@physx@@UEBA?AVPxTransform@2@XZ 000000018008f7e0 f i NpRigidDynamic.obj
 0001:0008ec40       ?getInvMass@?$NpRigidBodyTemplate@VPxRigidDynamic@physx@@@physx@@UEBAMXZ 000000018008fc40 f i NpRigidDynamic.obj
 0001:0008ecc0       ?getLinearVelocity@?$NpRigidBodyTemplate@VPxRigidDynamic@physx@@@physx@@UEBA?AVPxVec3@2@XZ 000000018008fcc0 f i NpRigidDynamic.obj
 0001:0008ed40       ?getMass@?$NpRigidBodyTemplate@VPxRigidDynamic@physx@@@physx@@UEBAMXZ 000000018008fd40 f i NpRigidDynamic.obj
 0001:0008edd0       ?getMassSpaceInertiaTensor@?$NpRigidBodyTemplate@VPxRigidDynamic@physx@@@physx@@UEBA?AVPxVec3@2@XZ 000000018008fdd0 f i NpRigidDynamic.obj
 0001:0008eec0       ?getMassSpaceInvInertiaTensor@?$NpRigidBodyTemplate@VPxRigidDynamic@physx@@@physx@@UEBA?AVPxVec3@2@XZ 000000018008fec0 f i NpRigidDynamic.obj
 0001:0008ef50       ?getMaxDepenetrationVelocity@?$NpRigidBodyTemplate@VPxRigidDynamic@physx@@@physx@@UEBAMXZ 000000018008ff50 f i NpRigidDynamic.obj
 0001:0008ef90       ?getMinCCDAdvanceCoefficient@?$NpRigidBodyTemplate@VPxRigidDynamic@physx@@@physx@@UEBAMXZ 000000018008ff90 f i NpRigidDynamic.obj
 0001:0008efc0       ?getName@?$NpActorTemplate@VPxRigidDynamic@physx@@@physx@@UEBAPEBDXZ 000000018008ffc0 f i NpRigidDynamic.obj
 0001:0008f010       ?getNbConstraints@?$NpRigidActorTemplate@VPxRigidDynamic@physx@@@physx@@UEBAIXZ 0000000180090010 f i NpRigidDynamic.obj
 0001:0008f070       ?getNbShapes@?$NpRigidActorTemplate@VPxRigidDynamic@physx@@@physx@@UEBAIXZ 0000000180090070 f i NpRigidDynamic.obj
 0001:0008f0c0       ?getOwnerClient@?$NpActorTemplate@VPxRigidDynamic@physx@@@physx@@UEBAEXZ 00000001800900c0 f i NpRigidDynamic.obj
 0001:0008f100       ?getRigidBodyFlags@?$NpRigidBodyTemplate@VPxRigidDynamic@physx@@@physx@@UEBA?AV?$PxFlags@W4Enum@PxRigidBodyFlag@physx@@E@2@XZ 0000000180090100 f i NpRigidDynamic.obj
 0001:0008f180       ?getRigidDynamicFlags@?$NpRigidBodyTemplate@VPxRigidDynamic@physx@@@physx@@UEBA?AV?$PxFlags@W4Enum@PxRigidBodyFlag@physx@@E@2@XZ 0000000180090180 f i NpRigidDynamic.obj
 0001:0008f200       ?getScene@?$NpActorTemplate@VPxRigidDynamic@physx@@@physx@@UEBAPEAVPxScene@2@XZ 0000000180090200 f i NpRigidDynamic.obj
 0001:0008f210       ?getShapes@?$NpRigidActorTemplate@VPxRigidDynamic@physx@@@physx@@UEBAIPEAPEAVPxShape@2@II@Z 0000000180090210 f i NpRigidDynamic.obj
 0001:0008f2a0       ?getType@NpRigidDynamic@physx@@UEBA?AW4Enum@PxActorType@2@XZ 00000001800902a0 f i NpRigidDynamic.obj
 0001:0008f2b0       ?getWorldBounds@?$NpRigidActorTemplate@VPxRigidDynamic@physx@@@physx@@UEBA?AVPxBounds3@2@M@Z 00000001800902b0 f i NpRigidDynamic.obj
 0001:0008f450       ?importExtraData@?$NpRigidActorTemplate@VPxRigidDynamic@physx@@@physx@@QEAAXAEAVPxDeserializationContext@2@@Z 0000000180090450 f i NpRigidDynamic.obj
 0001:0008f490       ?isKindOf@PxRigidDynamic@physx@@MEBA_NPEBD@Z 0000000180090490 f i NpRigidDynamic.obj
 0001:0008f500       ?release@?$NpActorTemplate@VPxRigidDynamic@physx@@@physx@@UEAAXXZ 0000000180090500 f i NpRigidDynamic.obj
 0001:0008f510       ?release@?$NpRigidActorTemplate@VPxRigidDynamic@physx@@@physx@@UEAAXXZ 0000000180090510 f i NpRigidDynamic.obj
 0001:0008f570       ?requires@?$NpRigidActorTemplate@VPxRigidDynamic@physx@@@physx@@UEAAXAEAVPxProcessPxBaseCallback@2@@Z 0000000180090570 f i NpRigidDynamic.obj
 0001:0008f600       ?resolveReferences@?$NpActorTemplate@VPxRigidDynamic@physx@@@physx@@UEAAXAEAVPxDeserializationContext@2@@Z 0000000180090600 f i NpRigidDynamic.obj
 0001:0008f610       ?resolveReferences@?$NpRigidActorTemplate@VPxRigidDynamic@physx@@@physx@@UEAAXAEAVPxDeserializationContext@2@@Z 0000000180090610 f i NpRigidDynamic.obj
 0001:0008f6c0       ?setActorFlag@?$NpActorTemplate@VPxRigidDynamic@physx@@@physx@@UEAAXW4Enum@PxActorFlag@2@_N@Z 00000001800906c0 f i NpRigidDynamic.obj
 0001:0008f7c0       ?setActorFlag@?$NpRigidActorTemplate@VPxRigidDynamic@physx@@@physx@@UEAAXW4Enum@PxActorFlag@2@_N@Z 00000001800907c0 f i NpRigidDynamic.obj
 0001:0008fb10       ?setActorFlags@?$NpActorTemplate@VPxRigidDynamic@physx@@@physx@@UEAAXV?$PxFlags@W4Enum@PxActorFlag@physx@@G@2@@Z 0000000180090b10 f i NpRigidDynamic.obj
 0001:0008fb90       ?setActorFlags@?$NpRigidActorTemplate@VPxRigidDynamic@physx@@@physx@@UEAAXV?$PxFlags@W4Enum@PxActorFlag@physx@@G@2@@Z 0000000180090b90 f i NpRigidDynamic.obj
 0001:0008fe40       ?setAngularDamping@Body@Scb@physx@@QEAAXM@Z 0000000180090e40 f i NpRigidDynamic.obj
 0001:0008ff30       ?setCMassLocalPoseInternal@?$NpRigidBodyTemplate@VPxRigidDynamic@physx@@@physx@@IEAAXAEBVPxTransform@2@@Z 0000000180090f30 f i NpRigidDynamic.obj
 0001:000901b0       ?setClientBehaviorFlags@?$NpActorTemplate@VPxRigidDynamic@physx@@@physx@@UEAAXV?$PxFlags@W4Enum@PxActorClientBehaviorFlag@physx@@E@2@@Z 00000001800911b0 f i NpRigidDynamic.obj
 0001:00090230       ?setClientBehaviorFlags@?$NpRigidActorTemplate@VPxRigidDynamic@physx@@@physx@@UEAAXV?$PxFlags@W4Enum@PxActorClientBehaviorFlag@physx@@E@2@@Z 0000000180091230 f i NpRigidDynamic.obj
 0001:000902f0       ?setContactReportThreshold@Body@Scb@physx@@QEAAXM@Z 00000001800912f0 f i NpRigidDynamic.obj
 0001:000903e0       ?setDominanceGroup@?$NpActorTemplate@VPxRigidDynamic@physx@@@physx@@UEAAXE@Z 00000001800913e0 f i NpRigidDynamic.obj
 0001:00090460       ?setFreezeThreshold@Body@Scb@physx@@QEAAXM@Z 0000000180091460 f i NpRigidDynamic.obj
 0001:00090550       ?setKinematicTarget@Body@Scb@physx@@QEAAXAEBVPxTransform@3@@Z 0000000180091550 f i NpRigidDynamic.obj
 0001:00090740       ?setLinearDamping@Body@Scb@physx@@QEAAXM@Z 0000000180091740 f i NpRigidDynamic.obj
 0001:00090830       ?setMass@?$NpRigidBodyTemplate@VPxRigidDynamic@physx@@@physx@@UEAAXM@Z 0000000180091830 f i NpRigidDynamic.obj
 0001:000909a0       ?setMassSpaceInertiaTensor@?$NpRigidBodyTemplate@VPxRigidDynamic@physx@@@physx@@UEAAXAEBVPxVec3@2@@Z 00000001800919a0 f i NpRigidDynamic.obj
 0001:00090c80       ?setMaxAngVelSq@Body@Scb@physx@@QEAAXM@Z 0000000180091c80 f i NpRigidDynamic.obj
 0001:00090d70       ?setMaxDepenetrationVelocity@?$NpRigidBodyTemplate@VPxRigidDynamic@physx@@@physx@@UEAAXM@Z 0000000180091d70 f i NpRigidDynamic.obj
 0001:00090de0       ?setMinCCDAdvanceCoefficient@?$NpRigidBodyTemplate@VPxRigidDynamic@physx@@@physx@@UEAAXM@Z 0000000180091de0 f i NpRigidDynamic.obj
 0001:00090df0       ?setName@?$NpActorTemplate@VPxRigidDynamic@physx@@@physx@@UEAAXPEBD@Z 0000000180091df0 f i NpRigidDynamic.obj
 0001:00090ed0       ?setOwnerClient@?$NpActorTemplate@VPxRigidDynamic@physx@@@physx@@UEAAXE@Z 0000000180091ed0 f i NpRigidDynamic.obj
 0001:00090f70       ?setRigidBodyFlag@?$NpRigidBodyTemplate@VPxRigidDynamic@physx@@@physx@@UEAAXW4Enum@PxRigidBodyFlag@2@_N@Z 0000000180091f70 f i NpRigidDynamic.obj
 0001:00091500       ?setRigidBodyFlags@?$NpRigidBodyTemplate@VPxRigidDynamic@physx@@@physx@@UEAAXV?$PxFlags@W4Enum@PxRigidBodyFlag@physx@@E@2@@Z 0000000180092500 f i NpRigidDynamic.obj
 0001:00091ad0       ?setRigidDynamicFlag@?$NpRigidBodyTemplate@VPxRigidDynamic@physx@@@physx@@UEAAXW4Enum@PxRigidBodyFlag@2@_N@Z 0000000180092ad0 f i NpRigidDynamic.obj
 0001:00091ae0       ?setRigidDynamicFlags@?$NpRigidBodyTemplate@VPxRigidDynamic@physx@@@physx@@UEAAXV?$PxFlags@W4Enum@PxRigidBodyFlag@physx@@E@2@@Z 0000000180092ae0 f i NpRigidDynamic.obj
 0001:00091b10       ?setSleepThreshold@Body@Scb@physx@@QEAAXM@Z 0000000180092b10 f i NpRigidDynamic.obj
 0001:00091c00       ?setSolverIterationCounts@Body@Scb@physx@@QEAAXG@Z 0000000180092c00 f i NpRigidDynamic.obj
 0001:00091cd0       ?switchFromNoSim@?$NpRigidActorTemplate@VPxRigidDynamic@physx@@@physx@@UEAAXXZ 0000000180092cd0 f i NpRigidDynamic.obj
 0001:00091ce0       ?switchToNoSim@?$NpRigidActorTemplate@VPxRigidDynamic@physx@@@physx@@UEAAXXZ 0000000180092ce0 f i NpRigidDynamic.obj
 0001:00091cf0       ?updateShaderComs@?$NpRigidActorTemplate@VPxRigidDynamic@physx@@@physx@@QEAAXXZ 0000000180092cf0 f i NpRigidDynamic.obj
 0001:00091d90       ?visualize@?$NpRigidActorTemplate@VPxRigidDynamic@physx@@@physx@@QEAAXAEAVRenderOutput@Cm@2@PEAVNpScene@2@@Z 0000000180092d90 f i NpRigidDynamic.obj
 0001:00091da0       ?visualize@?$NpRigidBodyTemplate@VPxRigidDynamic@physx@@@physx@@QEAAXAEAVRenderOutput@Cm@2@PEAVNpScene@2@@Z 0000000180092da0 f i NpRigidDynamic.obj
 0001:00092290       ?NpRigidStaticGetShapes@physx@@YAIAEAVRigidStatic@Scb@1@AEAPEBQEAX@Z 0000000180093290 f   NpRigidStatic.obj
 0001:000922e0       ?requires@NpRigidStatic@physx@@UEAAXAEAVPxProcessPxBaseCallback@2@@Z 00000001800932e0 f   NpRigidStatic.obj
 0001:00092350       ?createObject@NpRigidStatic@physx@@SAPEAV12@AEAPEAEAEAVPxDeserializationContext@2@@Z 0000000180093350 f   NpRigidStatic.obj
 0001:000923d0       ??1NpRigidStatic@physx@@UEAA@XZ 00000001800933d0 f   NpRigidStatic.obj
 0001:00092430       ?release@NpRigidStatic@physx@@UEAAXXZ 0000000180093430 f   NpRigidStatic.obj
 0001:00092560       ?createShape@NpRigidStatic@physx@@UEAAPEAVPxShape@2@AEBVPxGeometry@2@PEBQEAVPxMaterial@2@GV?$PxFlags@W4Enum@PxShapeFlag@physx@@E@2@@Z 0000000180093560 f   NpRigidStatic.obj
 0001:00092670       ?setGlobalPose@NpRigidStatic@physx@@UEAAXAEBVPxTransform@2@_N@Z 0000000180093670 f   NpRigidStatic.obj
 0001:00092880       ?getGlobalPose@NpRigidStatic@physx@@UEBA?AVPxTransform@2@XZ 0000000180093880 f   NpRigidStatic.obj
 0001:00092910       ??0NpRigidStatic@physx@@QEAA@AEBVPxTransform@1@@Z 0000000180093910 f   NpRigidStatic.obj
 0001:00092990       ?switchToNoSim@NpRigidStatic@physx@@UEAAXXZ 0000000180093990 f   NpRigidStatic.obj
 0001:000929c0       ?switchFromNoSim@NpRigidStatic@physx@@UEAAXXZ 00000001800939c0 f   NpRigidStatic.obj
 0001:000929f0       ?checkConstraintValidity@NpRigidStatic@physx@@QEBA_NXZ 00000001800939f0 f   NpRigidStatic.obj
 0001:00092a70       ?visualize@NpRigidStatic@physx@@QEAAXAEAVRenderOutput@Cm@2@PEAVNpScene@2@@Z 0000000180093a70 f   NpRigidStatic.obj
 0001:00092e20       ??0?$NpActorTemplate@VPxRigidStatic@physx@@@physx@@QEAA@GV?$PxFlags@W4Enum@PxBaseFlag@physx@@G@1@PEBDPEAX@Z 0000000180093e20 f i NpRigidStatic.obj
 0001:00092e90       ??0?$NpRigidActorTemplate@VPxRigidStatic@physx@@@physx@@QEAA@GV?$PxFlags@W4Enum@PxBaseFlag@physx@@G@1@@Z 0000000180093e90 f i NpRigidStatic.obj
 0001:00092f00       ??0NpRigidStatic@physx@@QEAA@V?$PxFlags@W4Enum@PxBaseFlag@physx@@G@1@@Z 0000000180093f00 f i NpRigidStatic.obj
 0001:00092f90       ??0RigidStatic@Scb@physx@@QEAA@AEBVPxTransform@2@@Z 0000000180093f90 f i NpRigidStatic.obj
 0001:00093030       ??1?$NpActorTemplate@VPxRigidStatic@physx@@@physx@@UEAA@XZ 0000000180094030 f i NpRigidStatic.obj
 0001:00093070       ??1?$NpRigidActorTemplate@VPxRigidStatic@physx@@@physx@@UEAA@XZ 0000000180094070 f i NpRigidStatic.obj
 0001:000930d0       ??1PxRigidStatic@physx@@MEAA@XZ 00000001800940d0 f i NpRigidStatic.obj
 0001:000930e0       ??_G?$NpActorTemplate@VPxRigidStatic@physx@@@physx@@UEAAPEAXI@Z 00000001800940e0 f i NpRigidStatic.obj
 0001:000930e0       ??_E?$NpActorTemplate@VPxRigidStatic@physx@@@physx@@UEAAPEAXI@Z 00000001800940e0 f i NpRigidStatic.obj
 0001:00093180       ??_G?$NpRigidActorTemplate@VPxRigidStatic@physx@@@physx@@UEAAPEAXI@Z 0000000180094180 f i NpRigidStatic.obj
 0001:00093180       ??_E?$NpRigidActorTemplate@VPxRigidStatic@physx@@@physx@@UEAAPEAXI@Z 0000000180094180 f i NpRigidStatic.obj
 0001:00093230       ??_GNpRigidStatic@physx@@UEAAPEAXI@Z 0000000180094230 f i NpRigidStatic.obj
 0001:00093230       ??_ENpRigidStatic@physx@@UEAAPEAXI@Z 0000000180094230 f i NpRigidStatic.obj
 0001:00093300       ??_GPxRigidStatic@physx@@MEAAPEAXI@Z 0000000180094300 f i NpRigidStatic.obj
 0001:00093300       ??_EPxRigidStatic@physx@@MEAAPEAXI@Z 0000000180094300 f i NpRigidStatic.obj
 0001:00093340       ?attachShape@?$NpRigidActorTemplate@VPxRigidStatic@physx@@@physx@@UEAAXAEAVPxShape@2@@Z 0000000180094340 f i NpRigidStatic.obj
 0001:00093430       ?detachShape@?$NpRigidActorTemplate@VPxRigidStatic@physx@@@physx@@UEAAXAEAVPxShape@2@_N@Z 0000000180094430 f i NpRigidStatic.obj
 0001:00093520       ?exportExtraData@?$NpActorTemplate@VPxRigidStatic@physx@@@physx@@UEAAXAEAVPxSerializationContext@2@@Z 0000000180094520 f i NpRigidStatic.obj
 0001:00093530       ?exportExtraData@?$NpRigidActorTemplate@VPxRigidStatic@physx@@@physx@@UEAAXAEAVPxSerializationContext@2@@Z 0000000180094530 f i NpRigidStatic.obj
 0001:00093570       ?getActorFlags@?$NpActorTemplate@VPxRigidStatic@physx@@@physx@@UEBA?AV?$PxFlags@W4Enum@PxActorFlag@physx@@G@2@XZ 0000000180094570 f i NpRigidStatic.obj
 0001:00093610       ?getAggregate@?$NpActorTemplate@VPxRigidStatic@physx@@@physx@@UEBAPEAVPxAggregate@2@XZ 0000000180094610 f i NpRigidStatic.obj
 0001:00093620       ?getClientBehaviorFlags@?$NpActorTemplate@VPxRigidStatic@physx@@@physx@@UEBA?AV?$PxFlags@W4Enum@PxActorClientBehaviorFlag@physx@@E@2@XZ 0000000180094620 f i NpRigidStatic.obj
 0001:000936c0       ?getConcreteTypeName@PxRigidStatic@physx@@UEBAPEBDXZ 00000001800946c0 f i NpRigidStatic.obj
 0001:000936d0       ?getConstraints@?$NpRigidActorTemplate@VPxRigidStatic@physx@@@physx@@UEBAIPEAPEAVPxConstraint@2@II@Z 00000001800946d0 f i NpRigidStatic.obj
 0001:00093760       ?getDominanceGroup@?$NpActorTemplate@VPxRigidStatic@physx@@@physx@@UEBAEXZ 0000000180094760 f i NpRigidStatic.obj
 0001:00093810       ?getName@?$NpActorTemplate@VPxRigidStatic@physx@@@physx@@UEBAPEBDXZ 0000000180094810 f i NpRigidStatic.obj
 0001:00093860       ?getNbConstraints@?$NpRigidActorTemplate@VPxRigidStatic@physx@@@physx@@UEBAIXZ 0000000180094860 f i NpRigidStatic.obj
 0001:000938c0       ?getNbShapes@?$NpRigidActorTemplate@VPxRigidStatic@physx@@@physx@@UEBAIXZ 00000001800948c0 f i NpRigidStatic.obj
 0001:00093910       ?getOwnerClient@?$NpActorTemplate@VPxRigidStatic@physx@@@physx@@UEBAEXZ 0000000180094910 f i NpRigidStatic.obj
 0001:00093950       ?getScene@?$NpActorTemplate@VPxRigidStatic@physx@@@physx@@UEBAPEAVPxScene@2@XZ 0000000180094950 f i NpRigidStatic.obj
 0001:00093960       ?getShapes@?$NpRigidActorTemplate@VPxRigidStatic@physx@@@physx@@UEBAIPEAPEAVPxShape@2@II@Z 0000000180094960 f i NpRigidStatic.obj
 0001:000939f0       ?getType@NpRigidStatic@physx@@UEBA?AW4Enum@PxActorType@2@XZ 00000001800949f0 f i NpRigidStatic.obj
 0001:00093a00       ?getWorldBounds@?$NpRigidActorTemplate@VPxRigidStatic@physx@@@physx@@UEBA?AVPxBounds3@2@M@Z 0000000180094a00 f i NpRigidStatic.obj
 0001:00093ba0       ?importExtraData@?$NpRigidActorTemplate@VPxRigidStatic@physx@@@physx@@QEAAXAEAVPxDeserializationContext@2@@Z 0000000180094ba0 f i NpRigidStatic.obj
 0001:00093be0       ?isKindOf@PxRigidStatic@physx@@MEBA_NPEBD@Z 0000000180094be0 f i NpRigidStatic.obj
 0001:00093c40       ?release@?$NpActorTemplate@VPxRigidStatic@physx@@@physx@@UEAAXXZ 0000000180094c40 f i NpRigidStatic.obj
 0001:00093c50       ?release@?$NpRigidActorTemplate@VPxRigidStatic@physx@@@physx@@UEAAXXZ 0000000180094c50 f i NpRigidStatic.obj
 0001:00093cb0       ?requires@?$NpRigidActorTemplate@VPxRigidStatic@physx@@@physx@@UEAAXAEAVPxProcessPxBaseCallback@2@@Z 0000000180094cb0 f i NpRigidStatic.obj
 0001:00093d40       ?resolveReferences@?$NpActorTemplate@VPxRigidStatic@physx@@@physx@@UEAAXAEAVPxDeserializationContext@2@@Z 0000000180094d40 f i NpRigidStatic.obj
 0001:00093d50       ?resolveReferences@?$NpRigidActorTemplate@VPxRigidStatic@physx@@@physx@@UEAAXAEAVPxDeserializationContext@2@@Z 0000000180094d50 f i NpRigidStatic.obj
 0001:00093e00       ?setActor2World@RigidStatic@Scb@physx@@QEAAXAEBVPxTransform@3@@Z 0000000180094e00 f i NpRigidStatic.obj
 0001:00093f40       ?setActorFlag@?$NpActorTemplate@VPxRigidStatic@physx@@@physx@@UEAAXW4Enum@PxActorFlag@2@_N@Z 0000000180094f40 f i NpRigidStatic.obj
 0001:00094040       ?setActorFlag@?$NpRigidActorTemplate@VPxRigidStatic@physx@@@physx@@UEAAXW4Enum@PxActorFlag@2@_N@Z 0000000180095040 f i NpRigidStatic.obj
 0001:00094390       ?setActorFlags@?$NpActorTemplate@VPxRigidStatic@physx@@@physx@@UEAAXV?$PxFlags@W4Enum@PxActorFlag@physx@@G@2@@Z 0000000180095390 f i NpRigidStatic.obj
 0001:00094410       ?setActorFlags@?$NpRigidActorTemplate@VPxRigidStatic@physx@@@physx@@UEAAXV?$PxFlags@W4Enum@PxActorFlag@physx@@G@2@@Z 0000000180095410 f i NpRigidStatic.obj
 0001:000946c0       ?setClientBehaviorFlags@?$NpActorTemplate@VPxRigidStatic@physx@@@physx@@UEAAXV?$PxFlags@W4Enum@PxActorClientBehaviorFlag@physx@@E@2@@Z 00000001800956c0 f i NpRigidStatic.obj
 0001:00094740       ?setClientBehaviorFlags@?$NpRigidActorTemplate@VPxRigidStatic@physx@@@physx@@UEAAXV?$PxFlags@W4Enum@PxActorClientBehaviorFlag@physx@@E@2@@Z 0000000180095740 f i NpRigidStatic.obj
 0001:00094800       ?setDominanceGroup@?$NpActorTemplate@VPxRigidStatic@physx@@@physx@@UEAAXE@Z 0000000180095800 f i NpRigidStatic.obj
 0001:00094880       ?setName@?$NpActorTemplate@VPxRigidStatic@physx@@@physx@@UEAAXPEBD@Z 0000000180095880 f i NpRigidStatic.obj
 0001:00094960       ?setOwnerClient@?$NpActorTemplate@VPxRigidStatic@physx@@@physx@@UEAAXE@Z 0000000180095960 f i NpRigidStatic.obj
 0001:00094a00       ?switchFromNoSim@?$NpRigidActorTemplate@VPxRigidStatic@physx@@@physx@@UEAAXXZ 0000000180095a00 f i NpRigidStatic.obj
 0001:00094a10       ?switchToNoSim@?$NpRigidActorTemplate@VPxRigidStatic@physx@@@physx@@UEAAXXZ 0000000180095a10 f i NpRigidStatic.obj
 0001:00094a20       ?updateShaderComs@?$NpRigidActorTemplate@VPxRigidStatic@physx@@@physx@@QEAAXXZ 0000000180095a20 f i NpRigidStatic.obj
 0001:00094ac0       ?visualize@?$NpRigidActorTemplate@VPxRigidStatic@physx@@@physx@@QEAAXAEAVRenderOutput@Cm@2@PEAVNpScene@2@@Z 0000000180095ac0 f i NpRigidStatic.obj
 0001:00094ad0       ??0NpSceneQueries@physx@@QEAA@AEBVPxSceneDesc@1@@Z 0000000180095ad0 f   NpScene.obj
 0001:00094b90       ??1NpSceneQueries@physx@@UEAA@XZ 0000000180095b90 f   NpScene.obj
 0001:00094bf0       ?release@NpScene@physx@@UEAAXXZ 0000000180095bf0 f   NpScene.obj
 0001:00094ca0       ?setFlag@NpScene@physx@@UEAAXW4Enum@PxSceneFlag@2@_N@Z 0000000180095ca0 f   NpScene.obj
 0001:00094d70       ?getFlags@NpScene@physx@@UEBA?AV?$PxFlags@W4Enum@PxSceneFlag@physx@@G@2@XZ 0000000180095d70 f   NpScene.obj
 0001:00094dd0       ?setGravity@NpScene@physx@@UEAAXAEBVPxVec3@2@@Z 0000000180095dd0 f   NpScene.obj
 0001:00094e20       ?getGravity@NpScene@physx@@UEBA?AVPxVec3@2@XZ 0000000180095e20 f   NpScene.obj
 0001:00094ea0       ?setBounceThresholdVelocity@NpScene@physx@@UEAAXM@Z 0000000180095ea0 f   NpScene.obj
 0001:00094f30       ?getBounceThresholdVelocity@NpScene@physx@@UEBAMXZ 0000000180095f30 f   NpScene.obj
 0001:00094f90       ?getContactCorrelationDistance@NpScene@physx@@UEBAMXZ 0000000180095f90 f   NpScene.obj
 0001:00094fa0       ?getFrictionOffsetThreshold@NpScene@physx@@UEBAMXZ 0000000180095fa0 f   NpScene.obj
 0001:00094fb0       ?setLimits@NpScene@physx@@UEAAXAEBVPxSceneLimits@2@@Z 0000000180095fb0 f   NpScene.obj
 0001:00095060       ?getLimits@NpScene@physx@@UEBA?AVPxSceneLimits@2@XZ 0000000180096060 f   NpScene.obj
 0001:000950c0       ?addActor@NpScene@physx@@UEAAXAEAVPxActor@2@@Z 00000001800960c0 f   NpScene.obj
 0001:00095260       ?removeActor@NpScene@physx@@UEAAXAEAVPxActor@2@_N@Z 0000000180096260 f   NpScene.obj
 0001:000953d0       ?getNbConstraints@NpScene@physx@@UEBAIXZ 00000001800963d0 f   NpScene.obj
 0001:00095410       ?getConstraints@NpScene@physx@@UEBAIPEAPEAVPxConstraint@2@II@Z 0000000180096410 f   NpScene.obj
 0001:000954b0       ?addArticulation@NpScene@physx@@UEAAXAEAVPxArticulation@2@@Z 00000001800964b0 f   NpScene.obj
 0001:00095660       ?removeArticulation@NpScene@physx@@UEAAXAEAVPxArticulation@2@_N@Z 0000000180096660 f   NpScene.obj
 0001:000957d0       ?getNbArticulations@NpScene@physx@@UEBAIXZ 00000001800967d0 f   NpScene.obj
 0001:00095810       ?getArticulations@NpScene@physx@@UEBAIPEAPEAVPxArticulation@2@II@Z 0000000180096810 f   NpScene.obj
 0001:000958b0       ?addAggregate@NpScene@physx@@UEAAXAEAVPxAggregate@2@@Z 00000001800968b0 f   NpScene.obj
 0001:00095b00       ?removeAggregate@NpScene@physx@@UEAAXAEAVPxAggregate@2@_N@Z 0000000180096b00 f   NpScene.obj
 0001:00095e00       ?getNbAggregates@NpScene@physx@@UEBAIXZ 0000000180096e00 f   NpScene.obj
 0001:00095e40       ?getAggregates@NpScene@physx@@UEBAIPEAPEAVPxAggregate@2@II@Z 0000000180096e40 f   NpScene.obj
 0001:00095ee0       ?addCollection@NpScene@physx@@UEAAXAEBVPxCollection@2@@Z 0000000180096ee0 f   NpScene.obj
 0001:00096100       ?setDominanceGroupPair@NpScene@physx@@UEAAXEEAEBUPxDominanceGroupPair@2@@Z 0000000180097100 f   NpScene.obj
 0001:00096240       ?getDominanceGroupPair@NpScene@physx@@UEBA?AUPxDominanceGroupPair@2@EE@Z 0000000180097240 f   NpScene.obj
 0001:00096300       ?getNbActors@NpScene@physx@@UEBAIV?$PxFlags@W4Enum@PxActorTypeFlag@physx@@G@2@@Z 0000000180097300 f   NpScene.obj
 0001:00096470       ?getActors@NpScene@physx@@UEBAIV?$PxFlags@W4Enum@PxActorTypeFlag@physx@@G@2@PEAPEAVPxActor@2@II@Z 0000000180097470 f   NpScene.obj
 0001:00096660       ?getActiveTransforms@NpScene@physx@@UEAAPEBUPxActiveTransform@2@AEAIE@Z 0000000180097660 f   NpScene.obj
 0001:00096700       ?getSimulationStatistics@NpScene@physx@@UEBAXAEAVPxSimulationStatistics@2@@Z 0000000180097700 f   NpScene.obj
 0001:00096790       ?createClient@NpScene@physx@@UEAAEXZ 0000000180097790 f   NpScene.obj
 0001:00096830       ?setClientBehaviorFlags@NpScene@physx@@UEAAXEV?$PxFlags@W4Enum@PxClientBehaviorFlag@physx@@E@2@@Z 0000000180097830 f   NpScene.obj
 0001:00096910       ?getClientBehaviorFlags@NpScene@physx@@UEBA?AV?$PxFlags@W4Enum@PxClientBehaviorFlag@physx@@E@2@E@Z 0000000180097910 f   NpScene.obj
 0001:000969d0       ?setFrictionType@NpScene@physx@@UEAAXW4Enum@PxFrictionType@2@@Z 00000001800979d0 f   NpScene.obj
 0001:00096a60       ?getFrictionType@NpScene@physx@@UEBA?AW4Enum@PxFrictionType@2@XZ 0000000180097a60 f   NpScene.obj
 0001:00096aa0       ?setClothInterCollisionDistance@NpScene@physx@@UEAAXM@Z 0000000180097aa0 f   NpScene.obj
 0001:00096b60       ?getClothInterCollisionDistance@NpScene@physx@@UEBAMXZ 0000000180097b60 f   NpScene.obj
 0001:00096bb0       ?setClothInterCollisionStiffness@NpScene@physx@@UEAAXM@Z 0000000180097bb0 f   NpScene.obj
 0001:00096c70       ?getClothInterCollisionStiffness@NpScene@physx@@UEBAMXZ 0000000180097c70 f   NpScene.obj
 0001:00096cc0       ?setClothInterCollisionNbIterations@NpScene@physx@@UEAAXI@Z 0000000180097cc0 f   NpScene.obj
 0001:00096d50       ?getClothInterCollisionNbIterations@NpScene@physx@@UEBAIXZ 0000000180097d50 f   NpScene.obj
 0001:00096d90       ?setSimulationEventCallback@NpScene@physx@@UEAAXPEAVPxSimulationEventCallback@2@E@Z 0000000180097d90 f   NpScene.obj
 0001:00096e30       ?getSimulationEventCallback@NpScene@physx@@UEBAPEAVPxSimulationEventCallback@2@E@Z 0000000180097e30 f   NpScene.obj
 0001:00096e90       ?setContactModifyCallback@NpScene@physx@@UEAAXPEAVPxContactModifyCallback@2@@Z 0000000180097e90 f   NpScene.obj
 0001:00096f20       ?getContactModifyCallback@NpScene@physx@@UEBAPEAVPxContactModifyCallback@2@XZ 0000000180097f20 f   NpScene.obj
 0001:00096f70       ?setCCDContactModifyCallback@NpScene@physx@@UEAAXPEAVPxCCDContactModifyCallback@2@@Z 0000000180097f70 f   NpScene.obj
 0001:00097000       ?getCCDContactModifyCallback@NpScene@physx@@UEBAPEAVPxCCDContactModifyCallback@2@XZ 0000000180098000 f   NpScene.obj
 0001:00097050       ?setBroadPhaseCallback@NpScene@physx@@UEAAXPEAVPxBroadPhaseCallback@2@E@Z 0000000180098050 f   NpScene.obj
 0001:000970f0       ?getBroadPhaseCallback@NpScene@physx@@UEBAPEAVPxBroadPhaseCallback@2@E@Z 00000001800980f0 f   NpScene.obj
 0001:00097150       ?setCCDMaxPasses@NpScene@physx@@UEAAXI@Z 0000000180098150 f   NpScene.obj
 0001:000971e0       ?getCCDMaxPasses@NpScene@physx@@UEBAIXZ 00000001800981e0 f   NpScene.obj
 0001:00097220       ?getFilterShaderData@NpScene@physx@@UEBAPEBXXZ 0000000180098220 f   NpScene.obj
 0001:00097260       ?getFilterShaderDataSize@NpScene@physx@@UEBAIXZ 0000000180098260 f   NpScene.obj
 0001:000972a0       ?getFilterShader@NpScene@physx@@UEBAP6A?AV?$PxFlags@W4Enum@PxFilterFlag@physx@@G@2@IUPxFilterData@2@I0AEAV?$PxFlags@W4Enum@PxPairFlag@physx@@G@2@PEBXI@ZXZ 00000001800982a0 f   NpScene.obj
 0001:000972e0       ?getFilterCallback@NpScene@physx@@UEBAPEAVPxSimulationFilterCallback@2@XZ 00000001800982e0 f   NpScene.obj
 0001:00097320       ?resetFiltering@NpScene@physx@@UEAAXAEAVPxActor@2@@Z 0000000180098320 f   NpScene.obj
 0001:000974b0       ?resetFiltering@NpScene@physx@@UEAAXAEAVPxRigidActor@2@PEBQEAVPxShape@2@I@Z 00000001800984b0 f   NpScene.obj
 0001:00097630       ?getPhysics@NpScene@physx@@UEAAAEAVPxPhysics@2@XZ 0000000180098630 f   NpScene.obj
 0001:00097640       ?simulate@NpScene@physx@@UEAAXMPEAVPxBaseTask@2@PEAXI_N@Z 0000000180098640 f   NpScene.obj
 0001:00097be0       ?solve@NpScene@physx@@UEAAXMPEAVPxBaseTask@2@PEAXI_N@Z 0000000180098be0 f   NpScene.obj
 0001:00097c20       ?collide@NpScene@physx@@UEAAXMPEAVPxBaseTask@2@PEAXI@Z 0000000180098c20 f   NpScene.obj
 0001:00097c60       ?checkResults@NpScene@physx@@UEAA_N_N@Z 0000000180098c60 f   NpScene.obj
 0001:00097c70       ?checkCollision@NpScene@physx@@UEAA_N_N@Z 0000000180098c70 f   NpScene.obj
 0001:00097c80       ?fetchResults@NpScene@physx@@UEAA_N_NPEAI@Z 0000000180098c80 f   NpScene.obj
 0001:000983d0       ?flushSimulation@NpScene@physx@@UEAAX_N@Z 00000001800993d0 f   NpScene.obj
 0001:00098560       ?flushQueryUpdates@NpScene@physx@@UEAAXXZ 0000000180099560 f   NpScene.obj
 0001:000986e0       ?getRenderBuffer@NpScene@physx@@UEAAAEBVPxRenderBuffer@2@XZ 00000001800996e0 f   NpScene.obj
 0001:00098740       ?createBatchQuery@NpScene@physx@@UEAAPEAVPxBatchQuery@2@AEBVPxBatchQueryDesc@2@@Z 0000000180099740 f   NpScene.obj
 0001:00098950       ?releaseBatchQuery@NpScene@physx@@QEAAXPEAVPxBatchQuery@2@@Z 0000000180099950 f   NpScene.obj
 0001:00098a90       ?createVolumeCache@NpScene@physx@@UEAAPEAVPxVolumeCache@2@II@Z 0000000180099a90 f   NpScene.obj
 0001:00098b70       ?releaseVolumeCache@NpScene@physx@@QEAAXPEAVNpVolumeCache@2@@Z 0000000180099b70 f   NpScene.obj
 0001:00098bc0       ?setDynamicTreeRebuildRateHint@NpScene@physx@@UEAAXI@Z 0000000180099bc0 f   NpScene.obj
 0001:00098c20       ?getDynamicTreeRebuildRateHint@NpScene@physx@@UEBAIXZ 0000000180099c20 f   NpScene.obj
 0001:00098c60       ?forceDynamicTreeRebuild@NpScene@physx@@UEAAX_N0@Z 0000000180099c60 f   NpScene.obj
 0001:00098dc0       ?setSolverBatchSize@NpScene@physx@@UEAAXI@Z 0000000180099dc0 f   NpScene.obj
 0001:00098e50       ?getSolverBatchSize@NpScene@physx@@UEBAIXZ 0000000180099e50 f   NpScene.obj
 0001:00098ec0       ?setVisualizationParameter@NpScene@physx@@UEAA_NW4Enum@PxVisualizationParameter@2@M@Z 0000000180099ec0 f   NpScene.obj
 0001:00098ff0       ?getVisualizationParameter@NpScene@physx@@UEBAMW4Enum@PxVisualizationParameter@2@@Z 0000000180099ff0 f   NpScene.obj
 0001:00099070       ?setVisualizationCullingBox@NpScene@physx@@UEAAXAEBVPxBounds3@2@@Z 000000018009a070 f   NpScene.obj
 0001:00099220       ?getVisualizationCullingBox@NpScene@physx@@UEBAAEBVPxBounds3@2@XZ 000000018009a220 f   NpScene.obj
 0001:00099290       ?setNbContactDataBlocks@NpScene@physx@@UEAAXI@Z 000000018009a290 f   NpScene.obj
 0001:000992f0       ?getNbContactDataBlocksUsed@NpScene@physx@@UEBAIXZ 000000018009a2f0 f   NpScene.obj
 0001:00099350       ?getMaxNbContactDataBlocksUsed@NpScene@physx@@UEBAIXZ 000000018009a350 f   NpScene.obj
 0001:000993b0       ?getContactReportStreamBufferSize@NpScene@physx@@UEBAIXZ 000000018009a3b0 f   NpScene.obj
 0001:000993c0       ?getTimestamp@NpScene@physx@@UEBAIXZ 000000018009a3c0 f   NpScene.obj
 0001:000993d0       ?getSceneQueryStaticTimestamp@NpScene@physx@@UEBAIXZ 000000018009a3d0 f   NpScene.obj
 0001:000993e0       ?getCpuDispatcher@NpScene@physx@@UEBAPEAVPxCpuDispatcher@2@XZ 000000018009a3e0 f   NpScene.obj
 0001:00099410       ?getGpuDispatcher@NpScene@physx@@UEBAPEAVPxGpuDispatcher@2@XZ 000000018009a410 f   NpScene.obj
 0001:00099440       ?getSpuDispatcher@NpScene@physx@@UEBAPEAVPxSpuDispatcher@2@XZ 000000018009a440 f   NpScene.obj
 0001:00099470       ?getStaticStructure@NpScene@physx@@UEBA?AW4Enum@PxPruningStructure@2@XZ 000000018009a470 f   NpScene.obj
 0001:00099480       ?getDynamicStructure@NpScene@physx@@UEBA?AW4Enum@PxPruningStructure@2@XZ 000000018009a480 f   NpScene.obj
 0001:00099490       ?getMeshContactMargin@NpScene@physx@@UEBAMXZ 000000018009a490 f   NpScene.obj
 0001:000994a0       ?getBroadPhaseType@NpScene@physx@@UEBA?AW4Enum@PxBroadPhaseType@2@XZ 000000018009a4a0 f   NpScene.obj
 0001:000994e0       ?getBroadPhaseCaps@NpScene@physx@@UEBA_NAEAUPxBroadPhaseCaps@2@@Z 000000018009a4e0 f   NpScene.obj
 0001:00099540       ?getNbBroadPhaseRegions@NpScene@physx@@UEBAIXZ 000000018009a540 f   NpScene.obj
 0001:00099580       ?getBroadPhaseRegions@NpScene@physx@@UEBAIPEAUPxBroadPhaseRegionInfo@2@II@Z 000000018009a580 f   NpScene.obj
 0001:000995f0       ?addBroadPhaseRegion@NpScene@physx@@UEAAIAEBUPxBroadPhaseRegion@2@_N@Z 000000018009a5f0 f   NpScene.obj
 0001:000997a0       ?removeBroadPhaseRegion@NpScene@physx@@UEAA_NI@Z 000000018009a7a0 f   NpScene.obj
 0001:00099800       ?addActors@NpScene@physx@@UEAAXPEBQEAVPxActor@2@I@Z 000000018009a800 f   NpScene.obj
 0001:00099f40       ?removeActors@NpScene@physx@@UEAAXPEBQEAVPxActor@2@I_N@Z 000000018009af40 f   NpScene.obj
 0001:0009a500       ?lockRead@NpScene@physx@@UEAAXPEBDI@Z 000000018009b500 f   NpScene.obj
 0001:0009a580       ?unlockRead@NpScene@physx@@UEAAXXZ 000000018009b580 f   NpScene.obj
 0001:0009a630       ?lockWrite@NpScene@physx@@UEAAXPEBDI@Z 000000018009b630 f   NpScene.obj
 0001:0009a710       ?unlockWrite@NpScene@physx@@UEAAXXZ 000000018009b710 f   NpScene.obj
 0001:0009a7c0       ?getWakeCounterResetValue@NpScene@physx@@UEBAMXZ 000000018009b7c0 f   NpScene.obj
 0001:0009a810       ?shiftOrigin@NpScene@physx@@UEAAXAEBVPxVec3@2@@Z 000000018009b810 f   NpScene.obj
 0001:0009aea0       ??0NpScene@physx@@QEAA@AEBVPxSceneDesc@1@@Z 000000018009bea0 f   NpScene.obj
 0001:0009b450       ??1NpScene@physx@@UEAA@XZ  000000018009c450 f   NpScene.obj
 0001:0009ba40       ?prepareSolve@NpScene@physx@@QEAAXMPEAXI@Z 000000018009ca40 f   NpScene.obj
 0001:0009bd80       ?prepareCollide@NpScene@physx@@QEAAXM@Z 000000018009cd80 f   NpScene.obj
 0001:0009be20       ?addActorInternal@NpScene@physx@@QEAAXAEAVPxActor@2@@Z 000000018009ce20 f   NpScene.obj
 0001:0009bfb0       ?removeActorInternal@NpScene@physx@@QEAAXAEAVPxActor@2@_N1@Z 000000018009cfb0 f   NpScene.obj
 0001:0009c0b0       ?addArticulationInternal@NpScene@physx@@QEAAXAEAVPxArticulation@2@@Z 000000018009d0b0 f   NpScene.obj
 0001:0009c640       ?removeArticulationInternal@NpScene@physx@@QEAAXAEAVPxArticulation@2@_N1@Z 000000018009d640 f   NpScene.obj
 0001:0009c8b0       ?addMaterial@NpScene@physx@@QEAA_NAEAVNpMaterial@2@@Z 000000018009d8b0 f   NpScene.obj
 0001:0009c8d0       ?updateMaterial@NpScene@physx@@QEAAXAEAVNpMaterial@2@@Z 000000018009d8d0 f   NpScene.obj
 0001:0009c8f0       ?removeMaterial@NpScene@physx@@QEAAXAEAVNpMaterial@2@@Z 000000018009d8f0 f   NpScene.obj
 0001:0009c910       ?executeScene@NpScene@physx@@QEAAXPEAVPxBaseTask@2@@Z 000000018009d910 f   NpScene.obj
 0001:0009c930       ?executeCollide@NpScene@physx@@QEAAXPEAVPxBaseTask@2@@Z 000000018009d930 f   NpScene.obj
 0001:0009c950       ?executeSolve@NpScene@physx@@QEAAXPEAVPxBaseTask@2@@Z 000000018009d950 f   NpScene.obj
 0001:0009c970       ?loadFromDesc@NpScene@physx@@QEAA_NAEBVPxSceneDesc@2@@Z 000000018009d970 f   NpScene.obj
 0001:0009c9e0       ?removeFromRigidActorList@NpScene@physx@@QEAAXAEBI@Z 000000018009d9e0 f   NpScene.obj
 0001:0009ca60       ?removeFromParticleBaseList@NpScene@physx@@QEAAXAEAVPxParticleBase@2@@Z 000000018009da60 f   NpScene.obj
 0001:0009cad0       ?addArticulationLink@NpScene@physx@@QEAAXAEAVNpArticulationLink@2@@Z 000000018009dad0 f   NpScene.obj
 0001:0009cb40       ?addArticulationLinkBody@NpScene@physx@@QEAAXAEAVNpArticulationLink@2@@Z 000000018009db40 f   NpScene.obj
 0001:0009cb70       ?addArticulationLinkConstraint@NpScene@physx@@QEAAXAEAVNpArticulationLink@2@@Z 000000018009db70 f   NpScene.obj
 0001:0009cbc0       ?removeArticulationLink@NpScene@physx@@QEAAXAEAVNpArticulationLink@2@_N@Z 000000018009dbc0 f   NpScene.obj
 0001:0009cc50       ?startWrite@NpScene@physx@@QEAA_N_N@Z 000000018009dc50 f   NpScene.obj
 0001:0009cd50       ?stopWrite@NpScene@physx@@QEAAX_N@Z 000000018009dd50 f   NpScene.obj
 0001:0009cde0       ?startRead@NpScene@physx@@QEBA_NXZ 000000018009dde0 f   NpScene.obj
 0001:0009ced0       ?stopRead@NpScene@physx@@QEBAXXZ 000000018009ded0 f   NpScene.obj
 0001:0009cf50       ?checkPositionSanity@NpScene@physx@@QEBAXAEBVPxRigidActor@2@AEBVPxTransform@2@PEBD@Z 000000018009df50 f   NpScene.obj
 0001:0009cff0       ?addCloth@NpScene@physx@@QEAAXAEAVNpCloth@2@@Z 000000018009dff0 f   NpScene.obj
 0001:0009d110       ?removeCloth@NpScene@physx@@QEAAXAEAVNpCloth@2@@Z 000000018009e110 f   NpScene.obj
 0001:0009d250       ?checkResultsInternal@NpScene@physx@@AEAA_N_N@Z 000000018009e250 f   NpScene.obj
 0001:0009d350       ?checkCollisionInternal@NpScene@physx@@AEAA_N_N@Z 000000018009e350 f   NpScene.obj
 0001:0009d450       ?addRigidStatic@NpScene@physx@@AEAAXAEAVNpRigidStatic@2@@Z 000000018009e450 f   NpScene.obj
 0001:0009d520       ?removeRigidStatic@NpScene@physx@@AEAAXAEAVNpRigidStatic@2@_N1@Z 000000018009e520 f   NpScene.obj
 0001:0009d600       ?addRigidDynamic@NpScene@physx@@AEAAXAEAVNpRigidDynamic@2@@Z 000000018009e600 f   NpScene.obj
 0001:0009d6d0       ?removeRigidDynamic@NpScene@physx@@AEAAXAEAVNpRigidDynamic@2@_N1@Z 000000018009e6d0 f   NpScene.obj
 0001:0009d7b0       ?addParticleSystem@NpScene@physx@@AEAAXAEAVNpParticleSystem@2@@Z 000000018009e7b0 f   NpScene.obj
 0001:0009d8d0       ?removeParticleSystem@NpScene@physx@@AEAAXAEAVNpParticleSystem@2@@Z 000000018009e8d0 f   NpScene.obj
 0001:0009da10       ?addParticleFluid@NpScene@physx@@AEAAXAEAVNpParticleFluid@2@@Z 000000018009ea10 f   NpScene.obj
 0001:0009db30       ?removeParticleFluid@NpScene@physx@@AEAAXAEAVNpParticleFluid@2@@Z 000000018009eb30 f   NpScene.obj
 0001:0009dc70       ?visualize@NpScene@physx@@AEAAXXZ 000000018009ec70 f   NpScene.obj
 0001:0009dfa0       ?updateDirtyShaders@NpScene@physx@@AEAAXXZ 000000018009efa0 f   NpScene.obj
 0001:0009e0b0       ?fireCallBacksPreSync@NpScene@physx@@AEAAXXZ 000000018009f0b0 f   NpScene.obj
 0001:0009e300       ?updateScbStateAndSetupSq@NpScene@physx@@AEAAXAEBVPxRigidActor@2@AEAVActor@Scb@2@AEAVNpShapeManager@2@_NPEAVPxBounds3@2@@Z 000000018009f300 f   NpScene.obj
 0001:0009e460       ?NpGetPxScene@physx@@YAPEAVPxScene@1@AEAVScene@Scb@1@@Z 000000018009f460 f   NpScene.obj
 0001:000a0ad0       ??$allocArrayBuffer@PEAVShape@Scb@physx@@@Scene@Scb@physx@@AEAAPEAPEAVShape@12@AEAV?$Array@PEAVShape@Scb@physx@@VNamedAllocator@shdfnd@3@@shdfnd@2@IAEAI@Z 00000001800a1ad0 f i NpScene.obj
 0001:000a0b30       ??$append@UPxDebugLine@physx@@@RenderBuffer@Cm@physx@@AEAAXAEAV?$Array@UPxDebugLine@physx@@VNamedAllocator@shdfnd@2@@shdfnd@2@PEBUPxDebugLine@2@I@Z 00000001800a1b30 f i NpScene.obj
 0001:000a0c20       ??$append@UPxDebugPoint@physx@@@RenderBuffer@Cm@physx@@AEAAXAEAV?$Array@UPxDebugPoint@physx@@VNamedAllocator@shdfnd@2@@shdfnd@2@PEBUPxDebugPoint@2@I@Z 00000001800a1c20 f i NpScene.obj
 0001:000a0ce0       ??$append@UPxDebugText@physx@@@RenderBuffer@Cm@physx@@AEAAXAEAV?$Array@UPxDebugText@physx@@VNamedAllocator@shdfnd@2@@shdfnd@2@PEBUPxDebugText@2@I@Z 00000001800a1ce0 f i NpScene.obj
 0001:000a0dc0       ??$append@UPxDebugTriangle@physx@@@RenderBuffer@Cm@physx@@AEAAXAEAV?$Array@UPxDebugTriangle@physx@@VNamedAllocator@shdfnd@2@@shdfnd@2@PEBUPxDebugTriangle@2@I@Z 00000001800a1dc0 f i NpScene.obj
 0001:000a0ee0       ??0?$InlineArray@PEAVShapeSim@Sc@physx@@$0EA@VNamedAllocator@shdfnd@3@@shdfnd@physx@@QEAA@AEBVNamedAllocator@12@@Z 00000001800a1ee0 f i NpScene.obj
 0001:000a1000       ??0?$InlineArray@VPxBounds3@physx@@$07VNamedAllocator@shdfnd@2@@shdfnd@physx@@QEAA@AEBVNamedAllocator@12@@Z 00000001800a2000 f i NpScene.obj
 0001:000a1120       ??0EventProfiler@Cm@physx@@QEAA@PEAVPxProfileEventSender@2@_K@Z 00000001800a2120 f i NpScene.obj
 0001:000a1230       ??0RenderBuffer@Cm@physx@@QEAA@XZ 00000001800a2230 f i NpScene.obj
 0001:000a1390       ??1?$Array@V?$DelegateTask@VScene@Sc@physx@@$1?ccdBroadPhase@123@AEAAXPEAVPxBaseTask@3@@Z@Cm@physx@@VNamedAllocator@shdfnd@3@@shdfnd@physx@@QEAA@XZ 00000001800a2390 f i NpScene.obj
 0001:000a1420       ??1?$Array@V?$DelegateTask@VScene@Sc@physx@@$1?postCCDPass@123@AEAAXPEAVPxBaseTask@3@@Z@Cm@physx@@VNamedAllocator@shdfnd@3@@shdfnd@physx@@QEAA@XZ 00000001800a2420 f i NpScene.obj
 0001:000a14b0       ??1?$Array@V?$DelegateTask@VScene@Sc@physx@@$1?updateCCDSinglePass@123@AEAAXPEAVPxBaseTask@3@@Z@Cm@physx@@VNamedAllocator@shdfnd@3@@shdfnd@physx@@QEAA@XZ 00000001800a24b0 f i NpScene.obj
 0001:000a1540       ??1?$PoolBase@U?$Block@E$0BAA@@Cm@physx@@VNamedAllocator@shdfnd@3@@shdfnd@physx@@QEAA@XZ 00000001800a2540 f i NpScene.obj
 0001:000a1660       ??1?$PoolBase@U?$Block@E$0BIA@@Cm@physx@@VNamedAllocator@shdfnd@3@@shdfnd@physx@@QEAA@XZ 00000001800a2660 f i NpScene.obj
 0001:000a1780       ??1?$PoolBase@U?$Block@E$0IA@@Cm@physx@@VNamedAllocator@shdfnd@3@@shdfnd@physx@@QEAA@XZ 00000001800a2780 f i NpScene.obj
 0001:000a18a0       ??1FanoutTask@Cm@physx@@UEAA@XZ 00000001800a28a0 f i NpScene.obj
 0001:000a1990       ??1FlushPool@Cm@physx@@QEAA@XZ 00000001800a2990 f i NpScene.obj
 0001:000a1a50       ??1PxRenderBuffer@physx@@UEAA@XZ 00000001800a2a50 f i NpScene.obj
 0001:000a1a60       ??1PxScene@physx@@MEAA@XZ  00000001800a2a60 f i NpScene.obj
 0001:000a1a70       ??1RenderBuffer@Cm@physx@@UEAA@XZ 00000001800a2a70 f i NpScene.obj
 0001:000a1b90       ??1Scene@Sc@physx@@QEAA@XZ 00000001800a2b90 f i NpScene.obj
 0001:000a2120       ??1Scene@Scb@physx@@QEAA@XZ 00000001800a3120 f i NpScene.obj
 0001:000a23c0       ??_E?$DelegateTask@VNpScene@physx@@$H?executeCollide@12@QEAAXPEAVPxBaseTask@2@@ZA@@Cm@physx@@UEAAPEAXI@Z 00000001800a33c0 f i NpScene.obj
 0001:000a23c0       ??_G?$DelegateTask@VNpScene@physx@@$H?executeCollide@12@QEAAXPEAVPxBaseTask@2@@ZA@@Cm@physx@@UEAAPEAXI@Z 00000001800a33c0 f i NpScene.obj
 0001:000a2430       ??_G?$DelegateTask@VNpScene@physx@@$H?executeScene@12@QEAAXPEAVPxBaseTask@2@@ZA@@Cm@physx@@UEAAPEAXI@Z 00000001800a3430 f i NpScene.obj
 0001:000a2430       ??_E?$DelegateTask@VNpScene@physx@@$H?executeScene@12@QEAAXPEAVPxBaseTask@2@@ZA@@Cm@physx@@UEAAPEAXI@Z 00000001800a3430 f i NpScene.obj
 0001:000a24a0       ??_G?$DelegateTask@VNpScene@physx@@$H?executeSolve@12@QEAAXPEAVPxBaseTask@2@@ZA@@Cm@physx@@UEAAPEAXI@Z 00000001800a34a0 f i NpScene.obj
 0001:000a24a0       ??_E?$DelegateTask@VNpScene@physx@@$H?executeSolve@12@QEAAXPEAVPxBaseTask@2@@ZA@@Cm@physx@@UEAAPEAXI@Z 00000001800a34a0 f i NpScene.obj
 0001:000a2510       ??_GNpScene@physx@@UEAAPEAXI@Z 00000001800a3510 f i NpScene.obj
 0001:000a2510       ??_ENpScene@physx@@UEAAPEAXI@Z 00000001800a3510 f i NpScene.obj
 0001:000a2580       ??_ENpSceneQueries@physx@@UEAAPEAXI@Z 00000001800a3580 f i NpScene.obj
 0001:000a2580       ??_GNpSceneQueries@physx@@UEAAPEAXI@Z 00000001800a3580 f i NpScene.obj
 0001:000a2610       ??_EPxLightCpuTask@physx@@UEAAPEAXI@Z 00000001800a3610 f i NpScene.obj
 0001:000a2610       ??_GPxLightCpuTask@physx@@UEAAPEAXI@Z 00000001800a3610 f i NpScene.obj
 0001:000a2650       ??_EPxRenderBuffer@physx@@UEAAPEAXI@Z 00000001800a3650 f i NpScene.obj
 0001:000a2650       ??_GPxRenderBuffer@physx@@UEAAPEAXI@Z 00000001800a3650 f i NpScene.obj
 0001:000a2690       ??_GPxScene@physx@@MEAAPEAXI@Z 00000001800a3690 f i NpScene.obj
 0001:000a2690       ??_EPxScene@physx@@MEAAPEAXI@Z 00000001800a3690 f i NpScene.obj
 0001:000a26d0       ??_ERenderBuffer@Cm@physx@@UEAAPEAXI@Z 00000001800a36d0 f i NpScene.obj
 0001:000a26d0       ??_GRenderBuffer@Cm@physx@@UEAAPEAXI@Z 00000001800a36d0 f i NpScene.obj
 0001:000a2740       ??_GSceneCompletion@NpScene@physx@@UEAAPEAXI@Z 00000001800a3740 f i NpScene.obj
 0001:000a2740       ??_ESceneCompletion@NpScene@physx@@UEAAPEAXI@Z 00000001800a3740 f i NpScene.obj
 0001:000a2780       ??_ETask@Cm@physx@@UEAAPEAXI@Z 00000001800a3780 f i NpScene.obj
 0001:000a2780       ??_GTask@Cm@physx@@UEAAPEAXI@Z 00000001800a3780 f i NpScene.obj
 0001:000a27c0       ?addReference@PxLightCpuTask@physx@@UEAAXXZ 00000001800a37c0 f i NpScene.obj
 0001:000a27e0       ?allocate@?$Array@VPxBounds3@physx@@V?$InlineAllocator@$0MA@VNamedAllocator@shdfnd@physx@@@shdfnd@2@@shdfnd@physx@@IEAAPEAVPxBounds3@3@I@Z 00000001800a37e0 f i NpScene.obj
 0001:000a2880       ?append@RenderBuffer@Cm@physx@@UEAAXAEBVPxRenderBuffer@3@@Z 00000001800a3880 f i NpScene.obj
 0001:000a2970       ?clear@RenderBuffer@Cm@physx@@UEAAXXZ 00000001800a3970 f i NpScene.obj
 0001:000a2990       ?copy@?$Array@UPxDebugLine@physx@@VNamedAllocator@shdfnd@2@@shdfnd@physx@@KAXPEAUPxDebugLine@3@0PEBU43@@Z 00000001800a3990 f i NpScene.obj
 0001:000a2ba0       ?copy@?$Array@UPxDebugPoint@physx@@VNamedAllocator@shdfnd@2@@shdfnd@physx@@KAXPEAUPxDebugPoint@3@0PEBU43@@Z 00000001800a3ba0 f i NpScene.obj
 0001:000a2d10       ?copy@?$Array@UPxDebugText@physx@@VNamedAllocator@shdfnd@2@@shdfnd@physx@@KAXPEAUPxDebugText@3@0PEBU43@@Z 00000001800a3d10 f i NpScene.obj
 0001:000a2ee0       ?copy@?$Array@UPxDebugTriangle@physx@@VNamedAllocator@shdfnd@2@@shdfnd@physx@@KAXPEAUPxDebugTriangle@3@0PEBU43@@Z 00000001800a3ee0 f i NpScene.obj
 0001:000a31b0       ?copy@?$Array@VPxBounds3@physx@@V?$InlineAllocator@$0MA@VNamedAllocator@shdfnd@physx@@@shdfnd@2@@shdfnd@physx@@KAXPEAVPxBounds3@3@0PEBV43@@Z 00000001800a41b0 f i NpScene.obj
 0001:000a3380       ?create@?$HashBase@PEAVNpVolumeCache@physx@@PEAV12@U?$Hash@PEAVNpVolumeCache@physx@@@shdfnd@2@UGetKey@?$HashSetBase@PEAVNpVolumeCache@physx@@U?$Hash@PEAVNpVolumeCache@physx@@@shdfnd@2@VAllocator@42@$0A@@internal@42@VAllocator@42@$0A@@internal@shdfnd@physx@@QEAAPEAPEAVNpVolumeCache@4@AEBQEAV54@AEA_N@Z 00000001800a4380 f i NpScene.obj
 0001:000a3570       ?createClient@Scene@Scb@physx@@QEAAEXZ 00000001800a4570 f i NpScene.obj
 0001:000a35f0       ?disposeElements@?$PoolBase@U?$Block@E$0BAA@@Cm@physx@@VNamedAllocator@shdfnd@3@@shdfnd@physx@@IEAAXXZ 00000001800a45f0 f i NpScene.obj
 0001:000a37d0       ?disposeElements@?$PoolBase@U?$Block@E$0BIA@@Cm@physx@@VNamedAllocator@shdfnd@3@@shdfnd@physx@@IEAAXXZ 00000001800a47d0 f i NpScene.obj
 0001:000a39b0       ?disposeElements@?$PoolBase@U?$Block@E$0IA@@Cm@physx@@VNamedAllocator@shdfnd@3@@shdfnd@physx@@IEAAXXZ 00000001800a49b0 f i NpScene.obj
 0001:000a3b90       ?erase@?$HashBase@PEAVNpVolumeCache@physx@@PEAV12@U?$Hash@PEAVNpVolumeCache@physx@@@shdfnd@2@UGetKey@?$HashSetBase@PEAVNpVolumeCache@physx@@U?$Hash@PEAVNpVolumeCache@physx@@@shdfnd@2@VAllocator@42@$0A@@internal@42@VAllocator@42@$0A@@internal@shdfnd@physx@@QEAA_NAEBQEAVNpVolumeCache@4@@Z 00000001800a4b90 f i NpScene.obj
 0001:000a3ca0       ?find@?$HashBase@V?$Pair@$$CBUEventIdContextPair@nvtx@@_K@shdfnd@physx@@UEventIdContextPair@nvtx@@U?$Hash@UEventIdContextPair@nvtx@@@5@UGetKey@?$HashMapBase@UEventIdContextPair@nvtx@@_KU?$Hash@UEventIdContextPair@nvtx@@@2@VAllocator@shdfnd@physx@@@internal@23@VAllocator@23@$00@internal@shdfnd@physx@@QEBAPEBV?$Pair@$$CBUEventIdContextPair@nvtx@@_K@34@AEBUEventIdContextPair@nvtx@@@Z 00000001800a4ca0 f i NpScene.obj
 0001:000a3db0       ?flush@NpScene@physx@@UEAAX_N@Z 00000001800a4db0 f i NpScene.obj
 0001:000a3dc0       ?flush@Scene@Scb@physx@@QEAAX_N@Z 00000001800a4dc0 f i NpScene.obj
 0001:000a3eb0       ?freeListAdd@?$HashBase@PEAVNpVolumeCache@physx@@PEAV12@U?$Hash@PEAVNpVolumeCache@physx@@@shdfnd@2@UGetKey@?$HashSetBase@PEAVNpVolumeCache@physx@@U?$Hash@PEAVNpVolumeCache@physx@@@shdfnd@2@VAllocator@42@$0A@@internal@42@VAllocator@42@$0A@@internal@shdfnd@physx@@AEAAXII@Z 00000001800a4eb0 f i NpScene.obj
 0001:000a3ff0       ?getDominanceGroupPair@Scene@Scb@physx@@QEBA?AUPxDominanceGroupPair@3@EE@Z 00000001800a4ff0 f i NpScene.obj
 0001:000a4100       ?getLines@RenderBuffer@Cm@physx@@UEBAPEBUPxDebugLine@3@XZ 00000001800a5100 f i NpScene.obj
 0001:000a4110       ?getName@?$DelegateTask@VNpScene@physx@@$H?executeCollide@12@QEAAXPEAVPxBaseTask@2@@ZA@@Cm@physx@@UEBAPEBDXZ 00000001800a5110 f i NpScene.obj
 0001:000a4120       ?getName@?$DelegateTask@VNpScene@physx@@$H?executeScene@12@QEAAXPEAVPxBaseTask@2@@ZA@@Cm@physx@@UEBAPEBDXZ 00000001800a5120 f i NpScene.obj
 0001:000a4130       ?getName@?$DelegateTask@VNpScene@physx@@$H?executeSolve@12@QEAAXPEAVPxBaseTask@2@@ZA@@Cm@physx@@UEBAPEBDXZ 00000001800a5130 f i NpScene.obj
 0001:000a4140       ?getName@SceneCompletion@NpScene@physx@@UEBAPEBDXZ 00000001800a5140 f i NpScene.obj
 0001:000a4150       ?getNbLines@RenderBuffer@Cm@physx@@UEBAIXZ 00000001800a5150 f i NpScene.obj
 0001:000a4160       ?getNbPoints@RenderBuffer@Cm@physx@@UEBAIXZ 00000001800a5160 f i NpScene.obj
 0001:000a4170       ?getNbTexts@RenderBuffer@Cm@physx@@UEBAIXZ 00000001800a5170 f i NpScene.obj
 0001:000a4180       ?getNbTriangles@RenderBuffer@Cm@physx@@UEBAIXZ 00000001800a5180 f i NpScene.obj
 0001:000a4190       ?getPoints@RenderBuffer@Cm@physx@@UEBAPEBUPxDebugPoint@3@XZ 00000001800a5190 f i NpScene.obj
 0001:000a41a0       ?getReference@PxLightCpuTask@physx@@UEBAHXZ 00000001800a51a0 f i NpScene.obj
 0001:000a41b0       ?getTaskManager@NpScene@physx@@UEAAPEAVPxTaskManager@2@XZ 00000001800a51b0 f i NpScene.obj
 0001:000a41c0       ?getTaskManager@NpScene@physx@@UEBAPEAVPxTaskManager@2@XZ 00000001800a51c0 f i NpScene.obj
 0001:000a41d0       ?getTexts@RenderBuffer@Cm@physx@@UEBAPEBUPxDebugText@3@XZ 00000001800a51d0 f i NpScene.obj
 0001:000a41e0       ?getTriangles@RenderBuffer@Cm@physx@@UEBAPEBUPxDebugTriangle@3@XZ 00000001800a51e0 f i NpScene.obj
 0001:000a41f0       ?growAndPushBack@?$Array@PEAVNpBatchQuery@physx@@VNamedAllocator@shdfnd@2@@shdfnd@physx@@IEAAAEAPEAVNpBatchQuery@3@AEBQEAV43@@Z 00000001800a51f0 f i NpScene.obj
 0001:000a4310       ?growAndPushBack@?$Array@PEAVNpVolumeCache@physx@@VNamedAllocator@shdfnd@2@@shdfnd@physx@@IEAAAEAPEAVNpVolumeCache@3@AEBQEAV43@@Z 00000001800a5310 f i NpScene.obj
 0001:000a4430       ?growAndPushBack@?$Array@PEAVPxAggregate@physx@@VNamedAllocator@shdfnd@2@@shdfnd@physx@@IEAAAEAPEAVPxAggregate@3@AEBQEAV43@@Z 00000001800a5430 f i NpScene.obj
 0001:000a4550       ?growAndPushBack@?$Array@PEAVPxArticulation@physx@@VNamedAllocator@shdfnd@2@@shdfnd@physx@@IEAAAEAPEAVPxArticulation@3@AEBQEAV43@@Z 00000001800a5550 f i NpScene.obj
 0001:000a4670       ?growAndPushBack@?$Array@PEAVPxCloth@physx@@VNamedAllocator@shdfnd@2@@shdfnd@physx@@IEAAAEAPEAVPxCloth@3@AEBQEAV43@@Z 00000001800a5670 f i NpScene.obj
 0001:000a4790       ?growAndPushBack@?$Array@PEAVPxParticleBase@physx@@VNamedAllocator@shdfnd@2@@shdfnd@physx@@IEAAAEAPEAVPxParticleBase@3@AEBQEAV43@@Z 00000001800a5790 f i NpScene.obj
 0001:000a48b0       ?growAndPushBack@?$Array@PEAVPxRigidActor@physx@@VNamedAllocator@shdfnd@2@@shdfnd@physx@@IEAAAEAPEAVPxRigidActor@3@AEBQEAV43@@Z 00000001800a58b0 f i NpScene.obj
 0001:000a49d0       ?growAndPushBack@?$Array@UPxDebugLine@physx@@VNamedAllocator@shdfnd@2@@shdfnd@physx@@IEAAAEAUPxDebugLine@3@AEBU43@@Z 00000001800a59d0 f i NpScene.obj
 0001:000a4b10       ?growAndPushBack@?$Array@UPxDebugPoint@physx@@VNamedAllocator@shdfnd@2@@shdfnd@physx@@IEAAAEAUPxDebugPoint@3@AEBU43@@Z 00000001800a5b10 f i NpScene.obj
 0001:000a4c30       ?growAndPushBack@?$Array@UPxDebugText@physx@@VNamedAllocator@shdfnd@2@@shdfnd@physx@@IEAAAEAUPxDebugText@3@AEBU43@@Z 00000001800a5c30 f i NpScene.obj
 0001:000a4d60       ?growAndPushBack@?$Array@UPxDebugTriangle@physx@@VNamedAllocator@shdfnd@2@@shdfnd@physx@@IEAAAEAUPxDebugTriangle@3@AEBU43@@Z 00000001800a5d60 f i NpScene.obj
 0001:000a4ed0       ?isAddedShape@RigidObject@Scb@physx@@QEAA_NAEAVShape@23@@Z 00000001800a5ed0 f i NpScene.obj
 0001:000a4f90       ?recreate@?$Array@GVNamedAllocator@shdfnd@physx@@@shdfnd@physx@@IEAAXI@Z 00000001800a5f90 f i NpScene.obj
 0001:000a5070       ?recreate@?$Array@PEAVNpVolumeCache@physx@@VNamedAllocator@shdfnd@2@@shdfnd@physx@@IEAAXI@Z 00000001800a6070 f i NpScene.obj
 0001:000a5150       ?recreate@?$Array@PEAVPxRigidActor@physx@@VNamedAllocator@shdfnd@2@@shdfnd@physx@@IEAAXI@Z 00000001800a6150 f i NpScene.obj
 0001:000a5230       ?recreate@?$Array@PEAVShape@Scb@physx@@VNamedAllocator@shdfnd@3@@shdfnd@physx@@IEAAXI@Z 00000001800a6230 f i NpScene.obj
 0001:000a5310       ?recreate@?$Array@PEAXVNamedAllocator@shdfnd@physx@@@shdfnd@physx@@IEAAXI@Z 00000001800a6310 f i NpScene.obj
 0001:000a53f0       ?recreate@?$Array@UPxDebugLine@physx@@VNamedAllocator@shdfnd@2@@shdfnd@physx@@IEAAXI@Z 00000001800a63f0 f i NpScene.obj
 0001:000a54b0       ?recreate@?$Array@UPxDebugPoint@physx@@VNamedAllocator@shdfnd@2@@shdfnd@physx@@IEAAXI@Z 00000001800a64b0 f i NpScene.obj
 0001:000a5570       ?recreate@?$Array@UPxDebugText@physx@@VNamedAllocator@shdfnd@2@@shdfnd@physx@@IEAAXI@Z 00000001800a6570 f i NpScene.obj
 0001:000a5630       ?recreate@?$Array@UPxDebugTriangle@physx@@VNamedAllocator@shdfnd@2@@shdfnd@physx@@IEAAXI@Z 00000001800a6630 f i NpScene.obj
 0001:000a5700       ?recreate@?$Array@VPxBounds3@physx@@V?$InlineAllocator@$0MA@VNamedAllocator@shdfnd@physx@@@shdfnd@2@@shdfnd@physx@@IEAAXI@Z 00000001800a6700 f i NpScene.obj
 0001:000a57a0       ?release@PxLightCpuTask@physx@@UEAAXXZ 00000001800a67a0 f i NpScene.obj
 0001:000a57c0       ?release@SceneCompletion@NpScene@physx@@UEAAXXZ 00000001800a67c0 f i NpScene.obj
 0001:000a5800       ?removeReference@PxLightCpuTask@physx@@UEAAXXZ 00000001800a6800 f i NpScene.obj
 0001:000a5820       ?reserveInternal@?$HashBase@PEAVNpVolumeCache@physx@@PEAV12@U?$Hash@PEAVNpVolumeCache@physx@@@shdfnd@2@UGetKey@?$HashSetBase@PEAVNpVolumeCache@physx@@U?$Hash@PEAVNpVolumeCache@physx@@@shdfnd@2@VAllocator@42@$0A@@internal@42@VAllocator@42@$0A@@internal@shdfnd@physx@@AEAAXI@Z 00000001800a6820 f i NpScene.obj
 0001:000a5b80       ?reserveInternal@?$HashBase@V?$Pair@$$CBUEventIdContextPair@nvtx@@_K@shdfnd@physx@@UEventIdContextPair@nvtx@@U?$Hash@UEventIdContextPair@nvtx@@@5@UGetKey@?$HashMapBase@UEventIdContextPair@nvtx@@_KU?$Hash@UEventIdContextPair@nvtx@@@2@VAllocator@shdfnd@physx@@@internal@23@VAllocator@23@$00@internal@shdfnd@physx@@AEAAXI@Z 00000001800a6b80 f i NpScene.obj
 0001:000a5dc0       ?resetFiltering@?$NpRigidActorTemplate@VPxArticulationLink@physx@@@physx@@QEAA_NAEAVRigidObject@Scb@2@PEBQEAVPxShape@2@I@Z 00000001800a6dc0 f i NpScene.obj
 0001:000a61d0       ?resetFiltering@?$NpRigidActorTemplate@VPxRigidDynamic@physx@@@physx@@QEAA_NAEAVRigidObject@Scb@2@PEBQEAVPxShape@2@I@Z 00000001800a71d0 f i NpScene.obj
 0001:000a65e0       ?resetFiltering@?$NpRigidActorTemplate@VPxRigidStatic@physx@@@physx@@QEAA_NAEAVRigidObject@Scb@2@PEBQEAVPxShape@2@I@Z 00000001800a75e0 f i NpScene.obj
 0001:000a69f0       ?resetFiltering@ParticleSystem@Scb@physx@@QEAAXXZ 00000001800a79f0 f i NpScene.obj
 0001:000a6ab0       ?resetFiltering@RigidObject@Scb@physx@@QEAAXPEBQEAVShape@23@I@Z 00000001800a7ab0 f i NpScene.obj
 0001:000a6df0       ?resize@?$Array@GVNamedAllocator@shdfnd@physx@@@shdfnd@physx@@QEAAXIAEBG@Z 00000001800a7df0 f i NpScene.obj
 0001:000a6e70       ?resize@?$Array@PEAVShape@Scb@physx@@VNamedAllocator@shdfnd@3@@shdfnd@physx@@QEAAXIAEBQEAVShape@Scb@3@@Z 00000001800a7e70 f i NpScene.obj
 0001:000a6ef0       ?resize@?$Array@PEAXVNamedAllocator@shdfnd@physx@@@shdfnd@physx@@QEAAXIAEBQEAX@Z 00000001800a7ef0 f i NpScene.obj
 0001:000a6f70       ?resizeUninitialized@?$Array@VPxBounds3@physx@@V?$InlineAllocator@$0MA@VNamedAllocator@shdfnd@physx@@@shdfnd@2@@shdfnd@physx@@QEAAXI@Z 00000001800a7f70 f i NpScene.obj
 0001:000a6fd0       ?run@Task@Cm@physx@@UEAAXXZ 00000001800a7fd0 f i NpScene.obj
 0001:000a7020       ?runInternal@?$DelegateTask@VNpScene@physx@@$H?executeCollide@12@QEAAXPEAVPxBaseTask@2@@ZA@@Cm@physx@@UEAAXXZ 00000001800a8020 f i NpScene.obj
 0001:000a7030       ?runInternal@?$DelegateTask@VNpScene@physx@@$H?executeScene@12@QEAAXPEAVPxBaseTask@2@@ZA@@Cm@physx@@UEAAXXZ 00000001800a8030 f i NpScene.obj
 0001:000a7040       ?runInternal@?$DelegateTask@VNpScene@physx@@$H?executeSolve@12@QEAAXPEAVPxBaseTask@2@@ZA@@Cm@physx@@UEAAXXZ 00000001800a8040 f i NpScene.obj
 0001:000a7050       ?runInternal@SceneCompletion@NpScene@physx@@UEAAXXZ 00000001800a8050 f i NpScene.obj
 0001:000a7060       ?setDominanceGroupPair@Scene@Scb@physx@@QEAAXEEAEBUPxDominanceGroupPair@3@@Z 00000001800a8060 f i NpScene.obj
 0001:000a70d0       ?setDominancePair@SceneBuffer@Scb@physx@@QEAAXIIAEBUPxDominanceGroupPair@3@@Z 00000001800a80d0 f i NpScene.obj
 0001:000a7190       ?setFlags@Scene@Scb@physx@@QEAAXV?$PxFlags@W4Enum@PxSceneFlag@physx@@G@3@@Z 00000001800a8190 f i NpScene.obj
 0001:000a7240       ?setGravity@Scene@Scb@physx@@QEAAXAEBVPxVec3@3@@Z 00000001800a8240 f i NpScene.obj
 0001:000a72e0       ?shift@RenderBuffer@Cm@physx@@QEAAXAEBVPxVec3@3@@Z 00000001800a82e0 f i NpScene.obj
 0001:000a7550       ?raycast@NpSceneQueries@physx@@UEBA_NAEBVPxVec3@2@0MAEAU?$PxHitCallback@UPxRaycastHit@physx@@@2@V?$PxFlags@W4Enum@PxHitFlag@physx@@G@2@AEBUPxQueryFilterData@2@PEAVPxQueryFilterCallback@2@PEBUPxQueryCache@2@@Z 00000001800a8550 f   NpSceneQueries.obj
 0001:000a76f0       ?sweep@NpSceneQueries@physx@@UEBA_NAEBVPxGeometry@2@AEBVPxTransform@2@AEBVPxVec3@2@MAEAU?$PxHitCallback@UPxSweepHit@physx@@@2@V?$PxFlags@W4Enum@PxHitFlag@physx@@G@2@AEBUPxQueryFilterData@2@PEAVPxQueryFilterCallback@2@PEBUPxQueryCache@2@M@Z 00000001800a86f0 f   NpSceneQueries.obj
 0001:000a7990       ?overlap@NpSceneQueries@physx@@UEBA_NAEBVPxGeometry@2@AEBVPxTransform@2@AEAU?$PxHitCallback@UPxOverlapHit@physx@@@2@AEBUPxQueryFilterData@2@PEAVPxQueryFilterCallback@2@@Z 00000001800a8990 f   NpSceneQueries.obj
 0001:000a82f0       ??$multiQuery@UPxOverlapHit@physx@@@NpSceneQueries@physx@@QEBA_NAEBUMultiQueryInput@1@AEAU?$PxHitCallback@UPxOverlapHit@physx@@@1@V?$PxFlags@W4Enum@PxHitFlag@physx@@G@1@PEBUPxQueryCache@1@AEBUPxQueryFilterData@1@PEAVPxQueryFilterCallback@1@PEAUBatchQueryFilterData@1@@Z 00000001800a92f0 f i NpSceneQueries.obj
 0001:000a87e0       ??$multiQuery@UPxRaycastHit@physx@@@NpSceneQueries@physx@@QEBA_NAEBUMultiQueryInput@1@AEAU?$PxHitCallback@UPxRaycastHit@physx@@@1@V?$PxFlags@W4Enum@PxHitFlag@physx@@G@1@PEBUPxQueryCache@1@AEBUPxQueryFilterData@1@PEAVPxQueryFilterCallback@1@PEAUBatchQueryFilterData@1@@Z 00000001800a97e0 f i NpSceneQueries.obj
 0001:000a8e70       ??$multiQuery@UPxSweepHit@physx@@@NpSceneQueries@physx@@QEBA_NAEBUMultiQueryInput@1@AEAU?$PxHitCallback@UPxSweepHit@physx@@@1@V?$PxFlags@W4Enum@PxHitFlag@physx@@G@1@PEBUPxQueryCache@1@AEBUPxQueryFilterData@1@PEAVPxQueryFilterCallback@1@PEAUBatchQueryFilterData@1@@Z 00000001800a9e70 f i NpSceneQueries.obj
 0001:000a9670       ??0?$CapturePvdOnReturn@UPxOverlapHit@physx@@@@QEAA@PEBVNpSceneQueries@physx@@AEBUMultiQueryInput@2@V?$PxFlags@W4Enum@PxHitFlag@physx@@G@2@PEBUPxQueryCache@2@AEBUPxQueryFilterData@2@PEAVPxQueryFilterCallback@2@PEAUBatchQueryFilterData@2@AEAU?$PxHitCallback@UPxOverlapHit@physx@@@2@@Z 00000001800aa670 f i NpSceneQueries.obj
 0001:000a9780       ??0?$CapturePvdOnReturn@UPxRaycastHit@physx@@@@QEAA@PEBVNpSceneQueries@physx@@AEBUMultiQueryInput@2@V?$PxFlags@W4Enum@PxHitFlag@physx@@G@2@PEBUPxQueryCache@2@AEBUPxQueryFilterData@2@PEAVPxQueryFilterCallback@2@PEAUBatchQueryFilterData@2@AEAU?$PxHitCallback@UPxRaycastHit@physx@@@2@@Z 00000001800aa780 f i NpSceneQueries.obj
 0001:000a98c0       ??0?$CapturePvdOnReturn@UPxSweepHit@physx@@@@QEAA@PEBVNpSceneQueries@physx@@AEBUMultiQueryInput@2@V?$PxFlags@W4Enum@PxHitFlag@physx@@G@2@PEBUPxQueryCache@2@AEBUPxQueryFilterData@2@PEAVPxQueryFilterCallback@2@PEAUBatchQueryFilterData@2@AEAU?$PxHitCallback@UPxSweepHit@physx@@@2@@Z 00000001800aa8c0 f i NpSceneQueries.obj
 0001:000a9a00       ??0PxOverlapHit@physx@@QEAA@XZ 00000001800aaa00 f i NpSceneQueries.obj
 0001:000a9a20       ??0PxQuat@physx@@QEAA@AEBVPxMat33@1@@Z 00000001800aaa20 f i NpSceneQueries.obj
 0001:000a9cb0       ??0PxRaycastHit@physx@@QEAA@XZ 00000001800aacb0 f i NpSceneQueries.obj
 0001:000a9cf0       ??0PxSweepHit@physx@@QEAA@XZ 00000001800aacf0 f i NpSceneQueries.obj
 0001:000a9d30       ??0ShapeData@Sq@physx@@QEAA@AEBVPxGeometry@2@AEBVPxTransform@2@M@Z 00000001800aad30 f i NpSceneQueries.obj
 0001:000aa420       ??1?$CapturePvdOnReturn@UPxOverlapHit@physx@@@@UEAA@XZ 00000001800ab420 f i NpSceneQueries.obj
 0001:000aa670       ??1?$CapturePvdOnReturn@UPxRaycastHit@physx@@@@UEAA@XZ 00000001800ab670 f i NpSceneQueries.obj
 0001:000aaa80       ??1?$CapturePvdOnReturn@UPxSweepHit@physx@@@@UEAA@XZ 00000001800aba80 f i NpSceneQueries.obj
 0001:000aaec0       ??1PrunerCallback@Sq@physx@@UEAA@XZ 00000001800abec0 f i NpSceneQueries.obj
 0001:000aaed0       ??_E?$CapturePvdOnReturn@UPxOverlapHit@physx@@@@UEAAPEAXI@Z 00000001800abed0 f i NpSceneQueries.obj
 0001:000aaed0       ??_G?$CapturePvdOnReturn@UPxOverlapHit@physx@@@@UEAAPEAXI@Z 00000001800abed0 f i NpSceneQueries.obj
 0001:000aaf20       ??_E?$CapturePvdOnReturn@UPxRaycastHit@physx@@@@UEAAPEAXI@Z 00000001800abf20 f i NpSceneQueries.obj
 0001:000aaf20       ??_G?$CapturePvdOnReturn@UPxRaycastHit@physx@@@@UEAAPEAXI@Z 00000001800abf20 f i NpSceneQueries.obj
 0001:000aaf70       ??_G?$CapturePvdOnReturn@UPxSweepHit@physx@@@@UEAAPEAXI@Z 00000001800abf70 f i NpSceneQueries.obj
 0001:000aaf70       ??_E?$CapturePvdOnReturn@UPxSweepHit@physx@@@@UEAAPEAXI@Z 00000001800abf70 f i NpSceneQueries.obj
 0001:000aafc0       ??_G?$MultiQueryCallback@UPxOverlapHit@physx@@@@UEAAPEAXI@Z 00000001800abfc0 f i NpSceneQueries.obj
 0001:000aafc0       ??_E?$MultiQueryCallback@UPxOverlapHit@physx@@@@UEAAPEAXI@Z 00000001800abfc0 f i NpSceneQueries.obj
 0001:000ab000       ??_G?$MultiQueryCallback@UPxRaycastHit@physx@@@@UEAAPEAXI@Z 00000001800ac000 f i NpSceneQueries.obj
 0001:000ab000       ??_E?$MultiQueryCallback@UPxRaycastHit@physx@@@@UEAAPEAXI@Z 00000001800ac000 f i NpSceneQueries.obj
 0001:000ab040       ??_G?$MultiQueryCallback@UPxSweepHit@physx@@@@UEAAPEAXI@Z 00000001800ac040 f i NpSceneQueries.obj
 0001:000ab040       ??_E?$MultiQueryCallback@UPxSweepHit@physx@@@@UEAAPEAXI@Z 00000001800ac040 f i NpSceneQueries.obj
 0001:000ab080       ??_GPrunerCallback@Sq@physx@@UEAAPEAXI@Z 00000001800ac080 f i NpSceneQueries.obj
 0001:000ab080       ??_EPrunerCallback@Sq@physx@@UEAAPEAXI@Z 00000001800ac080 f i NpSceneQueries.obj
 0001:000ab0c0       ?copy@?$Array@UPxRaycastHit@physx@@VNamedAllocator@shdfnd@2@@shdfnd@physx@@KAXPEAUPxRaycastHit@3@0PEBU43@@Z 00000001800ac0c0 f i NpSceneQueries.obj
 0001:000ab3f0       ?copy@?$Array@UPxSweepHit@physx@@VNamedAllocator@shdfnd@2@@shdfnd@physx@@KAXPEAUPxSweepHit@3@0PEBU43@@Z 00000001800ac3f0 f i NpSceneQueries.obj
 0001:000ab6f0       ?growAndPushBack@?$Array@UPxOverlapHit@physx@@VNamedAllocator@shdfnd@2@@shdfnd@physx@@IEAAAEAUPxOverlapHit@3@AEBU43@@Z 00000001800ac6f0 f i NpSceneQueries.obj
 0001:000ab820       ?growAndPushBack@?$Array@UPxRaycastHit@physx@@VNamedAllocator@shdfnd@2@@shdfnd@physx@@IEAAAEAUPxRaycastHit@3@AEBU43@@Z 00000001800ac820 f i NpSceneQueries.obj
 0001:000ab990       ?growAndPushBack@?$Array@UPxSweepHit@physx@@VNamedAllocator@shdfnd@2@@shdfnd@physx@@IEAAAEAUPxSweepHit@3@AEBU43@@Z 00000001800ac990 f i NpSceneQueries.obj
 0001:000abaf0       ?invoke@?$MultiQueryCallback@UPxOverlapHit@physx@@@@UEAA_NAEAMPEBUPrunerPayload@Sq@physx@@I@Z 00000001800acaf0 f i NpSceneQueries.obj
 0001:000ac1f0       ?invoke@?$MultiQueryCallback@UPxRaycastHit@physx@@@@UEAA_NAEAMPEBUPrunerPayload@Sq@physx@@I@Z 00000001800ad1f0 f i NpSceneQueries.obj
 0001:000acf50       ?invoke@?$MultiQueryCallback@UPxSweepHit@physx@@@@UEAA_NAEAMPEBUPrunerPayload@Sq@physx@@I@Z 00000001800adf50 f i NpSceneQueries.obj
 0001:000ae030       ?processTouches@?$CapturePvdOnReturn@UPxOverlapHit@physx@@@@UEAA_NPEBUPxOverlapHit@physx@@I@Z 00000001800af030 f i NpSceneQueries.obj
 0001:000ae0f0       ?processTouches@?$CapturePvdOnReturn@UPxRaycastHit@physx@@@@UEAA_NPEBUPxRaycastHit@physx@@I@Z 00000001800af0f0 f i NpSceneQueries.obj
 0001:000ae210       ?processTouches@?$CapturePvdOnReturn@UPxSweepHit@physx@@@@UEAA_NPEBUPxSweepHit@physx@@I@Z 00000001800af210 f i NpSceneQueries.obj
 0001:000ae320       PxRegisterPhysicsSerializers 00000001800af320 f   NpSerializerAdapter.obj
 0001:000ae980       PxUnregisterPhysicsSerializers 00000001800af980 f   NpSerializerAdapter.obj
 0001:000af010       ??1PxProcessPxBaseCallback@physx@@UEAA@XZ 00000001800b0010 f i NpSerializerAdapter.obj
 0001:000af020       ??1PxSerializer@physx@@UEAA@XZ 00000001800b0020 f i NpSerializerAdapter.obj
 0001:000af030       ??_G?$PxSerializerDefaultAdapter@VConvexMesh@Gu@physx@@@physx@@UEAAPEAXI@Z 00000001800b0030 f i NpSerializerAdapter.obj
 0001:000af030       ??_E?$PxSerializerDefaultAdapter@VConvexMesh@Gu@physx@@@physx@@UEAAPEAXI@Z 00000001800b0030 f i NpSerializerAdapter.obj
 0001:000af070       ??_E?$PxSerializerDefaultAdapter@VHeightField@Gu@physx@@@physx@@UEAAPEAXI@Z 00000001800b0070 f i NpSerializerAdapter.obj
 0001:000af070       ??_G?$PxSerializerDefaultAdapter@VHeightField@Gu@physx@@@physx@@UEAAPEAXI@Z 00000001800b0070 f i NpSerializerAdapter.obj
 0001:000af0b0       ??_E?$PxSerializerDefaultAdapter@VNpAggregate@physx@@@physx@@UEAAPEAXI@Z 00000001800b00b0 f i NpSerializerAdapter.obj
 0001:000af0b0       ??_G?$PxSerializerDefaultAdapter@VNpAggregate@physx@@@physx@@UEAAPEAXI@Z 00000001800b00b0 f i NpSerializerAdapter.obj
 0001:000af0f0       ??_E?$PxSerializerDefaultAdapter@VNpArticulation@physx@@@physx@@UEAAPEAXI@Z 00000001800b00f0 f i NpSerializerAdapter.obj
 0001:000af0f0       ??_G?$PxSerializerDefaultAdapter@VNpArticulation@physx@@@physx@@UEAAPEAXI@Z 00000001800b00f0 f i NpSerializerAdapter.obj
 0001:000af130       ??_E?$PxSerializerDefaultAdapter@VNpArticulationJoint@physx@@@physx@@UEAAPEAXI@Z 00000001800b0130 f i NpSerializerAdapter.obj
 0001:000af130       ??_G?$PxSerializerDefaultAdapter@VNpArticulationJoint@physx@@@physx@@UEAAPEAXI@Z 00000001800b0130 f i NpSerializerAdapter.obj
 0001:000af170       ??_G?$PxSerializerDefaultAdapter@VNpArticulationLink@physx@@@physx@@UEAAPEAXI@Z 00000001800b0170 f i NpSerializerAdapter.obj
 0001:000af170       ??_E?$PxSerializerDefaultAdapter@VNpArticulationLink@physx@@@physx@@UEAAPEAXI@Z 00000001800b0170 f i NpSerializerAdapter.obj
 0001:000af1b0       ??_G?$PxSerializerDefaultAdapter@VNpCloth@physx@@@physx@@UEAAPEAXI@Z 00000001800b01b0 f i NpSerializerAdapter.obj
 0001:000af1b0       ??_E?$PxSerializerDefaultAdapter@VNpCloth@physx@@@physx@@UEAAPEAXI@Z 00000001800b01b0 f i NpSerializerAdapter.obj
 0001:000af1f0       ??_G?$PxSerializerDefaultAdapter@VNpClothFabric@physx@@@physx@@UEAAPEAXI@Z 00000001800b01f0 f i NpSerializerAdapter.obj
 0001:000af1f0       ??_E?$PxSerializerDefaultAdapter@VNpClothFabric@physx@@@physx@@UEAAPEAXI@Z 00000001800b01f0 f i NpSerializerAdapter.obj
 0001:000af230       ??_G?$PxSerializerDefaultAdapter@VNpConstraint@physx@@@physx@@UEAAPEAXI@Z 00000001800b0230 f i NpSerializerAdapter.obj
 0001:000af230       ??_E?$PxSerializerDefaultAdapter@VNpConstraint@physx@@@physx@@UEAAPEAXI@Z 00000001800b0230 f i NpSerializerAdapter.obj
 0001:000af270       ??_G?$PxSerializerDefaultAdapter@VNpMaterial@physx@@@physx@@UEAAPEAXI@Z 00000001800b0270 f i NpSerializerAdapter.obj
 0001:000af270       ??_E?$PxSerializerDefaultAdapter@VNpMaterial@physx@@@physx@@UEAAPEAXI@Z 00000001800b0270 f i NpSerializerAdapter.obj
 0001:000af2b0       ??_E?$PxSerializerDefaultAdapter@VNpParticleFluid@physx@@@physx@@UEAAPEAXI@Z 00000001800b02b0 f i NpSerializerAdapter.obj
 0001:000af2b0       ??_G?$PxSerializerDefaultAdapter@VNpParticleFluid@physx@@@physx@@UEAAPEAXI@Z 00000001800b02b0 f i NpSerializerAdapter.obj
 0001:000af2f0       ??_G?$PxSerializerDefaultAdapter@VNpParticleSystem@physx@@@physx@@UEAAPEAXI@Z 00000001800b02f0 f i NpSerializerAdapter.obj
 0001:000af2f0       ??_E?$PxSerializerDefaultAdapter@VNpParticleSystem@physx@@@physx@@UEAAPEAXI@Z 00000001800b02f0 f i NpSerializerAdapter.obj
 0001:000af330       ??_G?$PxSerializerDefaultAdapter@VNpRigidDynamic@physx@@@physx@@UEAAPEAXI@Z 00000001800b0330 f i NpSerializerAdapter.obj
 0001:000af330       ??_E?$PxSerializerDefaultAdapter@VNpRigidDynamic@physx@@@physx@@UEAAPEAXI@Z 00000001800b0330 f i NpSerializerAdapter.obj
 0001:000af370       ??_G?$PxSerializerDefaultAdapter@VNpRigidStatic@physx@@@physx@@UEAAPEAXI@Z 00000001800b0370 f i NpSerializerAdapter.obj
 0001:000af370       ??_E?$PxSerializerDefaultAdapter@VNpRigidStatic@physx@@@physx@@UEAAPEAXI@Z 00000001800b0370 f i NpSerializerAdapter.obj
 0001:000af3b0       ??_G?$PxSerializerDefaultAdapter@VNpShape@physx@@@physx@@UEAAPEAXI@Z 00000001800b03b0 f i NpSerializerAdapter.obj
 0001:000af3b0       ??_E?$PxSerializerDefaultAdapter@VNpShape@physx@@@physx@@UEAAPEAXI@Z 00000001800b03b0 f i NpSerializerAdapter.obj
 0001:000af3f0       ??_G?$PxSerializerDefaultAdapter@VTriangleMesh@Gu@physx@@@physx@@UEAAPEAXI@Z 00000001800b03f0 f i NpSerializerAdapter.obj
 0001:000af3f0       ??_E?$PxSerializerDefaultAdapter@VTriangleMesh@Gu@physx@@@physx@@UEAAPEAXI@Z 00000001800b03f0 f i NpSerializerAdapter.obj
 0001:000af430       ??_EPxProcessPxBaseCallback@physx@@UEAAPEAXI@Z 00000001800b0430 f i NpSerializerAdapter.obj
 0001:000af430       ??_GPxProcessPxBaseCallback@physx@@UEAAPEAXI@Z 00000001800b0430 f i NpSerializerAdapter.obj
 0001:000af470       ??_EPxSerializer@physx@@UEAAPEAXI@Z 00000001800b0470 f i NpSerializerAdapter.obj
 0001:000af470       ??_GPxSerializer@physx@@UEAAPEAXI@Z 00000001800b0470 f i NpSerializerAdapter.obj
 0001:000af4b0       ??_ERequiresCallback@?1??registerReferences@?$PxSerializerDefaultAdapter@VConvexMesh@Gu@physx@@@physx@@UEBAXAEAVPxBase@3@AEAVPxSerializationContext@3@@Z@UEAAPEAXI@Z 00000001800b04b0 f i NpSerializerAdapter.obj
 0001:000af4b0       ??_GRequiresCallback@?1??registerReferences@?$PxSerializerDefaultAdapter@VConvexMesh@Gu@physx@@@physx@@UEBAXAEAVPxBase@3@AEAVPxSerializationContext@3@@Z@UEAAPEAXI@Z 00000001800b04b0 f i NpSerializerAdapter.obj
 0001:000af4f0       ??_GRequiresCallback@?1??registerReferences@?$PxSerializerDefaultAdapter@VHeightField@Gu@physx@@@physx@@UEBAXAEAVPxBase@3@AEAVPxSerializationContext@3@@Z@UEAAPEAXI@Z 00000001800b04f0 f i NpSerializerAdapter.obj
 0001:000af4f0       ??_ERequiresCallback@?1??registerReferences@?$PxSerializerDefaultAdapter@VHeightField@Gu@physx@@@physx@@UEBAXAEAVPxBase@3@AEAVPxSerializationContext@3@@Z@UEAAPEAXI@Z 00000001800b04f0 f i NpSerializerAdapter.obj
 0001:000af530       ??_GRequiresCallback@?1??registerReferences@?$PxSerializerDefaultAdapter@VNpAggregate@physx@@@physx@@UEBAXAEAVPxBase@3@AEAVPxSerializationContext@3@@Z@UEAAPEAXI@Z 00000001800b0530 f i NpSerializerAdapter.obj
 0001:000af530       ??_ERequiresCallback@?1??registerReferences@?$PxSerializerDefaultAdapter@VNpAggregate@physx@@@physx@@UEBAXAEAVPxBase@3@AEAVPxSerializationContext@3@@Z@UEAAPEAXI@Z 00000001800b0530 f i NpSerializerAdapter.obj
 0001:000af570       ??_ERequiresCallback@?1??registerReferences@?$PxSerializerDefaultAdapter@VNpArticulation@physx@@@physx@@UEBAXAEAVPxBase@3@AEAVPxSerializationContext@3@@Z@UEAAPEAXI@Z 00000001800b0570 f i NpSerializerAdapter.obj
 0001:000af570       ??_GRequiresCallback@?1??registerReferences@?$PxSerializerDefaultAdapter@VNpArticulation@physx@@@physx@@UEBAXAEAVPxBase@3@AEAVPxSerializationContext@3@@Z@UEAAPEAXI@Z 00000001800b0570 f i NpSerializerAdapter.obj
 0001:000af5b0       ??_ERequiresCallback@?1??registerReferences@?$PxSerializerDefaultAdapter@VNpArticulationJoint@physx@@@physx@@UEBAXAEAVPxBase@3@AEAVPxSerializationContext@3@@Z@UEAAPEAXI@Z 00000001800b05b0 f i NpSerializerAdapter.obj
 0001:000af5b0       ??_GRequiresCallback@?1??registerReferences@?$PxSerializerDefaultAdapter@VNpArticulationJoint@physx@@@physx@@UEBAXAEAVPxBase@3@AEAVPxSerializationContext@3@@Z@UEAAPEAXI@Z 00000001800b05b0 f i NpSerializerAdapter.obj
 0001:000af5f0       ??_GRequiresCallback@?1??registerReferences@?$PxSerializerDefaultAdapter@VNpArticulationLink@physx@@@physx@@UEBAXAEAVPxBase@3@AEAVPxSerializationContext@3@@Z@UEAAPEAXI@Z 00000001800b05f0 f i NpSerializerAdapter.obj
 0001:000af5f0       ??_ERequiresCallback@?1??registerReferences@?$PxSerializerDefaultAdapter@VNpArticulationLink@physx@@@physx@@UEBAXAEAVPxBase@3@AEAVPxSerializationContext@3@@Z@UEAAPEAXI@Z 00000001800b05f0 f i NpSerializerAdapter.obj
 0001:000af630       ??_ERequiresCallback@?1??registerReferences@?$PxSerializerDefaultAdapter@VNpCloth@physx@@@physx@@UEBAXAEAVPxBase@3@AEAVPxSerializationContext@3@@Z@UEAAPEAXI@Z 00000001800b0630 f i NpSerializerAdapter.obj
 0001:000af630       ??_GRequiresCallback@?1??registerReferences@?$PxSerializerDefaultAdapter@VNpCloth@physx@@@physx@@UEBAXAEAVPxBase@3@AEAVPxSerializationContext@3@@Z@UEAAPEAXI@Z 00000001800b0630 f i NpSerializerAdapter.obj
 0001:000af670       ??_ERequiresCallback@?1??registerReferences@?$PxSerializerDefaultAdapter@VNpClothFabric@physx@@@physx@@UEBAXAEAVPxBase@3@AEAVPxSerializationContext@3@@Z@UEAAPEAXI@Z 00000001800b0670 f i NpSerializerAdapter.obj
 0001:000af670       ??_GRequiresCallback@?1??registerReferences@?$PxSerializerDefaultAdapter@VNpClothFabric@physx@@@physx@@UEBAXAEAVPxBase@3@AEAVPxSerializationContext@3@@Z@UEAAPEAXI@Z 00000001800b0670 f i NpSerializerAdapter.obj
 0001:000af6b0       ??_GRequiresCallback@?1??registerReferences@?$PxSerializerDefaultAdapter@VNpConstraint@physx@@@physx@@UEBAXAEAVPxBase@3@AEAVPxSerializationContext@3@@Z@UEAAPEAXI@Z 00000001800b06b0 f i NpSerializerAdapter.obj
 0001:000af6b0       ??_ERequiresCallback@?1??registerReferences@?$PxSerializerDefaultAdapter@VNpConstraint@physx@@@physx@@UEBAXAEAVPxBase@3@AEAVPxSerializationContext@3@@Z@UEAAPEAXI@Z 00000001800b06b0 f i NpSerializerAdapter.obj
 0001:000af6f0       ??_ERequiresCallback@?1??registerReferences@?$PxSerializerDefaultAdapter@VNpMaterial@physx@@@physx@@UEBAXAEAVPxBase@3@AEAVPxSerializationContext@3@@Z@UEAAPEAXI@Z 00000001800b06f0 f i NpSerializerAdapter.obj
 0001:000af6f0       ??_GRequiresCallback@?1??registerReferences@?$PxSerializerDefaultAdapter@VNpMaterial@physx@@@physx@@UEBAXAEAVPxBase@3@AEAVPxSerializationContext@3@@Z@UEAAPEAXI@Z 00000001800b06f0 f i NpSerializerAdapter.obj
 0001:000af730       ??_ERequiresCallback@?1??registerReferences@?$PxSerializerDefaultAdapter@VNpParticleFluid@physx@@@physx@@UEBAXAEAVPxBase@3@AEAVPxSerializationContext@3@@Z@UEAAPEAXI@Z 00000001800b0730 f i NpSerializerAdapter.obj
 0001:000af730       ??_GRequiresCallback@?1??registerReferences@?$PxSerializerDefaultAdapter@VNpParticleFluid@physx@@@physx@@UEBAXAEAVPxBase@3@AEAVPxSerializationContext@3@@Z@UEAAPEAXI@Z 00000001800b0730 f i NpSerializerAdapter.obj
 0001:000af770       ??_ERequiresCallback@?1??registerReferences@?$PxSerializerDefaultAdapter@VNpParticleSystem@physx@@@physx@@UEBAXAEAVPxBase@3@AEAVPxSerializationContext@3@@Z@UEAAPEAXI@Z 00000001800b0770 f i NpSerializerAdapter.obj
 0001:000af770       ??_GRequiresCallback@?1??registerReferences@?$PxSerializerDefaultAdapter@VNpParticleSystem@physx@@@physx@@UEBAXAEAVPxBase@3@AEAVPxSerializationContext@3@@Z@UEAAPEAXI@Z 00000001800b0770 f i NpSerializerAdapter.obj
 0001:000af7b0       ??_GRequiresCallback@?1??registerReferences@?$PxSerializerDefaultAdapter@VNpRigidDynamic@physx@@@physx@@UEBAXAEAVPxBase@3@AEAVPxSerializationContext@3@@Z@UEAAPEAXI@Z 00000001800b07b0 f i NpSerializerAdapter.obj
 0001:000af7b0       ??_ERequiresCallback@?1??registerReferences@?$PxSerializerDefaultAdapter@VNpRigidDynamic@physx@@@physx@@UEBAXAEAVPxBase@3@AEAVPxSerializationContext@3@@Z@UEAAPEAXI@Z 00000001800b07b0 f i NpSerializerAdapter.obj
 0001:000af7f0       ??_GRequiresCallback@?1??registerReferences@?$PxSerializerDefaultAdapter@VNpRigidStatic@physx@@@physx@@UEBAXAEAVPxBase@3@AEAVPxSerializationContext@3@@Z@UEAAPEAXI@Z 00000001800b07f0 f i NpSerializerAdapter.obj
 0001:000af7f0       ??_ERequiresCallback@?1??registerReferences@?$PxSerializerDefaultAdapter@VNpRigidStatic@physx@@@physx@@UEBAXAEAVPxBase@3@AEAVPxSerializationContext@3@@Z@UEAAPEAXI@Z 00000001800b07f0 f i NpSerializerAdapter.obj
 0001:000af830       ??_ERequiresCallback@?1??registerReferences@?$PxSerializerDefaultAdapter@VNpShape@physx@@@physx@@UEBAXAEAVPxBase@3@AEAVPxSerializationContext@3@@Z@UEAAPEAXI@Z 00000001800b0830 f i NpSerializerAdapter.obj
 0001:000af830       ??_GRequiresCallback@?1??registerReferences@?$PxSerializerDefaultAdapter@VNpShape@physx@@@physx@@UEBAXAEAVPxBase@3@AEAVPxSerializationContext@3@@Z@UEAAPEAXI@Z 00000001800b0830 f i NpSerializerAdapter.obj
 0001:000af870       ??_GRequiresCallback@?1??registerReferences@?$PxSerializerDefaultAdapter@VTriangleMesh@Gu@physx@@@physx@@UEBAXAEAVPxBase@3@AEAVPxSerializationContext@3@@Z@UEAAPEAXI@Z 00000001800b0870 f i NpSerializerAdapter.obj
 0001:000af870       ??_ERequiresCallback@?1??registerReferences@?$PxSerializerDefaultAdapter@VTriangleMesh@Gu@physx@@@physx@@UEBAXAEAVPxBase@3@AEAVPxSerializationContext@3@@Z@UEAAPEAXI@Z 00000001800b0870 f i NpSerializerAdapter.obj
 0001:000af8b0       ?createObject@?$PxSerializerDefaultAdapter@VConvexMesh@Gu@physx@@@physx@@UEBAPEAVPxBase@2@AEAPEAEAEAVPxDeserializationContext@2@@Z 00000001800b08b0 f i NpSerializerAdapter.obj
 0001:000af8c0       ?createObject@?$PxSerializerDefaultAdapter@VHeightField@Gu@physx@@@physx@@UEBAPEAVPxBase@2@AEAPEAEAEAVPxDeserializationContext@2@@Z 00000001800b08c0 f i NpSerializerAdapter.obj
 0001:000af8d0       ?createObject@?$PxSerializerDefaultAdapter@VNpAggregate@physx@@@physx@@UEBAPEAVPxBase@2@AEAPEAEAEAVPxDeserializationContext@2@@Z 00000001800b08d0 f i NpSerializerAdapter.obj
 0001:000af8e0       ?createObject@?$PxSerializerDefaultAdapter@VNpArticulation@physx@@@physx@@UEBAPEAVPxBase@2@AEAPEAEAEAVPxDeserializationContext@2@@Z 00000001800b08e0 f i NpSerializerAdapter.obj
 0001:000af8f0       ?createObject@?$PxSerializerDefaultAdapter@VNpArticulationJoint@physx@@@physx@@UEBAPEAVPxBase@2@AEAPEAEAEAVPxDeserializationContext@2@@Z 00000001800b08f0 f i NpSerializerAdapter.obj
 0001:000af900       ?createObject@?$PxSerializerDefaultAdapter@VNpArticulationLink@physx@@@physx@@UEBAPEAVPxBase@2@AEAPEAEAEAVPxDeserializationContext@2@@Z 00000001800b0900 f i NpSerializerAdapter.obj
 0001:000af910       ?createObject@?$PxSerializerDefaultAdapter@VNpCloth@physx@@@physx@@UEBAPEAVPxBase@2@AEAPEAEAEAVPxDeserializationContext@2@@Z 00000001800b0910 f i NpSerializerAdapter.obj
 0001:000af920       ?createObject@?$PxSerializerDefaultAdapter@VNpClothFabric@physx@@@physx@@UEBAPEAVPxBase@2@AEAPEAEAEAVPxDeserializationContext@2@@Z 00000001800b0920 f i NpSerializerAdapter.obj
 0001:000af930       ?createObject@?$PxSerializerDefaultAdapter@VNpConstraint@physx@@@physx@@UEBAPEAVPxBase@2@AEAPEAEAEAVPxDeserializationContext@2@@Z 00000001800b0930 f i NpSerializerAdapter.obj
 0001:000af940       ?createObject@?$PxSerializerDefaultAdapter@VNpMaterial@physx@@@physx@@UEBAPEAVPxBase@2@AEAPEAEAEAVPxDeserializationContext@2@@Z 00000001800b0940 f i NpSerializerAdapter.obj
 0001:000af950       ?createObject@?$PxSerializerDefaultAdapter@VNpParticleFluid@physx@@@physx@@UEBAPEAVPxBase@2@AEAPEAEAEAVPxDeserializationContext@2@@Z 00000001800b0950 f i NpSerializerAdapter.obj
 0001:000af960       ?createObject@?$PxSerializerDefaultAdapter@VNpParticleSystem@physx@@@physx@@UEBAPEAVPxBase@2@AEAPEAEAEAVPxDeserializationContext@2@@Z 00000001800b0960 f i NpSerializerAdapter.obj
 0001:000af970       ?createObject@?$PxSerializerDefaultAdapter@VNpRigidDynamic@physx@@@physx@@UEBAPEAVPxBase@2@AEAPEAEAEAVPxDeserializationContext@2@@Z 00000001800b0970 f i NpSerializerAdapter.obj
 0001:000af980       ?createObject@?$PxSerializerDefaultAdapter@VNpRigidStatic@physx@@@physx@@UEBAPEAVPxBase@2@AEAPEAEAEAVPxDeserializationContext@2@@Z 00000001800b0980 f i NpSerializerAdapter.obj
 0001:000af990       ?createObject@?$PxSerializerDefaultAdapter@VNpShape@physx@@@physx@@UEBAPEAVPxBase@2@AEAPEAEAEAVPxDeserializationContext@2@@Z 00000001800b0990 f i NpSerializerAdapter.obj
 0001:000af9a0       ?createObject@?$PxSerializerDefaultAdapter@VTriangleMesh@Gu@physx@@@physx@@UEBAPEAVPxBase@2@AEAPEAEAEAVPxDeserializationContext@2@@Z 00000001800b09a0 f i NpSerializerAdapter.obj
 0001:000af9b0       ?exportData@?$PxSerializerDefaultAdapter@VConvexMesh@Gu@physx@@@physx@@UEBAXAEAVPxBase@2@AEAVPxSerializationContext@2@@Z 00000001800b09b0 f i NpSerializerAdapter.obj
 0001:000af9d0       ?exportData@?$PxSerializerDefaultAdapter@VHeightField@Gu@physx@@@physx@@UEBAXAEAVPxBase@2@AEAVPxSerializationContext@2@@Z 00000001800b09d0 f i NpSerializerAdapter.obj
 0001:000af9f0       ?exportData@?$PxSerializerDefaultAdapter@VNpAggregate@physx@@@physx@@UEBAXAEAVPxBase@2@AEAVPxSerializationContext@2@@Z 00000001800b09f0 f i NpSerializerAdapter.obj
 0001:000afa10       ?exportData@?$PxSerializerDefaultAdapter@VNpArticulation@physx@@@physx@@UEBAXAEAVPxBase@2@AEAVPxSerializationContext@2@@Z 00000001800b0a10 f i NpSerializerAdapter.obj
 0001:000afa30       ?exportData@?$PxSerializerDefaultAdapter@VNpArticulationJoint@physx@@@physx@@UEBAXAEAVPxBase@2@AEAVPxSerializationContext@2@@Z 00000001800b0a30 f i NpSerializerAdapter.obj
 0001:000afa50       ?exportData@?$PxSerializerDefaultAdapter@VNpArticulationLink@physx@@@physx@@UEBAXAEAVPxBase@2@AEAVPxSerializationContext@2@@Z 00000001800b0a50 f i NpSerializerAdapter.obj
 0001:000afa70       ?exportData@?$PxSerializerDefaultAdapter@VNpCloth@physx@@@physx@@UEBAXAEAVPxBase@2@AEAVPxSerializationContext@2@@Z 00000001800b0a70 f i NpSerializerAdapter.obj
 0001:000afa90       ?exportData@?$PxSerializerDefaultAdapter@VNpClothFabric@physx@@@physx@@UEBAXAEAVPxBase@2@AEAVPxSerializationContext@2@@Z 00000001800b0a90 f i NpSerializerAdapter.obj
 0001:000afab0       ?exportData@?$PxSerializerDefaultAdapter@VNpConstraint@physx@@@physx@@UEBAXAEAVPxBase@2@AEAVPxSerializationContext@2@@Z 00000001800b0ab0 f i NpSerializerAdapter.obj
 0001:000afad0       ?exportData@?$PxSerializerDefaultAdapter@VNpMaterial@physx@@@physx@@UEBAXAEAVPxBase@2@AEAVPxSerializationContext@2@@Z 00000001800b0ad0 f i NpSerializerAdapter.obj
 0001:000afaf0       ?exportData@?$PxSerializerDefaultAdapter@VNpParticleFluid@physx@@@physx@@UEBAXAEAVPxBase@2@AEAVPxSerializationContext@2@@Z 00000001800b0af0 f i NpSerializerAdapter.obj
 0001:000afb10       ?exportData@?$PxSerializerDefaultAdapter@VNpParticleSystem@physx@@@physx@@UEBAXAEAVPxBase@2@AEAVPxSerializationContext@2@@Z 00000001800b0b10 f i NpSerializerAdapter.obj
 0001:000afb30       ?exportData@?$PxSerializerDefaultAdapter@VNpRigidDynamic@physx@@@physx@@UEBAXAEAVPxBase@2@AEAVPxSerializationContext@2@@Z 00000001800b0b30 f i NpSerializerAdapter.obj
 0001:000afbe0       ?exportData@?$PxSerializerDefaultAdapter@VNpRigidStatic@physx@@@physx@@UEBAXAEAVPxBase@2@AEAVPxSerializationContext@2@@Z 00000001800b0be0 f i NpSerializerAdapter.obj
 0001:000afc00       ?exportData@?$PxSerializerDefaultAdapter@VNpShape@physx@@@physx@@UEBAXAEAVPxBase@2@AEAVPxSerializationContext@2@@Z 00000001800b0c00 f i NpSerializerAdapter.obj
 0001:000afc20       ?exportData@?$PxSerializerDefaultAdapter@VTriangleMesh@Gu@physx@@@physx@@UEBAXAEAVPxBase@2@AEAVPxSerializationContext@2@@Z 00000001800b0c20 f i NpSerializerAdapter.obj
 0001:000afc40       ?exportExtraData@?$PxSerializerDefaultAdapter@VConvexMesh@Gu@physx@@@physx@@UEBAXAEAVPxBase@2@AEAVPxSerializationContext@2@@Z 00000001800b0c40 f i NpSerializerAdapter.obj
 0001:000afc50       ?exportExtraData@?$PxSerializerDefaultAdapter@VHeightField@Gu@physx@@@physx@@UEBAXAEAVPxBase@2@AEAVPxSerializationContext@2@@Z 00000001800b0c50 f i NpSerializerAdapter.obj
 0001:000afc70       ?exportExtraData@?$PxSerializerDefaultAdapter@VNpAggregate@physx@@@physx@@UEBAXAEAVPxBase@2@AEAVPxSerializationContext@2@@Z 00000001800b0c70 f i NpSerializerAdapter.obj
 0001:000afc80       ?exportExtraData@?$PxSerializerDefaultAdapter@VNpArticulation@physx@@@physx@@UEBAXAEAVPxBase@2@AEAVPxSerializationContext@2@@Z 00000001800b0c80 f i NpSerializerAdapter.obj
 0001:000afca0       ?exportExtraData@?$PxSerializerDefaultAdapter@VNpArticulationJoint@physx@@@physx@@UEBAXAEAVPxBase@2@AEAVPxSerializationContext@2@@Z 00000001800b0ca0 f i NpSerializerAdapter.obj
 0001:000afcb0       ?exportExtraData@?$PxSerializerDefaultAdapter@VNpArticulationLink@physx@@@physx@@UEBAXAEAVPxBase@2@AEAVPxSerializationContext@2@@Z 00000001800b0cb0 f i NpSerializerAdapter.obj
 0001:000afcd0       ?exportExtraData@?$PxSerializerDefaultAdapter@VNpCloth@physx@@@physx@@UEBAXAEAVPxBase@2@AEAVPxSerializationContext@2@@Z 00000001800b0cd0 f i NpSerializerAdapter.obj
 0001:000afcf0       ?exportExtraData@?$PxSerializerDefaultAdapter@VNpClothFabric@physx@@@physx@@UEBAXAEAVPxBase@2@AEAVPxSerializationContext@2@@Z 00000001800b0cf0 f i NpSerializerAdapter.obj
 0001:000afd10       ?exportExtraData@?$PxSerializerDefaultAdapter@VNpConstraint@physx@@@physx@@UEBAXAEAVPxBase@2@AEAVPxSerializationContext@2@@Z 00000001800b0d10 f i NpSerializerAdapter.obj
 0001:000afd20       ?exportExtraData@?$PxSerializerDefaultAdapter@VNpMaterial@physx@@@physx@@UEBAXAEAVPxBase@2@AEAVPxSerializationContext@2@@Z 00000001800b0d20 f i NpSerializerAdapter.obj
 0001:000afd30       ?exportExtraData@?$PxSerializerDefaultAdapter@VNpParticleFluid@physx@@@physx@@UEBAXAEAVPxBase@2@AEAVPxSerializationContext@2@@Z 00000001800b0d30 f i NpSerializerAdapter.obj
 0001:000afd50       ?exportExtraData@?$PxSerializerDefaultAdapter@VNpParticleSystem@physx@@@physx@@UEBAXAEAVPxBase@2@AEAVPxSerializationContext@2@@Z 00000001800b0d50 f i NpSerializerAdapter.obj
 0001:000afd70       ?exportExtraData@?$PxSerializerDefaultAdapter@VNpRigidDynamic@physx@@@physx@@UEBAXAEAVPxBase@2@AEAVPxSerializationContext@2@@Z 00000001800b0d70 f i NpSerializerAdapter.obj
 0001:000afd90       ?exportExtraData@?$PxSerializerDefaultAdapter@VNpRigidStatic@physx@@@physx@@UEBAXAEAVPxBase@2@AEAVPxSerializationContext@2@@Z 00000001800b0d90 f i NpSerializerAdapter.obj
 0001:000afdb0       ?exportExtraData@?$PxSerializerDefaultAdapter@VNpShape@physx@@@physx@@UEBAXAEAVPxBase@2@AEAVPxSerializationContext@2@@Z 00000001800b0db0 f i NpSerializerAdapter.obj
 0001:000afdd0       ?exportExtraData@?$PxSerializerDefaultAdapter@VTriangleMesh@Gu@physx@@@physx@@UEBAXAEAVPxBase@2@AEAVPxSerializationContext@2@@Z 00000001800b0dd0 f i NpSerializerAdapter.obj
 0001:000afde0       ?getClassSize@?$PxSerializerDefaultAdapter@VConvexMesh@Gu@physx@@@physx@@UEBA_KXZ 00000001800b0de0 f i NpSerializerAdapter.obj
 0001:000afdf0       ?getClassSize@?$PxSerializerDefaultAdapter@VHeightField@Gu@physx@@@physx@@UEBA_KXZ 00000001800b0df0 f i NpSerializerAdapter.obj
 0001:000afe00       ?getClassSize@?$PxSerializerDefaultAdapter@VNpAggregate@physx@@@physx@@UEBA_KXZ 00000001800b0e00 f i NpSerializerAdapter.obj
 0001:000afe10       ?getClassSize@?$PxSerializerDefaultAdapter@VNpArticulation@physx@@@physx@@UEBA_KXZ 00000001800b0e10 f i NpSerializerAdapter.obj
 0001:000afe20       ?getClassSize@?$PxSerializerDefaultAdapter@VNpArticulationJoint@physx@@@physx@@UEBA_KXZ 00000001800b0e20 f i NpSerializerAdapter.obj
 0001:000afe30       ?getClassSize@?$PxSerializerDefaultAdapter@VNpArticulationLink@physx@@@physx@@UEBA_KXZ 00000001800b0e30 f i NpSerializerAdapter.obj
 0001:000afe40       ?getClassSize@?$PxSerializerDefaultAdapter@VNpCloth@physx@@@physx@@UEBA_KXZ 00000001800b0e40 f i NpSerializerAdapter.obj
 0001:000afe50       ?getClassSize@?$PxSerializerDefaultAdapter@VNpClothFabric@physx@@@physx@@UEBA_KXZ 00000001800b0e50 f i NpSerializerAdapter.obj
 0001:000afe60       ?getClassSize@?$PxSerializerDefaultAdapter@VNpConstraint@physx@@@physx@@UEBA_KXZ 00000001800b0e60 f i NpSerializerAdapter.obj
 0001:000afe70       ?getClassSize@?$PxSerializerDefaultAdapter@VNpMaterial@physx@@@physx@@UEBA_KXZ 00000001800b0e70 f i NpSerializerAdapter.obj
 0001:000afe80       ?getClassSize@?$PxSerializerDefaultAdapter@VNpParticleFluid@physx@@@physx@@UEBA_KXZ 00000001800b0e80 f i NpSerializerAdapter.obj
 0001:000afe90       ?getClassSize@?$PxSerializerDefaultAdapter@VNpParticleSystem@physx@@@physx@@UEBA_KXZ 00000001800b0e90 f i NpSerializerAdapter.obj
 0001:000afea0       ?getClassSize@?$PxSerializerDefaultAdapter@VNpRigidDynamic@physx@@@physx@@UEBA_KXZ 00000001800b0ea0 f i NpSerializerAdapter.obj
 0001:000afeb0       ?getClassSize@?$PxSerializerDefaultAdapter@VNpRigidStatic@physx@@@physx@@UEBA_KXZ 00000001800b0eb0 f i NpSerializerAdapter.obj
 0001:000afec0       ?getClassSize@?$PxSerializerDefaultAdapter@VNpShape@physx@@@physx@@UEBA_KXZ 00000001800b0ec0 f i NpSerializerAdapter.obj
 0001:000afed0       ?getClassSize@?$PxSerializerDefaultAdapter@VTriangleMesh@Gu@physx@@@physx@@UEBA_KXZ 00000001800b0ed0 f i NpSerializerAdapter.obj
 0001:000afee0       ?getConcreteTypeName@?$PxSerializerDefaultAdapter@VConvexMesh@Gu@physx@@@physx@@UEBAPEBDXZ 00000001800b0ee0 f i NpSerializerAdapter.obj
 0001:000afef0       ?getConcreteTypeName@?$PxSerializerDefaultAdapter@VHeightField@Gu@physx@@@physx@@UEBAPEBDXZ 00000001800b0ef0 f i NpSerializerAdapter.obj
 0001:000aff00       ?getConcreteTypeName@?$PxSerializerDefaultAdapter@VNpAggregate@physx@@@physx@@UEBAPEBDXZ 00000001800b0f00 f i NpSerializerAdapter.obj
 0001:000aff10       ?getConcreteTypeName@?$PxSerializerDefaultAdapter@VNpArticulation@physx@@@physx@@UEBAPEBDXZ 00000001800b0f10 f i NpSerializerAdapter.obj
 0001:000aff20       ?getConcreteTypeName@?$PxSerializerDefaultAdapter@VNpArticulationJoint@physx@@@physx@@UEBAPEBDXZ 00000001800b0f20 f i NpSerializerAdapter.obj
 0001:000aff30       ?getConcreteTypeName@?$PxSerializerDefaultAdapter@VNpArticulationLink@physx@@@physx@@UEBAPEBDXZ 00000001800b0f30 f i NpSerializerAdapter.obj
 0001:000aff40       ?getConcreteTypeName@?$PxSerializerDefaultAdapter@VNpCloth@physx@@@physx@@UEBAPEBDXZ 00000001800b0f40 f i NpSerializerAdapter.obj
 0001:000aff50       ?getConcreteTypeName@?$PxSerializerDefaultAdapter@VNpClothFabric@physx@@@physx@@UEBAPEBDXZ 00000001800b0f50 f i NpSerializerAdapter.obj
 0001:000aff60       ?getConcreteTypeName@?$PxSerializerDefaultAdapter@VNpConstraint@physx@@@physx@@UEBAPEBDXZ 00000001800b0f60 f i NpSerializerAdapter.obj
 0001:000aff70       ?getConcreteTypeName@?$PxSerializerDefaultAdapter@VNpMaterial@physx@@@physx@@UEBAPEBDXZ 00000001800b0f70 f i NpSerializerAdapter.obj
 0001:000aff80       ?getConcreteTypeName@?$PxSerializerDefaultAdapter@VNpParticleFluid@physx@@@physx@@UEBAPEBDXZ 00000001800b0f80 f i NpSerializerAdapter.obj
 0001:000aff90       ?getConcreteTypeName@?$PxSerializerDefaultAdapter@VNpParticleSystem@physx@@@physx@@UEBAPEBDXZ 00000001800b0f90 f i NpSerializerAdapter.obj
 0001:000affa0       ?getConcreteTypeName@?$PxSerializerDefaultAdapter@VNpRigidDynamic@physx@@@physx@@UEBAPEBDXZ 00000001800b0fa0 f i NpSerializerAdapter.obj
 0001:000affb0       ?getConcreteTypeName@?$PxSerializerDefaultAdapter@VNpRigidStatic@physx@@@physx@@UEBAPEBDXZ 00000001800b0fb0 f i NpSerializerAdapter.obj
 0001:000affc0       ?getConcreteTypeName@?$PxSerializerDefaultAdapter@VNpShape@physx@@@physx@@UEBAPEBDXZ 00000001800b0fc0 f i NpSerializerAdapter.obj
 0001:000affd0       ?getConcreteTypeName@?$PxSerializerDefaultAdapter@VTriangleMesh@Gu@physx@@@physx@@UEBAPEBDXZ 00000001800b0fd0 f i NpSerializerAdapter.obj
 0001:000affe0       ?isSubordinate@?$PxSerializerDefaultAdapter@VConvexMesh@Gu@physx@@@physx@@UEBA_NXZ 00000001800b0fe0 f i NpSerializerAdapter.obj
 0001:000afff0       ?isSubordinate@?$PxSerializerDefaultAdapter@VHeightField@Gu@physx@@@physx@@UEBA_NXZ 00000001800b0ff0 f i NpSerializerAdapter.obj
 0001:000b0000       ?isSubordinate@?$PxSerializerDefaultAdapter@VNpAggregate@physx@@@physx@@UEBA_NXZ 00000001800b1000 f i NpSerializerAdapter.obj
 0001:000b0010       ?isSubordinate@?$PxSerializerDefaultAdapter@VNpArticulation@physx@@@physx@@UEBA_NXZ 00000001800b1010 f i NpSerializerAdapter.obj
 0001:000b0020       ?isSubordinate@?$PxSerializerDefaultAdapter@VNpArticulationJoint@physx@@@physx@@UEBA_NXZ 00000001800b1020 f i NpSerializerAdapter.obj
 0001:000b0030       ?isSubordinate@?$PxSerializerDefaultAdapter@VNpArticulationLink@physx@@@physx@@UEBA_NXZ 00000001800b1030 f i NpSerializerAdapter.obj
 0001:000b0040       ?isSubordinate@?$PxSerializerDefaultAdapter@VNpCloth@physx@@@physx@@UEBA_NXZ 00000001800b1040 f i NpSerializerAdapter.obj
 0001:000b0050       ?isSubordinate@?$PxSerializerDefaultAdapter@VNpClothFabric@physx@@@physx@@UEBA_NXZ 00000001800b1050 f i NpSerializerAdapter.obj
 0001:000b0060       ?isSubordinate@?$PxSerializerDefaultAdapter@VNpConstraint@physx@@@physx@@UEBA_NXZ 00000001800b1060 f i NpSerializerAdapter.obj
 0001:000b0070       ?isSubordinate@?$PxSerializerDefaultAdapter@VNpMaterial@physx@@@physx@@UEBA_NXZ 00000001800b1070 f i NpSerializerAdapter.obj
 0001:000b0080       ?isSubordinate@?$PxSerializerDefaultAdapter@VNpParticleFluid@physx@@@physx@@UEBA_NXZ 00000001800b1080 f i NpSerializerAdapter.obj
 0001:000b0090       ?isSubordinate@?$PxSerializerDefaultAdapter@VNpParticleSystem@physx@@@physx@@UEBA_NXZ 00000001800b1090 f i NpSerializerAdapter.obj
 0001:000b00a0       ?isSubordinate@?$PxSerializerDefaultAdapter@VNpRigidDynamic@physx@@@physx@@UEBA_NXZ 00000001800b10a0 f i NpSerializerAdapter.obj
 0001:000b00b0       ?isSubordinate@?$PxSerializerDefaultAdapter@VNpRigidStatic@physx@@@physx@@UEBA_NXZ 00000001800b10b0 f i NpSerializerAdapter.obj
 0001:000b00c0       ?isSubordinate@?$PxSerializerDefaultAdapter@VNpShape@physx@@@physx@@UEBA_NXZ 00000001800b10c0 f i NpSerializerAdapter.obj
 0001:000b00d0       ?isSubordinate@?$PxSerializerDefaultAdapter@VTriangleMesh@Gu@physx@@@physx@@UEBA_NXZ 00000001800b10d0 f i NpSerializerAdapter.obj
 0001:000b0300       ?registerReferences@?$PxSerializerDefaultAdapter@VConvexMesh@Gu@physx@@@physx@@UEBAXAEAVPxBase@2@AEAVPxSerializationContext@2@@Z 00000001800b1300 f i NpSerializerAdapter.obj
 0001:000b0360       ?registerReferences@?$PxSerializerDefaultAdapter@VHeightField@Gu@physx@@@physx@@UEBAXAEAVPxBase@2@AEAVPxSerializationContext@2@@Z 00000001800b1360 f i NpSerializerAdapter.obj
 0001:000b03d0       ?registerReferences@?$PxSerializerDefaultAdapter@VNpAggregate@physx@@@physx@@UEBAXAEAVPxBase@2@AEAVPxSerializationContext@2@@Z 00000001800b13d0 f i NpSerializerAdapter.obj
 0001:000b0430       ?registerReferences@?$PxSerializerDefaultAdapter@VNpArticulation@physx@@@physx@@UEBAXAEAVPxBase@2@AEAVPxSerializationContext@2@@Z 00000001800b1430 f i NpSerializerAdapter.obj
 0001:000b04a0       ?registerReferences@?$PxSerializerDefaultAdapter@VNpArticulationJoint@physx@@@physx@@UEBAXAEAVPxBase@2@AEAVPxSerializationContext@2@@Z 00000001800b14a0 f i NpSerializerAdapter.obj
 0001:000b0510       ?registerReferences@?$PxSerializerDefaultAdapter@VNpArticulationLink@physx@@@physx@@UEBAXAEAVPxBase@2@AEAVPxSerializationContext@2@@Z 00000001800b1510 f i NpSerializerAdapter.obj
 0001:000b0580       ?registerReferences@?$PxSerializerDefaultAdapter@VNpCloth@physx@@@physx@@UEBAXAEAVPxBase@2@AEAVPxSerializationContext@2@@Z 00000001800b1580 f i NpSerializerAdapter.obj
 0001:000b05f0       ?registerReferences@?$PxSerializerDefaultAdapter@VNpClothFabric@physx@@@physx@@UEBAXAEAVPxBase@2@AEAVPxSerializationContext@2@@Z 00000001800b15f0 f i NpSerializerAdapter.obj
 0001:000b0660       ?registerReferences@?$PxSerializerDefaultAdapter@VNpConstraint@physx@@@physx@@UEBAXAEAVPxBase@2@AEAVPxSerializationContext@2@@Z 00000001800b1660 f i NpSerializerAdapter.obj
 0001:000b06d0       ?registerReferences@?$PxSerializerDefaultAdapter@VNpMaterial@physx@@@physx@@UEBAXAEAVPxBase@2@AEAVPxSerializationContext@2@@Z 00000001800b16d0 f i NpSerializerAdapter.obj
 0001:000b0740       ?registerReferences@?$PxSerializerDefaultAdapter@VNpParticleFluid@physx@@@physx@@UEBAXAEAVPxBase@2@AEAVPxSerializationContext@2@@Z 00000001800b1740 f i NpSerializerAdapter.obj
 0001:000b07b0       ?registerReferences@?$PxSerializerDefaultAdapter@VNpParticleSystem@physx@@@physx@@UEBAXAEAVPxBase@2@AEAVPxSerializationContext@2@@Z 00000001800b17b0 f i NpSerializerAdapter.obj
 0001:000b0820       ?registerReferences@?$PxSerializerDefaultAdapter@VNpRigidDynamic@physx@@@physx@@UEBAXAEAVPxBase@2@AEAVPxSerializationContext@2@@Z 00000001800b1820 f i NpSerializerAdapter.obj
 0001:000b0890       ?registerReferences@?$PxSerializerDefaultAdapter@VNpRigidStatic@physx@@@physx@@UEBAXAEAVPxBase@2@AEAVPxSerializationContext@2@@Z 00000001800b1890 f i NpSerializerAdapter.obj
 0001:000b0900       ?registerReferences@?$PxSerializerDefaultAdapter@VNpShape@physx@@@physx@@UEBAXAEAVPxBase@2@AEAVPxSerializationContext@2@@Z 00000001800b1900 f i NpSerializerAdapter.obj
 0001:000b0970       ?registerReferences@?$PxSerializerDefaultAdapter@VTriangleMesh@Gu@physx@@@physx@@UEBAXAEAVPxBase@2@AEAVPxSerializationContext@2@@Z 00000001800b1970 f i NpSerializerAdapter.obj
 0001:000b09d0       ?requires@?$PxSerializerDefaultAdapter@VConvexMesh@Gu@physx@@@physx@@UEBAXAEAVPxBase@2@AEAVPxProcessPxBaseCallback@2@@Z 00000001800b19d0 f i NpSerializerAdapter.obj
 0001:000b09e0       ?requires@?$PxSerializerDefaultAdapter@VHeightField@Gu@physx@@@physx@@UEBAXAEAVPxBase@2@AEAVPxProcessPxBaseCallback@2@@Z 00000001800b19e0 f i NpSerializerAdapter.obj
 0001:000b0a00       ?requires@?$PxSerializerDefaultAdapter@VNpAggregate@physx@@@physx@@UEBAXAEAVPxBase@2@AEAVPxProcessPxBaseCallback@2@@Z 00000001800b1a00 f i NpSerializerAdapter.obj
 0001:000b0a10       ?requires@?$PxSerializerDefaultAdapter@VNpArticulation@physx@@@physx@@UEBAXAEAVPxBase@2@AEAVPxProcessPxBaseCallback@2@@Z 00000001800b1a10 f i NpSerializerAdapter.obj
 0001:000b0a30       ?requires@?$PxSerializerDefaultAdapter@VNpArticulationJoint@physx@@@physx@@UEBAXAEAVPxBase@2@AEAVPxProcessPxBaseCallback@2@@Z 00000001800b1a30 f i NpSerializerAdapter.obj
 0001:000b0a50       ?requires@?$PxSerializerDefaultAdapter@VNpArticulationLink@physx@@@physx@@UEBAXAEAVPxBase@2@AEAVPxProcessPxBaseCallback@2@@Z 00000001800b1a50 f i NpSerializerAdapter.obj
 0001:000b0a70       ?requires@?$PxSerializerDefaultAdapter@VNpCloth@physx@@@physx@@UEBAXAEAVPxBase@2@AEAVPxProcessPxBaseCallback@2@@Z 00000001800b1a70 f i NpSerializerAdapter.obj
 0001:000b0a90       ?requires@?$PxSerializerDefaultAdapter@VNpClothFabric@physx@@@physx@@UEBAXAEAVPxBase@2@AEAVPxProcessPxBaseCallback@2@@Z 00000001800b1a90 f i NpSerializerAdapter.obj
 0001:000b0ab0       ?requires@?$PxSerializerDefaultAdapter@VNpConstraint@physx@@@physx@@UEBAXAEAVPxBase@2@AEAVPxProcessPxBaseCallback@2@@Z 00000001800b1ab0 f i NpSerializerAdapter.obj
 0001:000b0ad0       ?requires@?$PxSerializerDefaultAdapter@VNpMaterial@physx@@@physx@@UEBAXAEAVPxBase@2@AEAVPxProcessPxBaseCallback@2@@Z 00000001800b1ad0 f i NpSerializerAdapter.obj
 0001:000b0af0       ?requires@?$PxSerializerDefaultAdapter@VNpParticleFluid@physx@@@physx@@UEBAXAEAVPxBase@2@AEAVPxProcessPxBaseCallback@2@@Z 00000001800b1af0 f i NpSerializerAdapter.obj
 0001:000b0b10       ?requires@?$PxSerializerDefaultAdapter@VNpParticleSystem@physx@@@physx@@UEBAXAEAVPxBase@2@AEAVPxProcessPxBaseCallback@2@@Z 00000001800b1b10 f i NpSerializerAdapter.obj
 0001:000b0b30       ?requires@?$PxSerializerDefaultAdapter@VNpRigidDynamic@physx@@@physx@@UEBAXAEAVPxBase@2@AEAVPxProcessPxBaseCallback@2@@Z 00000001800b1b30 f i NpSerializerAdapter.obj
 0001:000b0b50       ?requires@?$PxSerializerDefaultAdapter@VNpRigidStatic@physx@@@physx@@UEBAXAEAVPxBase@2@AEAVPxProcessPxBaseCallback@2@@Z 00000001800b1b50 f i NpSerializerAdapter.obj
 0001:000b0b70       ?requires@?$PxSerializerDefaultAdapter@VNpShape@physx@@@physx@@UEBAXAEAVPxBase@2@AEAVPxProcessPxBaseCallback@2@@Z 00000001800b1b70 f i NpSerializerAdapter.obj
 0001:000b0b90       ?requires@?$PxSerializerDefaultAdapter@VTriangleMesh@Gu@physx@@@physx@@UEBAXAEAVPxBase@2@AEAVPxProcessPxBaseCallback@2@@Z 00000001800b1b90 f i NpSerializerAdapter.obj
 0001:000b0ba0       ?NpShapeGetScPtrOffset@physx@@YA_KXZ 00000001800b1ba0 f   NpShape.obj
 0001:000b0bb0       ?NpShapeIncRefCount@physx@@YAXAEAVShape@Scb@1@@Z 00000001800b1bb0 f   NpShape.obj
 0001:000b0bd0       ?NpShapeDecRefCount@physx@@YAXAEAVShape@Scb@1@@Z 00000001800b1bd0 f   NpShape.obj
 0001:000b0c10       ?NpShapeGetScRigidObjectFromScbSLOW@physx@@YAPEAVRigidCore@Sc@1@AEBVShape@Scb@1@@Z 00000001800b1c10 f   NpShape.obj
 0001:000b0c80       ?exportExtraData@NpShape@physx@@UEAAXAEAVPxSerializationContext@2@@Z 00000001800b1c80 f   NpShape.obj
 0001:000b0cc0       ?importExtraData@NpShape@physx@@QEAAXAEAVPxDeserializationContext@2@@Z 00000001800b1cc0 f   NpShape.obj
 0001:000b0d10       ?requires@NpShape@physx@@UEAAXAEAVPxProcessPxBaseCallback@2@@Z 00000001800b1d10 f   NpShape.obj
 0001:000b0e70       ?resolveReferences@NpShape@physx@@QEAAXAEAVPxDeserializationContext@2@@Z 00000001800b1e70 f   NpShape.obj
 0001:000b0fe0       ?createObject@NpShape@physx@@SAPEAV12@AEAPEAEAEAVPxDeserializationContext@2@@Z 00000001800b1fe0 f   NpShape.obj
 0001:000b1080       ??0NpShape@physx@@QEAA@AEBVPxGeometry@1@V?$PxFlags@W4Enum@PxShapeFlag@physx@@E@1@PEBGG_N@Z 00000001800b2080 f   NpShape.obj
 0001:000b1180       ??1NpShape@physx@@UEAA@XZ  00000001800b2180 f   NpShape.obj
 0001:000b12c0       ?release@NpShape@physx@@UEAAXXZ 00000001800b22c0 f   NpShape.obj
 0001:000b13f0       ?getGeometryType@NpShape@physx@@UEBA?AW4Enum@PxGeometryType@2@XZ 00000001800b23f0 f   NpShape.obj
 0001:000b1440       ?setGeometry@NpShape@physx@@UEAAXAEBVPxGeometry@2@@Z 00000001800b2440 f   NpShape.obj
 0001:000b1670       ?getGeometry@NpShape@physx@@UEBA?AVPxGeometryHolder@2@XZ 00000001800b2670 f   NpShape.obj
 0001:000b16b0       ?getBoxGeometry@NpShape@physx@@UEBA_NAEAVPxBoxGeometry@2@@Z 00000001800b26b0 f   NpShape.obj
 0001:000b1740       ?getSphereGeometry@NpShape@physx@@UEBA_NAEAVPxSphereGeometry@2@@Z 00000001800b2740 f   NpShape.obj
 0001:000b17c0       ?getCapsuleGeometry@NpShape@physx@@UEBA_NAEAVPxCapsuleGeometry@2@@Z 00000001800b27c0 f   NpShape.obj
 0001:000b1850       ?getPlaneGeometry@NpShape@physx@@UEBA_NAEAVPxPlaneGeometry@2@@Z 00000001800b2850 f   NpShape.obj
 0001:000b18d0       ?getConvexMeshGeometry@NpShape@physx@@UEBA_NAEAVPxConvexMeshGeometry@2@@Z 00000001800b28d0 f   NpShape.obj
 0001:000b1980       ?getTriangleMeshGeometry@NpShape@physx@@UEBA_NAEAVPxTriangleMeshGeometry@2@@Z 00000001800b2980 f   NpShape.obj
 0001:000b1a50       ?getHeightFieldGeometry@NpShape@physx@@UEBA_NAEAVPxHeightFieldGeometry@2@@Z 00000001800b2a50 f   NpShape.obj
 0001:000b1b00       ?getActor@NpShape@physx@@UEBAPEAVPxRigidActor@2@XZ 00000001800b2b00 f   NpShape.obj
 0001:000b1b50       ?setLocalPose@NpShape@physx@@UEAAXAEBVPxTransform@2@@Z 00000001800b2b50 f   NpShape.obj
 0001:000b1d70       ?getLocalPose@NpShape@physx@@UEBA?AVPxTransform@2@XZ 00000001800b2d70 f   NpShape.obj
 0001:000b1e00       ?setSimulationFilterData@NpShape@physx@@UEAAXAEBUPxFilterData@2@@Z 00000001800b2e00 f   NpShape.obj
 0001:000b1ed0       ?getSimulationFilterData@NpShape@physx@@UEBA?AUPxFilterData@2@XZ 00000001800b2ed0 f   NpShape.obj
 0001:000b1f40       ?resetFiltering@NpShape@physx@@UEAAXXZ 00000001800b2f40 f   NpShape.obj
 0001:000b1fc0       ?setQueryFilterData@NpShape@physx@@UEAAXAEBUPxFilterData@2@@Z 00000001800b2fc0 f   NpShape.obj
 0001:000b20c0       ?getQueryFilterData@NpShape@physx@@UEBA?AUPxFilterData@2@XZ 00000001800b30c0 f   NpShape.obj
 0001:000b2120       ?setMaterials@NpShape@physx@@UEAAXPEBQEAVPxMaterial@2@G@Z 00000001800b3120 f   NpShape.obj
 0001:000b2360       ?getNbMaterials@NpShape@physx@@UEBAGXZ 00000001800b3360 f   NpShape.obj
 0001:000b23e0       ?getMaterials@NpShape@physx@@UEBAIPEAPEAVPxMaterial@2@I@Z 00000001800b33e0 f   NpShape.obj
 0001:000b2460       ?getMaterialFromInternalFaceIndex@NpShape@physx@@UEBAPEAVPxMaterial@2@I@Z 00000001800b3460 f   NpShape.obj
 0001:000b2600       ?setContactOffset@NpShape@physx@@UEAAXM@Z 00000001800b3600 f   NpShape.obj
 0001:000b27b0       ?getContactOffset@NpShape@physx@@UEBAMXZ 00000001800b37b0 f   NpShape.obj
 0001:000b2820       ?setRestOffset@NpShape@physx@@UEAAXM@Z 00000001800b3820 f   NpShape.obj
 0001:000b29c0       ?getRestOffset@NpShape@physx@@UEBAMXZ 00000001800b39c0 f   NpShape.obj
 0001:000b2a30       ?setFlag@NpShape@physx@@UEAAXW4Enum@PxShapeFlag@2@_N@Z 00000001800b3a30 f   NpShape.obj
 0001:000b2b40       ?setFlags@NpShape@physx@@UEAAXV?$PxFlags@W4Enum@PxShapeFlag@physx@@E@2@@Z 00000001800b3b40 f   NpShape.obj
 0001:000b2bb0       ?getFlags@NpShape@physx@@UEBA?AV?$PxFlags@W4Enum@PxShapeFlag@physx@@E@2@XZ 00000001800b3bb0 f   NpShape.obj
 0001:000b2c20       ?isExclusive@NpShape@physx@@UEBA_NXZ 00000001800b3c20 f   NpShape.obj
 0001:000b2c80       ?setName@NpShape@physx@@UEAAXPEBD@Z 00000001800b3c80 f   NpShape.obj
 0001:000b2d80       ?getName@NpShape@physx@@UEBAPEBDXZ 00000001800b3d80 f   NpShape.obj
 0001:000b2dd0       ?onRefCountZero@NpShape@physx@@UEAAXXZ 00000001800b3dd0 f   NpShape.obj
 0001:000b2e00       ?setFlagsInternal@NpShape@physx@@QEAAXV?$PxFlags@W4Enum@PxShapeFlag@physx@@E@2@@Z 00000001800b3e00 f   NpShape.obj
 0001:000b3020       ?checkMaterialSetup@NpShape@physx@@SA_NAEBVPxGeometry@2@PEBDPEBQEAVPxMaterial@2@G@Z 00000001800b4020 f   NpShape.obj
 0001:000b30f0       ?setActor@NpShape@physx@@QEAAXPEAVPxRigidActor@2@@Z 00000001800b40f0 f   NpShape.obj
 0001:000b3100       ?visualize@NpShape@physx@@UEAAXAEAVRenderOutput@Cm@2@AEBVPxRigidActor@2@@Z 00000001800b4100 f   NpShape.obj
 0001:000b39d0       ?getScRigidObjectExclusive@NpShape@physx@@QEBAAEAVRigidCore@Sc@2@XZ 00000001800b49d0 f   NpShape.obj
 0001:000b39f0       ?releaseInternal@NpShape@physx@@QEAAXXZ 00000001800b49f0 f   NpShape.obj
 0001:000b3a50       ?getOwnerScene@NpShape@physx@@AEBAPEAVNpScene@2@XZ 00000001800b4a50 f   NpShape.obj
 0001:000b3a70       ?getAPIScene@NpShape@physx@@AEBAPEAVNpScene@2@XZ 00000001800b4a70 f   NpShape.obj
 0001:000b3a80       ?incMeshRefCount@NpShape@physx@@AEAAXXZ 00000001800b4a80 f   NpShape.obj
 0001:000b3ab0       ?decMeshRefCount@NpShape@physx@@AEAAXXZ 00000001800b4ab0 f   NpShape.obj
 0001:000b3af0       ?getMeshRefCountable@NpShape@physx@@AEAAPEAVRefCountable@Cm@2@XZ 00000001800b4af0 f   NpShape.obj
 0001:000b3bc0       ?isWritable@NpShape@physx@@AEAA_NXZ 00000001800b4bc0 f   NpShape.obj
 0001:000b4810       ??$allocArrayBuffer@G@Scene@Scb@physx@@AEAAPEAGAEAV?$Array@GVNamedAllocator@shdfnd@physx@@@shdfnd@2@IAEAI@Z 00000001800b5810 f i NpShape.obj
 0001:000b4870       ??0NpShape@physx@@QEAA@V?$PxFlags@W4Enum@PxBaseFlag@physx@@G@1@@Z 00000001800b5870 f i NpShape.obj
 0001:000b4910       ??1PxShape@physx@@MEAA@XZ  00000001800b5910 f i NpShape.obj
 0001:000b4920       ??_ENpShape@physx@@WBI@EAAPEAXI@Z 00000001800b5920 f i NpShape.obj
 0001:000b4930       ??_ENpShape@physx@@UEAAPEAXI@Z 00000001800b5930 f i NpShape.obj
 0001:000b4930       ??_GNpShape@physx@@UEAAPEAXI@Z 00000001800b5930 f i NpShape.obj
 0001:000b49a0       ??_GPxShape@physx@@MEAAPEAXI@Z 00000001800b59a0 f i NpShape.obj
 0001:000b49a0       ??_EPxShape@physx@@MEAAPEAXI@Z 00000001800b59a0 f i NpShape.obj
 0001:000b49e0       ?getConcreteTypeName@PxShape@physx@@UEBAPEBDXZ 00000001800b59e0 f i NpShape.obj
 0001:000b49f0       ?getMaterials@Shape@Scb@physx@@QEBAIPEAPEAVPxMaterial@3@I@Z 00000001800b59f0 f i NpShape.obj
 0001:000b52f0       ?isKindOf@PxShape@physx@@MEBA_NPEBD@Z 00000001800b62f0 f i NpShape.obj
 0001:000b5350       ?setContactOffset@Shape@Scb@physx@@QEAAXM@Z 00000001800b6350 f i NpShape.obj
 0001:000b54b0       ?setFlags@Shape@Scb@physx@@QEAAXV?$PxFlags@W4Enum@PxShapeFlag@physx@@E@3@@Z 00000001800b64b0 f i NpShape.obj
 0001:000b5600       ?setGeometry@Shape@Scb@physx@@QEAAPEAUShapeBuffer@23@AEBVPxGeometry@3@@Z 00000001800b6600 f i NpShape.obj
 0001:000b5750       ?setMaterials@Shape@Scb@physx@@QEAA_NPEBQEAVPxMaterial@3@G@Z 00000001800b6750 f i NpShape.obj
 0001:000b5900       ?setRestOffset@Shape@Scb@physx@@QEAAXM@Z 00000001800b6900 f i NpShape.obj
 0001:000b5a70       ?setShape2Actor@Shape@Scb@physx@@QEAAXAEBVPxTransform@3@@Z 00000001800b6a70 f i NpShape.obj
 0001:000b5bf0       ?setSimulationFilterData@Shape@Scb@physx@@QEAAXAEBUPxFilterData@3@@Z 00000001800b6bf0 f i NpShape.obj
 0001:000b5d40       ??0NpShapeManager@physx@@QEAA@AEBW4PxEMPTY@1@@Z 00000001800b6d40 f   NpShapeManager.obj
 0001:000b5d80       ?exportExtraData@NpShapeManager@physx@@QEAAXAEAVPxSerializationContext@2@@Z 00000001800b6d80 f   NpShapeManager.obj
 0001:000b5dc0       ?importExtraData@NpShapeManager@physx@@QEAAXAEAVPxDeserializationContext@2@@Z 00000001800b6dc0 f   NpShapeManager.obj
 0001:000b5e00       ??0NpShapeManager@physx@@QEAA@XZ 00000001800b6e00 f   NpShapeManager.obj
 0001:000b5e30       ??1NpShapeManager@physx@@QEAA@XZ 00000001800b6e30 f   NpShapeManager.obj
 0001:000b5e90       ?getShapes@NpShapeManager@physx@@QEBAIPEAPEAVPxShape@2@II@Z 00000001800b6e90 f   NpShapeManager.obj
 0001:000b5ef0       ?attachShape@NpShapeManager@physx@@QEAAXAEAVNpShape@2@AEAVPxRigidActor@2@@Z 00000001800b6ef0 f   NpShapeManager.obj
 0001:000b5fd0       ?detachShape@NpShapeManager@physx@@QEAAXAEAVNpShape@2@AEAVPxRigidActor@2@_N@Z 00000001800b6fd0 f   NpShapeManager.obj
 0001:000b60e0       ?shapeIsAttached@NpShapeManager@physx@@QEBA_NAEAVNpShape@2@@Z 00000001800b70e0 f   NpShapeManager.obj
 0001:000b6100       ?detachAll@NpShapeManager@physx@@QEAAXPEAVNpScene@2@@Z 00000001800b7100 f   NpShapeManager.obj
 0001:000b61c0       ?teardownSceneQuery@NpShapeManager@physx@@QEAAXAEAVSceneQueryManager@Sq@2@AEBVNpShape@2@@Z 00000001800b71c0 f   NpShapeManager.obj
 0001:000b6250       ?setupSceneQuery@NpShapeManager@physx@@QEAAXAEAVSceneQueryManager@Sq@2@AEBVPxRigidActor@2@AEBVNpShape@2@@Z 00000001800b7250 f   NpShapeManager.obj
 0001:000b62f0       ?setupAllSceneQuery@NpShapeManager@physx@@QEAAXAEBVPxRigidActor@2@@Z 00000001800b72f0 f   NpShapeManager.obj
 0001:000b63e0       ?teardownAllSceneQuery@NpShapeManager@physx@@QEAAXAEAVSceneQueryManager@Sq@2@@Z 00000001800b73e0 f   NpShapeManager.obj
 0001:000b64c0       ?markAllSceneQueryForUpdate@NpShapeManager@physx@@QEAAXAEAVSceneQueryManager@Sq@2@@Z 00000001800b74c0 f   NpShapeManager.obj
 0001:000b6520       ?findSceneQueryData@NpShapeManager@physx@@QEAAPEAUActorShape@Sq@2@AEBVNpShape@2@@Z 00000001800b7520 f   NpShapeManager.obj
 0001:000b6560       ?getWorldBounds@NpShapeManager@physx@@QEBA?AVPxBounds3@2@AEBVPxRigidActor@2@@Z 00000001800b7560 f   NpShapeManager.obj
 0001:000b68b0       ?clearShapesOnRelease@NpShapeManager@physx@@QEAAXAEAVScene@Scb@2@AEAVPxRigidActor@2@@Z 00000001800b78b0 f   NpShapeManager.obj
 0001:000b6950       ?releaseExclusiveUserReferences@NpShapeManager@physx@@QEAAXXZ 00000001800b7950 f   NpShapeManager.obj
 0001:000b69b0       ?visualize@NpShapeManager@physx@@QEAAXAEAVRenderOutput@Cm@2@PEAVNpScene@2@AEBVPxRigidActor@2@@Z 00000001800b79b0 f   NpShapeManager.obj
 0001:000b6e70       ?setupSceneQuery@NpShapeManager@physx@@IEAAXAEAVSceneQueryManager@Sq@2@AEBVPxRigidActor@2@I@Z 00000001800b7e70 f   NpShapeManager.obj
 0001:000b6ef0       ?teardownSceneQuery@NpShapeManager@physx@@IEAAXAEAVSceneQueryManager@Sq@2@I@Z 00000001800b7ef0 f   NpShapeManager.obj
 0001:000b73e0       ?growAndPushBack@?$Array@PEAVShape@Scb@physx@@V?$InlineAllocator@$0CA@VNamedAllocator@shdfnd@physx@@@shdfnd@3@@shdfnd@physx@@IEAAAEAPEAVShape@Scb@3@AEBQEAV453@@Z 00000001800b83e0 f i NpShapeManager.obj
 0001:000b74e0       ?growAndPushBack@?$Array@URemovedShape@Scb@physx@@V?$InlineAllocator@$0EA@VNamedAllocator@shdfnd@physx@@@shdfnd@3@@shdfnd@physx@@IEAAAEAURemovedShape@Scb@3@AEBU453@@Z 00000001800b84e0 f i NpShapeManager.obj
 0001:000b7640       ?onShapeAttach@RigidObject@Scb@physx@@QEAAXAEAVShape@23@@Z 00000001800b8640 f i NpShapeManager.obj
 0001:000b78d0       ?onShapeDetach@RigidObject@Scb@physx@@QEAAXAEAVShape@23@_N1@Z 00000001800b88d0 f i NpShapeManager.obj
 0001:000b7ce0       ?PxCreateSpatialIndex@physx@@YAPEAVPxSpatialIndex@1@XZ 00000001800b8ce0 f   NpSpatialIndex.obj
 0001:000b7d60       ??0NpSpatialIndex@physx@@QEAA@XZ 00000001800b8d60 f   NpSpatialIndex.obj
 0001:000b7e20       ??1NpSpatialIndex@physx@@UEAA@XZ 00000001800b8e20 f   NpSpatialIndex.obj
 0001:000b7e60       ?insert@NpSpatialIndex@physx@@UEAAIAEAVPxSpatialIndexItem@2@AEBVPxBounds3@2@@Z 00000001800b8e60 f   NpSpatialIndex.obj
 0001:000b80f0       ?update@NpSpatialIndex@physx@@UEAAXIAEBVPxBounds3@2@@Z 00000001800b90f0 f   NpSpatialIndex.obj
 0001:000b8350       ?remove@NpSpatialIndex@physx@@UEAAXI@Z 00000001800b9350 f   NpSpatialIndex.obj
 0001:000b83b0       ?getBounds@NpSpatialIndex@physx@@UEBA?AVPxBounds3@2@I@Z 00000001800b93b0 f   NpSpatialIndex.obj
 0001:000b83c0       ?overlap@NpSpatialIndex@physx@@UEBAXAEBVPxBounds3@2@AEAUPxSpatialOverlapCallback@2@@Z 00000001800b93c0 f   NpSpatialIndex.obj
 0001:000b8730       ?raycast@NpSpatialIndex@physx@@UEBAXAEBVPxVec3@2@0MAEAUPxSpatialLocationCallback@2@@Z 00000001800b9730 f   NpSpatialIndex.obj
 0001:000b8a60       ?sweep@NpSpatialIndex@physx@@UEBAXAEBVPxBounds3@2@AEBVPxVec3@2@MAEAUPxSpatialLocationCallback@2@@Z 00000001800b9a60 f   NpSpatialIndex.obj
 0001:000b8fc0       ?rebuildFull@NpSpatialIndex@physx@@UEAAXXZ 00000001800b9fc0 f   NpSpatialIndex.obj
 0001:000b9020       ?setIncrementalRebuildRate@NpSpatialIndex@physx@@UEAAXI@Z 00000001800ba020 f   NpSpatialIndex.obj
 0001:000b9030       ?rebuildStep@NpSpatialIndex@physx@@UEAAXXZ 00000001800ba030 f   NpSpatialIndex.obj
 0001:000b9080       ?release@NpSpatialIndex@physx@@UEAAXXZ 00000001800ba080 f   NpSpatialIndex.obj
 0001:000b90a0       ?flushUpdates@NpSpatialIndex@physx@@AEBAXXZ 00000001800ba0a0 f   NpSpatialIndex.obj
 0001:000b95d0       ??1PxSpatialIndex@physx@@MEAA@XZ 00000001800ba5d0 f i NpSpatialIndex.obj
 0001:000b95e0       ??_GLocationCallback@?A0x7b3f4815@physx@@UEAAPEAXI@Z 00000001800ba5e0 f i NpSpatialIndex.obj
 0001:000b95e0       ??_ELocationCallback@?A0x7b3f4815@physx@@UEAAPEAXI@Z 00000001800ba5e0 f i NpSpatialIndex.obj
 0001:000b9620       ??_ENpSpatialIndex@physx@@UEAAPEAXI@Z 00000001800ba620 f i NpSpatialIndex.obj
 0001:000b9620       ??_GNpSpatialIndex@physx@@UEAAPEAXI@Z 00000001800ba620 f i NpSpatialIndex.obj
 0001:000b96c0       ??_EOverlapCallback@?A0x7b3f4815@physx@@UEAAPEAXI@Z 00000001800ba6c0 f i NpSpatialIndex.obj
 0001:000b96c0       ??_GOverlapCallback@?A0x7b3f4815@physx@@UEAAPEAXI@Z 00000001800ba6c0 f i NpSpatialIndex.obj
 0001:000b9700       ??_GPxSpatialIndex@physx@@MEAAPEAXI@Z 00000001800ba700 f i NpSpatialIndex.obj
 0001:000b9700       ??_EPxSpatialIndex@physx@@MEAAPEAXI@Z 00000001800ba700 f i NpSpatialIndex.obj
 0001:000b9740       ?flush@NpSpatialIndex@physx@@UEAAXXZ 00000001800ba740 f i NpSpatialIndex.obj
 0001:000b9860       ??0NpVolumeCache@physx@@QEAA@PEAVSceneQueryManager@Sq@1@II@Z 00000001800ba860 f   NpVolumeCache.obj
 0001:000b9940       ??1NpVolumeCache@physx@@UEAA@XZ 00000001800ba940 f   NpVolumeCache.obj
 0001:000b99c0       ?isValid@NpVolumeCache@physx@@UEBA_NXZ 00000001800ba9c0 f   NpVolumeCache.obj
 0001:000b9a00       ?isValid@NpVolumeCache@physx@@QEBA_NI@Z 00000001800baa00 f   NpVolumeCache.obj
 0001:000b9a50       ?fill@NpVolumeCache@physx@@UEAA?AW4FillStatus@PxVolumeCache@2@AEBVPxGeometry@2@AEBVPxTransform@2@@Z 00000001800baa50 f   NpVolumeCache.obj
 0001:000b9be0       ?fillInternal@NpVolumeCache@physx@@QEAA?AW4FillStatus@PxVolumeCache@2@IPEBUPxOverlapHit@2@H@Z 00000001800babe0 f   NpVolumeCache.obj
 0001:000b9ef0       ?getCacheVolume@NpVolumeCache@physx@@UEAA_NAEAVPxGeometryHolder@2@AEAVPxTransform@2@@Z 00000001800baef0 f   NpVolumeCache.obj
 0001:000b9f50       ?getNbCachedShapes@NpVolumeCache@physx@@UEAAHXZ 00000001800baf50 f   NpVolumeCache.obj
 0001:000b9f90       ?invalidate@NpVolumeCache@physx@@UEAAXXZ 00000001800baf90 f   NpVolumeCache.obj
 0001:000b9fc0       ?release@NpVolumeCache@physx@@UEAAXXZ 00000001800bafc0 f   NpVolumeCache.obj
 0001:000b9ff0       ?forEach@NpVolumeCache@physx@@UEAAXAEAUIterator@PxVolumeCache@2@@Z 00000001800baff0 f   NpVolumeCache.obj
 0001:000ba220       ?setMaxNbStaticShapes@NpVolumeCache@physx@@UEAAXI@Z 00000001800bb220 f   NpVolumeCache.obj
 0001:000ba250       ?getMaxNbStaticShapes@NpVolumeCache@physx@@UEAAIXZ 00000001800bb250 f   NpVolumeCache.obj
 0001:000ba260       ?setMaxNbDynamicShapes@NpVolumeCache@physx@@UEAAXI@Z 00000001800bb260 f   NpVolumeCache.obj
 0001:000ba2a0       ?getMaxNbDynamicShapes@NpVolumeCache@physx@@UEAAIXZ 00000001800bb2a0 f   NpVolumeCache.obj
 0001:000ba2b0       ?raycast@NpVolumeCache@physx@@UEBA_NAEBVPxVec3@2@0MAEAU?$PxHitCallback@UPxRaycastHit@physx@@@2@V?$PxFlags@W4Enum@PxHitFlag@physx@@G@2@AEBUPxQueryFilterData@2@PEAVPxQueryFilterCallback@2@@Z 00000001800bb2b0 f   NpVolumeCache.obj
 0001:000ba380       ?sweep@NpVolumeCache@physx@@UEBA_NAEBVPxGeometry@2@AEBVPxTransform@2@AEBVPxVec3@2@MAEAU?$PxHitCallback@UPxSweepHit@physx@@@2@V?$PxFlags@W4Enum@PxHitFlag@physx@@G@2@AEBUPxQueryFilterData@2@PEAVPxQueryFilterCallback@2@M@Z 00000001800bb380 f   NpVolumeCache.obj
 0001:000ba460       ?overlap@NpVolumeCache@physx@@UEBA_NAEBVPxGeometry@2@AEBVPxTransform@2@AEAU?$PxHitCallback@UPxOverlapHit@physx@@@2@AEBUPxQueryFilterData@2@PEAVPxQueryFilterCallback@2@@Z 00000001800bb460 f   NpVolumeCache.obj
 0001:000ba510       ?onOriginShift@NpVolumeCache@physx@@QEAAXAEBVPxVec3@2@@Z 00000001800bb510 f   NpVolumeCache.obj
 0001:000baee0       ??$multiQuery@UPxOverlapHit@physx@@@NpVolumeCache@physx@@QEBA_NAEBUMultiQueryInput@1@AEAU?$PxHitCallback@UPxOverlapHit@physx@@@1@V?$PxFlags@W4Enum@PxHitFlag@physx@@G@1@AEBUPxQueryFilterData@1@PEAVPxQueryFilterCallback@1@M@Z 00000001800bbee0 f i NpVolumeCache.obj
 0001:000bb7f0       ??$multiQuery@UPxRaycastHit@physx@@@NpVolumeCache@physx@@QEBA_NAEBUMultiQueryInput@1@AEAU?$PxHitCallback@UPxRaycastHit@physx@@@1@V?$PxFlags@W4Enum@PxHitFlag@physx@@G@1@AEBUPxQueryFilterData@1@PEAVPxQueryFilterCallback@1@M@Z 00000001800bc7f0 f i NpVolumeCache.obj
 0001:000bc550       ??$multiQuery@UPxSweepHit@physx@@@NpVolumeCache@physx@@QEBA_NAEBUMultiQueryInput@1@AEAU?$PxHitCallback@UPxSweepHit@physx@@@1@V?$PxFlags@W4Enum@PxHitFlag@physx@@G@1@AEBUPxQueryFilterData@1@PEAVPxQueryFilterCallback@1@M@Z 00000001800bd550 f i NpVolumeCache.obj
 0001:000bd370       ??1?$Array@UPxActorShape@physx@@VNamedAllocator@shdfnd@2@@shdfnd@physx@@QEAA@XZ 00000001800be370 f i NpVolumeCache.obj
 0001:000bd3b0       ??1PxVolumeCache@physx@@MEAA@XZ 00000001800be3b0 f i NpVolumeCache.obj
 0001:000bd3c0       ??_F?$Array@UPxActorShape@physx@@VNamedAllocator@shdfnd@2@@shdfnd@physx@@QEAAXXZ 00000001800be3c0 f i NpVolumeCache.obj
 0001:000bd410       ??_GNpVolumeCache@physx@@UEAAPEAXI@Z 00000001800be410 f i NpVolumeCache.obj
 0001:000bd410       ??_ENpVolumeCache@physx@@UEAAPEAXI@Z 00000001800be410 f i NpVolumeCache.obj
 0001:000bd480       ??_ENpVolumeCacheSqCallback@physx@@UEAAPEAXI@Z 00000001800be480 f i NpVolumeCache.obj
 0001:000bd480       ??_GNpVolumeCacheSqCallback@physx@@UEAAPEAXI@Z 00000001800be480 f i NpVolumeCache.obj
 0001:000bd4c0       ??_GPxVolumeCache@physx@@MEAAPEAXI@Z 00000001800be4c0 f i NpVolumeCache.obj
 0001:000bd4c0       ??_EPxVolumeCache@physx@@MEAAPEAXI@Z 00000001800be4c0 f i NpVolumeCache.obj
 0001:000bd500       ?doQuery@?$SceneQueryAny@UPxRaycastHit@physx@@@physx@@SA_NPEAVPxScene@2@AEBUMultiQueryInput@2@AEAU?$PxHitCallback@UPxRaycastHit@physx@@@2@V?$PxFlags@W4Enum@PxHitFlag@physx@@G@2@AEBUPxQueryFilterData@2@PEAVPxQueryFilterCallback@2@@Z 00000001800be500 f i NpVolumeCache.obj
 0001:000bd5a0       ?doQuery@?$SceneQueryAny@UPxSweepHit@physx@@@physx@@SA_NPEAVPxScene@2@AEBUMultiQueryInput@2@AEAU?$PxHitCallback@UPxSweepHit@physx@@@2@V?$PxFlags@W4Enum@PxHitFlag@physx@@G@2@AEBUPxQueryFilterData@2@PEAVPxQueryFilterCallback@2@@Z 00000001800be5a0 f i NpVolumeCache.obj
 0001:000bd650       ?growAndPushBack@?$Array@UPxActorShape@physx@@VNamedAllocator@shdfnd@2@@shdfnd@physx@@IEAAAEAUPxActorShape@3@AEBU43@@Z 00000001800be650 f i NpVolumeCache.obj
 0001:000bd770       ?processTouches@NpVolumeCacheSqCallback@physx@@UEAA_NPEBUPxOverlapHit@2@I@Z 00000001800be770 f i NpVolumeCache.obj
 0001:000bd830       ?recreate@?$Array@UPxActorShape@physx@@VNamedAllocator@shdfnd@2@@shdfnd@physx@@IEAAXI@Z 00000001800be830 f i NpVolumeCache.obj
 0001:000bd910       ?resize@?$Array@UPxActorShape@physx@@VNamedAllocator@shdfnd@2@@shdfnd@physx@@QEAAXIAEBUPxActorShape@3@@Z 00000001800be910 f i NpVolumeCache.obj
 0001:000bd9a0       ??0NpWriteCheck@physx@@QEAA@PEAVNpScene@1@PEBD_N@Z 00000001800be9a0 f   NpWriteCheck.obj
 0001:000bdaa0       ??1NpWriteCheck@physx@@QEAA@XZ 00000001800beaa0 f   NpWriteCheck.obj
 0001:000bdbc0       ??0PxMaterialGeneratedValues@physx@@QEAA@PEBVPxMaterial@1@@Z 00000001800bebc0 f   PxAutoGeneratedMetaDataObjects.obj
 0001:000bdc60       ??0PxMaterialGeneratedInfo@physx@@QEAA@XZ 00000001800bec60 f   PxAutoGeneratedMetaDataObjects.obj
 0001:000bde00       ??0PxActorGeneratedValues@physx@@QEAA@PEBVPxActor@1@@Z 00000001800bee00 f   PxAutoGeneratedMetaDataObjects.obj
 0001:000bde90       ??0PxActorGeneratedInfo@physx@@QEAA@XZ 00000001800bee90 f   PxAutoGeneratedMetaDataObjects.obj
 0001:000bdff0       ??0PxRigidActorGeneratedValues@physx@@QEAA@PEBVPxRigidActor@1@@Z 00000001800beff0 f   PxAutoGeneratedMetaDataObjects.obj
 0001:000be030       ??0PxRigidActorGeneratedInfo@physx@@QEAA@XZ 00000001800bf030 f   PxAutoGeneratedMetaDataObjects.obj
 0001:000be0f0       ??0PxRigidBodyGeneratedValues@physx@@QEAA@PEBVPxRigidBody@1@@Z 00000001800bf0f0 f   PxAutoGeneratedMetaDataObjects.obj
 0001:000be1f0       ??0PxRigidBodyGeneratedInfo@physx@@QEAA@XZ 00000001800bf1f0 f   PxAutoGeneratedMetaDataObjects.obj
 0001:000be430       ??0PxRigidDynamicGeneratedValues@physx@@QEAA@PEBVPxRigidDynamic@1@@Z 00000001800bf430 f   PxAutoGeneratedMetaDataObjects.obj
 0001:000be530       ??0PxRigidDynamicGeneratedInfo@physx@@QEAA@XZ 00000001800bf530 f   PxAutoGeneratedMetaDataObjects.obj
 0001:000be780       ??0PxRigidStaticGeneratedValues@physx@@QEAA@PEBVPxRigidStatic@1@@Z 00000001800bf780 f   PxAutoGeneratedMetaDataObjects.obj
 0001:000be7d0       ??0PxRigidStaticGeneratedInfo@physx@@QEAA@XZ 00000001800bf7d0 f   PxAutoGeneratedMetaDataObjects.obj
 0001:000be820       ??0PxArticulationLinkGeneratedValues@physx@@QEAA@PEBVPxArticulationLink@1@@Z 00000001800bf820 f   PxAutoGeneratedMetaDataObjects.obj
 0001:000be870       ??0PxArticulationLinkGeneratedInfo@physx@@QEAA@XZ 00000001800bf870 f   PxAutoGeneratedMetaDataObjects.obj
 0001:000be910       ??0PxArticulationJointGeneratedValues@physx@@QEAA@PEBVPxArticulationJoint@1@@Z 00000001800bf910 f   PxAutoGeneratedMetaDataObjects.obj
 0001:000bea60       ??0PxArticulationJointGeneratedInfo@physx@@QEAA@XZ 00000001800bfa60 f   PxAutoGeneratedMetaDataObjects.obj
 0001:000bee10       ??0PxArticulationGeneratedValues@physx@@QEAA@PEBVPxArticulation@1@@Z 00000001800bfe10 f   PxAutoGeneratedMetaDataObjects.obj
 0001:000bef00       ??0PxArticulationGeneratedInfo@physx@@QEAA@XZ 00000001800bff00 f   PxAutoGeneratedMetaDataObjects.obj
 0001:000bf1d0       ??0PxAggregateGeneratedValues@physx@@QEAA@PEBVPxAggregate@1@@Z 00000001800c01d0 f   PxAutoGeneratedMetaDataObjects.obj
 0001:000bf220       ??0PxAggregateGeneratedInfo@physx@@QEAA@XZ 00000001800c0220 f   PxAutoGeneratedMetaDataObjects.obj
 0001:000bf2b0       ??0PxConstraintGeneratedValues@physx@@QEAA@PEBVPxConstraint@1@@Z 00000001800c02b0 f   PxAutoGeneratedMetaDataObjects.obj
 0001:000bf330       ??0PxConstraintGeneratedInfo@physx@@QEAA@XZ 00000001800c0330 f   PxAutoGeneratedMetaDataObjects.obj
 0001:000bf450       ??0PxShapeGeneratedValues@physx@@QEAA@PEBVPxShape@1@@Z 00000001800c0450 f   PxAutoGeneratedMetaDataObjects.obj
 0001:000bf530       ??0PxShapeGeneratedInfo@physx@@QEAA@XZ 00000001800c0530 f   PxAutoGeneratedMetaDataObjects.obj
 0001:000bf780       ??0PxClothFabricGeneratedValues@physx@@QEAA@PEBVPxClothFabric@1@@Z 00000001800c0780 f   PxAutoGeneratedMetaDataObjects.obj
 0001:000bf7d0       ??0PxClothFabricGeneratedInfo@physx@@QEAA@XZ 00000001800c07d0 f   PxAutoGeneratedMetaDataObjects.obj
 0001:000bf8f0       ??0PxClothGeneratedValues@physx@@QEAA@PEBVPxCloth@1@@Z 00000001800c08f0 f   PxAutoGeneratedMetaDataObjects.obj
 0001:000bfb70       ??0PxClothGeneratedInfo@physx@@QEAA@XZ 00000001800c0b70 f   PxAutoGeneratedMetaDataObjects.obj
 0001:000c0150       ??0PxParticleBaseGeneratedValues@physx@@QEAA@PEBVPxParticleBase@1@@Z 00000001800c1150 f   PxAutoGeneratedMetaDataObjects.obj
 0001:000c0290       ??0PxParticleBaseGeneratedInfo@physx@@QEAA@XZ 00000001800c1290 f   PxAutoGeneratedMetaDataObjects.obj
 0001:000c0570       ??0PxParticleFluidGeneratedValues@physx@@QEAA@PEBVPxParticleFluid@1@@Z 00000001800c1570 f   PxAutoGeneratedMetaDataObjects.obj
 0001:000c05f0       ??0PxParticleFluidGeneratedInfo@physx@@QEAA@XZ 00000001800c15f0 f   PxAutoGeneratedMetaDataObjects.obj
 0001:000c06d0       ??0PxParticleSystemGeneratedValues@physx@@QEAA@PEBVPxParticleSystem@1@@Z 00000001800c16d0 f   PxAutoGeneratedMetaDataObjects.obj
 0001:000c0710       ??0PxParticleSystemGeneratedInfo@physx@@QEAA@XZ 00000001800c1710 f   PxAutoGeneratedMetaDataObjects.obj
 0001:000c0760       ??0PxPhysicsGeneratedValues@physx@@QEAA@PEBVPxPhysics@1@@Z 00000001800c1760 f   PxAutoGeneratedMetaDataObjects.obj
 0001:000c0790       ??0PxPhysicsGeneratedInfo@physx@@QEAA@XZ 00000001800c1790 f   PxAutoGeneratedMetaDataObjects.obj
 0001:000c0940       ??0PxTolerancesScaleGeneratedValues@physx@@QEAA@PEBVPxTolerancesScale@1@@Z 00000001800c1940 f   PxAutoGeneratedMetaDataObjects.obj
 0001:000c0980       ??0PxTolerancesScaleGeneratedInfo@physx@@QEAA@XZ 00000001800c1980 f   PxAutoGeneratedMetaDataObjects.obj
 0001:000c0a20       ??0PxSceneGeneratedValues@physx@@QEAA@PEBVPxScene@1@@Z 00000001800c1a20 f   PxAutoGeneratedMetaDataObjects.obj
 0001:000c0ce0       ??0PxSceneGeneratedInfo@physx@@QEAA@XZ 00000001800c1ce0 f   PxAutoGeneratedMetaDataObjects.obj
 0001:000c13d0       ??0PxGeometryGeneratedValues@physx@@QEAA@PEBVPxGeometry@1@@Z 00000001800c23d0 f   PxAutoGeneratedMetaDataObjects.obj
 0001:000c13e0       ??0PxGeometryGeneratedInfo@physx@@QEAA@XZ 00000001800c23e0 f   PxAutoGeneratedMetaDataObjects.obj
 0001:000c13f0       ??0PxBoxGeometryGeneratedValues@physx@@QEAA@PEBVPxBoxGeometry@1@@Z 00000001800c23f0 f   PxAutoGeneratedMetaDataObjects.obj
 0001:000c1410       ??0PxBoxGeometryGeneratedInfo@physx@@QEAA@XZ 00000001800c2410 f   PxAutoGeneratedMetaDataObjects.obj
 0001:000c1450       ??0PxCapsuleGeometryGeneratedValues@physx@@QEAA@PEBVPxCapsuleGeometry@1@@Z 00000001800c2450 f   PxAutoGeneratedMetaDataObjects.obj
 0001:000c1470       ??0PxCapsuleGeometryGeneratedInfo@physx@@QEAA@XZ 00000001800c2470 f   PxAutoGeneratedMetaDataObjects.obj
 0001:000c14d0       ??0PxMeshScaleGeneratedValues@physx@@QEAA@PEBVPxMeshScale@1@@Z 00000001800c24d0 f   PxAutoGeneratedMetaDataObjects.obj
 0001:000c1510       ??0PxMeshScaleGeneratedInfo@physx@@QEAA@XZ 00000001800c2510 f   PxAutoGeneratedMetaDataObjects.obj
 0001:000c1570       ??0PxConvexMeshGeometryGeneratedValues@physx@@QEAA@PEBVPxConvexMeshGeometry@1@@Z 00000001800c2570 f   PxAutoGeneratedMetaDataObjects.obj
 0001:000c15b0       ??0PxConvexMeshGeometryGeneratedInfo@physx@@QEAA@XZ 00000001800c25b0 f   PxAutoGeneratedMetaDataObjects.obj
 0001:000c1610       ??0PxSphereGeometryGeneratedValues@physx@@QEAA@PEBVPxSphereGeometry@1@@Z 00000001800c2610 f   PxAutoGeneratedMetaDataObjects.obj
 0001:000c1670       ??0PxSphereGeometryGeneratedInfo@physx@@QEAA@XZ 00000001800c2670 f   PxAutoGeneratedMetaDataObjects.obj
 0001:000c16c0       ??0PxPlaneGeometryGeneratedValues@physx@@QEAA@PEBVPxPlaneGeometry@1@@Z 00000001800c26c0 f   PxAutoGeneratedMetaDataObjects.obj
 0001:000c16d0       ??0PxPlaneGeometryGeneratedInfo@physx@@QEAA@XZ 00000001800c26d0 f   PxAutoGeneratedMetaDataObjects.obj
 0001:000c16e0       ??0PxTriangleMeshGeometryGeneratedValues@physx@@QEAA@PEBVPxTriangleMeshGeometry@1@@Z 00000001800c26e0 f   PxAutoGeneratedMetaDataObjects.obj
 0001:000c1730       ??0PxTriangleMeshGeometryGeneratedInfo@physx@@QEAA@XZ 00000001800c2730 f   PxAutoGeneratedMetaDataObjects.obj
 0001:000c17c0       ??0PxHeightFieldGeometryGeneratedValues@physx@@QEAA@PEBVPxHeightFieldGeometry@1@@Z 00000001800c27c0 f   PxAutoGeneratedMetaDataObjects.obj
 0001:000c17f0       ??0PxHeightFieldGeometryGeneratedInfo@physx@@QEAA@XZ 00000001800c27f0 f   PxAutoGeneratedMetaDataObjects.obj
 0001:000c18d0       ??0PxHeightFieldDescGeneratedValues@physx@@QEAA@PEBVPxHeightFieldDesc@1@@Z 00000001800c28d0 f   PxAutoGeneratedMetaDataObjects.obj
 0001:000c1960       ??0PxHeightFieldDescGeneratedInfo@physx@@QEAA@XZ 00000001800c2960 f   PxAutoGeneratedMetaDataObjects.obj
 0001:000c1ad0       ??0PxClothParticleGeneratedValues@physx@@QEAA@PEBUPxClothParticle@1@@Z 00000001800c2ad0 f   PxAutoGeneratedMetaDataObjects.obj
 0001:000c1af0       ??0PxClothParticleGeneratedInfo@physx@@QEAA@XZ 00000001800c2af0 f   PxAutoGeneratedMetaDataObjects.obj
 0001:000c1b50       ??0PxClothFabricPhaseGeneratedValues@physx@@QEAA@PEBUPxClothFabricPhase@1@@Z 00000001800c2b50 f   PxAutoGeneratedMetaDataObjects.obj
 0001:000c1b70       ??0PxClothFabricPhaseGeneratedInfo@physx@@QEAA@XZ 00000001800c2b70 f   PxAutoGeneratedMetaDataObjects.obj
 0001:000c1bd0       ??0PxSceneLimitsGeneratedValues@physx@@QEAA@PEBVPxSceneLimits@1@@Z 00000001800c2bd0 f   PxAutoGeneratedMetaDataObjects.obj
 0001:000c1c10       ??0PxSceneLimitsGeneratedInfo@physx@@QEAA@XZ 00000001800c2c10 f   PxAutoGeneratedMetaDataObjects.obj
 0001:000c1d90       ??0PxSceneDescGeneratedValues@physx@@QEAA@PEBVPxSceneDesc@1@@Z 00000001800c2d90 f   PxAutoGeneratedMetaDataObjects.obj
 0001:000c1f60       ??0PxSceneDescGeneratedInfo@physx@@QEAA@XZ 00000001800c2f60 f   PxAutoGeneratedMetaDataObjects.obj
 0001:000c2610       ??0PxSimulationStatisticsGeneratedValues@physx@@QEAA@PEBVPxSimulationStatistics@1@@Z 00000001800c3610 f   PxAutoGeneratedMetaDataObjects.obj
 0001:000c28f0       ??0PxSimulationStatisticsGeneratedInfo@physx@@QEAA@XZ 00000001800c38f0 f   PxAutoGeneratedMetaDataObjects.obj
 0001:000c2bd0       ??0PxLockedDataGeneratedValues@physx@@QEAA@PEBVPxLockedData@1@@Z 00000001800c3bd0 f   PxAutoGeneratedMetaDataObjects.obj
 0001:000c2be0       ??0PxLockedDataGeneratedInfo@physx@@QEAA@XZ 00000001800c3be0 f   PxAutoGeneratedMetaDataObjects.obj
 0001:000c2bf0       ??0PxParticleReadDataGeneratedValues@physx@@QEAA@PEBVPxParticleReadData@1@@Z 00000001800c3bf0 f   PxAutoGeneratedMetaDataObjects.obj
 0001:000c2c40       ??0PxParticleReadDataGeneratedInfo@physx@@QEAA@XZ 00000001800c3c40 f   PxAutoGeneratedMetaDataObjects.obj
 0001:000c2df0       ??0PxClothStretchConfigGeneratedValues@physx@@QEAA@PEBUPxClothStretchConfig@1@@Z 00000001800c3df0 f   PxAutoGeneratedMetaDataObjects.obj
 0001:000c2e10       ??0PxClothStretchConfigGeneratedInfo@physx@@QEAA@XZ 00000001800c3e10 f   PxAutoGeneratedMetaDataObjects.obj
 0001:000c2ec0       ??0PxClothTetherConfigGeneratedValues@physx@@QEAA@PEBUPxClothTetherConfig@1@@Z 00000001800c3ec0 f   PxAutoGeneratedMetaDataObjects.obj
 0001:000c2ee0       ??0PxClothTetherConfigGeneratedInfo@physx@@QEAA@XZ 00000001800c3ee0 f   PxAutoGeneratedMetaDataObjects.obj
 0001:000c2f40       ??0PxClothMotionConstraintConfigGeneratedValues@physx@@QEAA@PEBUPxClothMotionConstraintConfig@1@@Z 00000001800c3f40 f   PxAutoGeneratedMetaDataObjects.obj
 0001:000c2f60       ??0PxClothMotionConstraintConfigGeneratedInfo@physx@@QEAA@XZ 00000001800c3f60 f   PxAutoGeneratedMetaDataObjects.obj
 0001:000c2ff0       ??0PxClothParticleDataGeneratedValues@physx@@QEAA@PEBVPxClothParticleData@1@@Z 00000001800c3ff0 f   PxAutoGeneratedMetaDataObjects.obj
 0001:000c3010       ??0PxClothParticleDataGeneratedInfo@physx@@QEAA@XZ 00000001800c4010 f   PxAutoGeneratedMetaDataObjects.obj
 0001:000c3070       ?getPxMaterial_ReferenceCount@@YAIPEBVPxMaterial@physx@@@Z 00000001800c4070 f   PxAutoGeneratedMetaDataObjects.obj
 0001:000c3080       ?setPxMaterial_DynamicFriction@@YAXPEAVPxMaterial@physx@@M@Z 00000001800c4080 f   PxAutoGeneratedMetaDataObjects.obj
 0001:000c3090       ?getPxMaterial_DynamicFriction@@YAMPEBVPxMaterial@physx@@@Z 00000001800c4090 f   PxAutoGeneratedMetaDataObjects.obj
 0001:000c30a0       ?setPxMaterial_StaticFriction@@YAXPEAVPxMaterial@physx@@M@Z 00000001800c40a0 f   PxAutoGeneratedMetaDataObjects.obj
 0001:000c30b0       ?getPxMaterial_StaticFriction@@YAMPEBVPxMaterial@physx@@@Z 00000001800c40b0 f   PxAutoGeneratedMetaDataObjects.obj
 0001:000c30c0       ?setPxMaterial_Restitution@@YAXPEAVPxMaterial@physx@@M@Z 00000001800c40c0 f   PxAutoGeneratedMetaDataObjects.obj
 0001:000c30d0       ?getPxMaterial_Restitution@@YAMPEBVPxMaterial@physx@@@Z 00000001800c40d0 f   PxAutoGeneratedMetaDataObjects.obj
 0001:000c30e0       ?setPxMaterial_Flags@@YAXPEAVPxMaterial@physx@@V?$PxFlags@W4Enum@PxMaterialFlag@physx@@G@2@@Z 00000001800c40e0 f   PxAutoGeneratedMetaDataObjects.obj
 0001:000c3110       ?getPxMaterial_Flags@@YA?AV?$PxFlags@W4Enum@PxMaterialFlag@physx@@G@physx@@PEBVPxMaterial@2@@Z 00000001800c4110 f   PxAutoGeneratedMetaDataObjects.obj
 0001:000c3140       ?setPxMaterial_FrictionCombineMode@@YAXPEAVPxMaterial@physx@@W4Enum@PxCombineMode@2@@Z 00000001800c4140 f   PxAutoGeneratedMetaDataObjects.obj
 0001:000c3150       ?getPxMaterial_FrictionCombineMode@@YA?AW4Enum@PxCombineMode@physx@@PEBVPxMaterial@3@@Z 00000001800c4150 f   PxAutoGeneratedMetaDataObjects.obj
 0001:000c3160       ?setPxMaterial_RestitutionCombineMode@@YAXPEAVPxMaterial@physx@@W4Enum@PxCombineMode@2@@Z 00000001800c4160 f   PxAutoGeneratedMetaDataObjects.obj
 0001:000c3170       ?getPxMaterial_RestitutionCombineMode@@YA?AW4Enum@PxCombineMode@physx@@PEBVPxMaterial@3@@Z 00000001800c4170 f   PxAutoGeneratedMetaDataObjects.obj
 0001:000c3180       ?getPxMaterial_ConcreteTypeName@@YAPEBDPEBVPxMaterial@physx@@@Z 00000001800c4180 f   PxAutoGeneratedMetaDataObjects.obj
 0001:000c3190       ?getPxActor_Scene@@YAPEAVPxScene@physx@@PEBVPxActor@2@@Z 00000001800c4190 f   PxAutoGeneratedMetaDataObjects.obj
 0001:000c31a0       ?setPxActor_Name@@YAXPEAVPxActor@physx@@PEBD@Z 00000001800c41a0 f   PxAutoGeneratedMetaDataObjects.obj
 0001:000c31b0       ?getPxActor_Name@@YAPEBDPEBVPxActor@physx@@@Z 00000001800c41b0 f   PxAutoGeneratedMetaDataObjects.obj
 0001:000c31c0       ?setPxActor_ActorFlags@@YAXPEAVPxActor@physx@@V?$PxFlags@W4Enum@PxActorFlag@physx@@G@2@@Z 00000001800c41c0 f   PxAutoGeneratedMetaDataObjects.obj
 0001:000c31f0       ?getPxActor_ActorFlags@@YA?AV?$PxFlags@W4Enum@PxActorFlag@physx@@G@physx@@PEBVPxActor@2@@Z 00000001800c41f0 f   PxAutoGeneratedMetaDataObjects.obj
 0001:000c3220       ?setPxActor_DominanceGroup@@YAXPEAVPxActor@physx@@E@Z 00000001800c4220 f   PxAutoGeneratedMetaDataObjects.obj
 0001:000c3230       ?getPxActor_DominanceGroup@@YAEPEBVPxActor@physx@@@Z 00000001800c4230 f   PxAutoGeneratedMetaDataObjects.obj
 0001:000c3240       ?setPxActor_OwnerClient@@YAXPEAVPxActor@physx@@E@Z 00000001800c4240 f   PxAutoGeneratedMetaDataObjects.obj
 0001:000c3250       ?getPxActor_OwnerClient@@YAEPEBVPxActor@physx@@@Z 00000001800c4250 f   PxAutoGeneratedMetaDataObjects.obj
 0001:000c3260       ?setPxActor_ClientBehaviorFlags@@YAXPEAVPxActor@physx@@V?$PxFlags@W4Enum@PxActorClientBehaviorFlag@physx@@E@2@@Z 00000001800c4260 f   PxAutoGeneratedMetaDataObjects.obj
 0001:000c3290       ?getPxActor_ClientBehaviorFlags@@YA?AV?$PxFlags@W4Enum@PxActorClientBehaviorFlag@physx@@E@physx@@PEBVPxActor@2@@Z 00000001800c4290 f   PxAutoGeneratedMetaDataObjects.obj
 0001:000c32c0       ?getPxActor_Aggregate@@YAPEAVPxAggregate@physx@@PEBVPxActor@2@@Z 00000001800c42c0 f   PxAutoGeneratedMetaDataObjects.obj
 0001:000c32d0       ?setPxRigidActor_GlobalPose@@YAXPEAVPxRigidActor@physx@@AEBVPxTransform@2@@Z 00000001800c42d0 f   PxAutoGeneratedMetaDataObjects.obj
 0001:000c32f0       ?getPxRigidActor_GlobalPose@@YA?AVPxTransform@physx@@PEBVPxRigidActor@2@@Z 00000001800c42f0 f   PxAutoGeneratedMetaDataObjects.obj
 0001:000c3320       ?getPxRigidActor_Shapes@@YAIPEBVPxRigidActor@physx@@PEAPEAVPxShape@2@I@Z 00000001800c4320 f   PxAutoGeneratedMetaDataObjects.obj
 0001:000c3340       ?getNbPxRigidActor_Shapes@@YAIPEBVPxRigidActor@physx@@@Z 00000001800c4340 f   PxAutoGeneratedMetaDataObjects.obj
 0001:000c3350       ?getPxRigidActor_Constraints@@YAIPEBVPxRigidActor@physx@@PEAPEAVPxConstraint@2@I@Z 00000001800c4350 f   PxAutoGeneratedMetaDataObjects.obj
 0001:000c3370       ?getNbPxRigidActor_Constraints@@YAIPEBVPxRigidActor@physx@@@Z 00000001800c4370 f   PxAutoGeneratedMetaDataObjects.obj
 0001:000c3380       ?setPxRigidBody_CMassLocalPose@@YAXPEAVPxRigidBody@physx@@AEBVPxTransform@2@@Z 00000001800c4380 f   PxAutoGeneratedMetaDataObjects.obj
 0001:000c3390       ?getPxRigidBody_CMassLocalPose@@YA?AVPxTransform@physx@@PEBVPxRigidBody@2@@Z 00000001800c4390 f   PxAutoGeneratedMetaDataObjects.obj
 0001:000c33c0       ?setPxRigidBody_Mass@@YAXPEAVPxRigidBody@physx@@M@Z 00000001800c43c0 f   PxAutoGeneratedMetaDataObjects.obj
 0001:000c33d0       ?getPxRigidBody_Mass@@YAMPEBVPxRigidBody@physx@@@Z 00000001800c43d0 f   PxAutoGeneratedMetaDataObjects.obj
 0001:000c33e0       ?getPxRigidBody_InvMass@@YAMPEBVPxRigidBody@physx@@@Z 00000001800c43e0 f   PxAutoGeneratedMetaDataObjects.obj
 0001:000c33f0       ?setPxRigidBody_MassSpaceInertiaTensor@@YAXPEAVPxRigidBody@physx@@AEBVPxVec3@2@@Z 00000001800c43f0 f   PxAutoGeneratedMetaDataObjects.obj
 0001:000c3400       ?getPxRigidBody_MassSpaceInertiaTensor@@YA?AVPxVec3@physx@@PEBVPxRigidBody@2@@Z 00000001800c4400 f   PxAutoGeneratedMetaDataObjects.obj
 0001:000c3430       ?getPxRigidBody_MassSpaceInvInertiaTensor@@YA?AVPxVec3@physx@@PEBVPxRigidBody@2@@Z 00000001800c4430 f   PxAutoGeneratedMetaDataObjects.obj
 0001:000c3460       ?setPxRigidBody_LinearVelocity@@YAXPEAVPxRigidBody@physx@@AEBVPxVec3@2@@Z 00000001800c4460 f   PxAutoGeneratedMetaDataObjects.obj
 0001:000c3480       ?getPxRigidBody_LinearVelocity@@YA?AVPxVec3@physx@@PEBVPxRigidBody@2@@Z 00000001800c4480 f   PxAutoGeneratedMetaDataObjects.obj
 0001:000c34b0       ?setPxRigidBody_AngularVelocity@@YAXPEAVPxRigidBody@physx@@AEBVPxVec3@2@@Z 00000001800c44b0 f   PxAutoGeneratedMetaDataObjects.obj
 0001:000c34d0       ?getPxRigidBody_AngularVelocity@@YA?AVPxVec3@physx@@PEBVPxRigidBody@2@@Z 00000001800c44d0 f   PxAutoGeneratedMetaDataObjects.obj
 0001:000c3500       ?setPxRigidBody_RigidDynamicFlags@@YAXPEAVPxRigidBody@physx@@V?$PxFlags@W4Enum@PxRigidBodyFlag@physx@@E@2@@Z 00000001800c4500 f   PxAutoGeneratedMetaDataObjects.obj
 0001:000c3530       ?getPxRigidBody_RigidDynamicFlags@@YA?AV?$PxFlags@W4Enum@PxRigidBodyFlag@physx@@E@physx@@PEBVPxRigidBody@2@@Z 00000001800c4530 f   PxAutoGeneratedMetaDataObjects.obj
 0001:000c3560       ?setPxRigidBody_RigidBodyFlags@@YAXPEAVPxRigidBody@physx@@V?$PxFlags@W4Enum@PxRigidBodyFlag@physx@@E@2@@Z 00000001800c4560 f   PxAutoGeneratedMetaDataObjects.obj
 0001:000c3590       ?getPxRigidBody_RigidBodyFlags@@YA?AV?$PxFlags@W4Enum@PxRigidBodyFlag@physx@@E@physx@@PEBVPxRigidBody@2@@Z 00000001800c4590 f   PxAutoGeneratedMetaDataObjects.obj
 0001:000c35c0       ?setPxRigidBody_MinCCDAdvanceCoefficient@@YAXPEAVPxRigidBody@physx@@M@Z 00000001800c45c0 f   PxAutoGeneratedMetaDataObjects.obj
 0001:000c35d0       ?getPxRigidBody_MinCCDAdvanceCoefficient@@YAMPEBVPxRigidBody@physx@@@Z 00000001800c45d0 f   PxAutoGeneratedMetaDataObjects.obj
 0001:000c35e0       ?setPxRigidBody_MaxDepenetrationVelocity@@YAXPEAVPxRigidBody@physx@@M@Z 00000001800c45e0 f   PxAutoGeneratedMetaDataObjects.obj
 0001:000c35f0       ?getPxRigidBody_MaxDepenetrationVelocity@@YAMPEBVPxRigidBody@physx@@@Z 00000001800c45f0 f   PxAutoGeneratedMetaDataObjects.obj
 0001:000c3600       ?setPxRigidDynamic_KinematicTarget@@YAXPEAVPxRigidDynamic@physx@@AEBVPxTransform@2@@Z 00000001800c4600 f   PxAutoGeneratedMetaDataObjects.obj
 0001:000c3610       ?setPxRigidDynamic_LinearDamping@@YAXPEAVPxRigidDynamic@physx@@M@Z 00000001800c4610 f   PxAutoGeneratedMetaDataObjects.obj
 0001:000c3620       ?getPxRigidDynamic_LinearDamping@@YAMPEBVPxRigidDynamic@physx@@@Z 00000001800c4620 f   PxAutoGeneratedMetaDataObjects.obj
 0001:000c3630       ?setPxRigidDynamic_AngularDamping@@YAXPEAVPxRigidDynamic@physx@@M@Z 00000001800c4630 f   PxAutoGeneratedMetaDataObjects.obj
 0001:000c3640       ?getPxRigidDynamic_AngularDamping@@YAMPEBVPxRigidDynamic@physx@@@Z 00000001800c4640 f   PxAutoGeneratedMetaDataObjects.obj
 0001:000c3650       ?setPxRigidDynamic_MaxAngularVelocity@@YAXPEAVPxRigidDynamic@physx@@M@Z 00000001800c4650 f   PxAutoGeneratedMetaDataObjects.obj
 0001:000c3660       ?getPxRigidDynamic_MaxAngularVelocity@@YAMPEBVPxRigidDynamic@physx@@@Z 00000001800c4660 f   PxAutoGeneratedMetaDataObjects.obj
 0001:000c3670       ?getPxRigidDynamic_IsSleeping@@YA_NPEBVPxRigidDynamic@physx@@@Z 00000001800c4670 f   PxAutoGeneratedMetaDataObjects.obj
 0001:000c3680       ?setPxRigidDynamic_SleepThreshold@@YAXPEAVPxRigidDynamic@physx@@M@Z 00000001800c4680 f   PxAutoGeneratedMetaDataObjects.obj
 0001:000c3690       ?getPxRigidDynamic_SleepThreshold@@YAMPEBVPxRigidDynamic@physx@@@Z 00000001800c4690 f   PxAutoGeneratedMetaDataObjects.obj
 0001:000c36a0       ?setPxRigidDynamic_StabilizationThreshold@@YAXPEAVPxRigidDynamic@physx@@M@Z 00000001800c46a0 f   PxAutoGeneratedMetaDataObjects.obj
 0001:000c36b0       ?getPxRigidDynamic_StabilizationThreshold@@YAMPEBVPxRigidDynamic@physx@@@Z 00000001800c46b0 f   PxAutoGeneratedMetaDataObjects.obj
 0001:000c36c0       ?setPxRigidDynamic_WakeCounter@@YAXPEAVPxRigidDynamic@physx@@M@Z 00000001800c46c0 f   PxAutoGeneratedMetaDataObjects.obj
 0001:000c36d0       ?getPxRigidDynamic_WakeCounter@@YAMPEBVPxRigidDynamic@physx@@@Z 00000001800c46d0 f   PxAutoGeneratedMetaDataObjects.obj
 0001:000c36e0       ?setPxRigidDynamic_SolverIterationCounts@@YAXPEAVPxRigidDynamic@physx@@II@Z 00000001800c46e0 f   PxAutoGeneratedMetaDataObjects.obj
 0001:000c36f0       ?getPxRigidDynamic_SolverIterationCounts@@YAXPEBVPxRigidDynamic@physx@@AEAI1@Z 00000001800c46f0 f   PxAutoGeneratedMetaDataObjects.obj
 0001:000c3700       ?setPxRigidDynamic_ContactReportThreshold@@YAXPEAVPxRigidDynamic@physx@@M@Z 00000001800c4700 f   PxAutoGeneratedMetaDataObjects.obj
 0001:000c3710       ?getPxRigidDynamic_ContactReportThreshold@@YAMPEBVPxRigidDynamic@physx@@@Z 00000001800c4710 f   PxAutoGeneratedMetaDataObjects.obj
 0001:000c3720       ?getPxRigidDynamic_ConcreteTypeName@@YAPEBDPEBVPxRigidDynamic@physx@@@Z 00000001800c4720 f   PxAutoGeneratedMetaDataObjects.obj
 0001:000c3730       ?getPxRigidStatic_ConcreteTypeName@@YAPEBDPEBVPxRigidStatic@physx@@@Z 00000001800c4730 f   PxAutoGeneratedMetaDataObjects.obj
 0001:000c3740       ?getPxArticulationLink_InboundJoint@@YAPEAVPxArticulationJoint@physx@@PEBVPxArticulationLink@2@@Z 00000001800c4740 f   PxAutoGeneratedMetaDataObjects.obj
 0001:000c3750       ?getPxArticulationLink_Children@@YAIPEBVPxArticulationLink@physx@@PEAPEAV12@I@Z 00000001800c4750 f   PxAutoGeneratedMetaDataObjects.obj
 0001:000c3760       ?getNbPxArticulationLink_Children@@YAIPEBVPxArticulationLink@physx@@@Z 00000001800c4760 f   PxAutoGeneratedMetaDataObjects.obj
 0001:000c3770       ?getPxArticulationLink_ConcreteTypeName@@YAPEBDPEBVPxArticulationLink@physx@@@Z 00000001800c4770 f   PxAutoGeneratedMetaDataObjects.obj
 0001:000c3780       ?setPxArticulationJoint_ParentPose@@YAXPEAVPxArticulationJoint@physx@@AEBVPxTransform@2@@Z 00000001800c4780 f   PxAutoGeneratedMetaDataObjects.obj
 0001:000c3790       ?getPxArticulationJoint_ParentPose@@YA?AVPxTransform@physx@@PEBVPxArticulationJoint@2@@Z 00000001800c4790 f   PxAutoGeneratedMetaDataObjects.obj
 0001:000c37c0       ?setPxArticulationJoint_ChildPose@@YAXPEAVPxArticulationJoint@physx@@AEBVPxTransform@2@@Z 00000001800c47c0 f   PxAutoGeneratedMetaDataObjects.obj
 0001:000c37d0       ?getPxArticulationJoint_ChildPose@@YA?AVPxTransform@physx@@PEBVPxArticulationJoint@2@@Z 00000001800c47d0 f   PxAutoGeneratedMetaDataObjects.obj
 0001:000c3800       ?setPxArticulationJoint_TargetOrientation@@YAXPEAVPxArticulationJoint@physx@@AEBVPxQuat@2@@Z 00000001800c4800 f   PxAutoGeneratedMetaDataObjects.obj
 0001:000c3810       ?getPxArticulationJoint_TargetOrientation@@YA?AVPxQuat@physx@@PEBVPxArticulationJoint@2@@Z 00000001800c4810 f   PxAutoGeneratedMetaDataObjects.obj
 0001:000c3840       ?setPxArticulationJoint_TargetVelocity@@YAXPEAVPxArticulationJoint@physx@@AEBVPxVec3@2@@Z 00000001800c4840 f   PxAutoGeneratedMetaDataObjects.obj
 0001:000c3850       ?getPxArticulationJoint_TargetVelocity@@YA?AVPxVec3@physx@@PEBVPxArticulationJoint@2@@Z 00000001800c4850 f   PxAutoGeneratedMetaDataObjects.obj
 0001:000c3880       ?setPxArticulationJoint_DriveType@@YAXPEAVPxArticulationJoint@physx@@W4Enum@PxArticulationJointDriveType@2@@Z 00000001800c4880 f   PxAutoGeneratedMetaDataObjects.obj
 0001:000c3890       ?getPxArticulationJoint_DriveType@@YA?AW4Enum@PxArticulationJointDriveType@physx@@PEBVPxArticulationJoint@3@@Z 00000001800c4890 f   PxAutoGeneratedMetaDataObjects.obj
 0001:000c38a0       ?setPxArticulationJoint_Stiffness@@YAXPEAVPxArticulationJoint@physx@@M@Z 00000001800c48a0 f   PxAutoGeneratedMetaDataObjects.obj
 0001:000c38b0       ?getPxArticulationJoint_Stiffness@@YAMPEBVPxArticulationJoint@physx@@@Z 00000001800c48b0 f   PxAutoGeneratedMetaDataObjects.obj
 0001:000c38c0       ?setPxArticulationJoint_Damping@@YAXPEAVPxArticulationJoint@physx@@M@Z 00000001800c48c0 f   PxAutoGeneratedMetaDataObjects.obj
 0001:000c38d0       ?getPxArticulationJoint_Damping@@YAMPEBVPxArticulationJoint@physx@@@Z 00000001800c48d0 f   PxAutoGeneratedMetaDataObjects.obj
 0001:000c38e0       ?setPxArticulationJoint_InternalCompliance@@YAXPEAVPxArticulationJoint@physx@@M@Z 00000001800c48e0 f   PxAutoGeneratedMetaDataObjects.obj
 0001:000c38f0       ?getPxArticulationJoint_InternalCompliance@@YAMPEBVPxArticulationJoint@physx@@@Z 00000001800c48f0 f   PxAutoGeneratedMetaDataObjects.obj
 0001:000c3900       ?setPxArticulationJoint_ExternalCompliance@@YAXPEAVPxArticulationJoint@physx@@M@Z 00000001800c4900 f   PxAutoGeneratedMetaDataObjects.obj
 0001:000c3910       ?getPxArticulationJoint_ExternalCompliance@@YAMPEBVPxArticulationJoint@physx@@@Z 00000001800c4910 f   PxAutoGeneratedMetaDataObjects.obj
 0001:000c3920       ?setPxArticulationJoint_SwingLimit@@YAXPEAVPxArticulationJoint@physx@@MM@Z 00000001800c4920 f   PxAutoGeneratedMetaDataObjects.obj
 0001:000c3930       ?getPxArticulationJoint_SwingLimit@@YAXPEBVPxArticulationJoint@physx@@AEAM1@Z 00000001800c4930 f   PxAutoGeneratedMetaDataObjects.obj
 0001:000c3940       ?setPxArticulationJoint_TangentialStiffness@@YAXPEAVPxArticulationJoint@physx@@M@Z 00000001800c4940 f   PxAutoGeneratedMetaDataObjects.obj
 0001:000c3950       ?getPxArticulationJoint_TangentialStiffness@@YAMPEBVPxArticulationJoint@physx@@@Z 00000001800c4950 f   PxAutoGeneratedMetaDataObjects.obj
 0001:000c3960       ?setPxArticulationJoint_TangentialDamping@@YAXPEAVPxArticulationJoint@physx@@M@Z 00000001800c4960 f   PxAutoGeneratedMetaDataObjects.obj
 0001:000c3970       ?getPxArticulationJoint_TangentialDamping@@YAMPEBVPxArticulationJoint@physx@@@Z 00000001800c4970 f   PxAutoGeneratedMetaDataObjects.obj
 0001:000c3980       ?setPxArticulationJoint_SwingLimitContactDistance@@YAXPEAVPxArticulationJoint@physx@@M@Z 00000001800c4980 f   PxAutoGeneratedMetaDataObjects.obj
 0001:000c3990       ?getPxArticulationJoint_SwingLimitContactDistance@@YAMPEBVPxArticulationJoint@physx@@@Z 00000001800c4990 f   PxAutoGeneratedMetaDataObjects.obj
 0001:000c39a0       ?setPxArticulationJoint_SwingLimitEnabled@@YAXPEAVPxArticulationJoint@physx@@_N@Z 00000001800c49a0 f   PxAutoGeneratedMetaDataObjects.obj
 0001:000c39b0       ?getPxArticulationJoint_SwingLimitEnabled@@YA_NPEBVPxArticulationJoint@physx@@@Z 00000001800c49b0 f   PxAutoGeneratedMetaDataObjects.obj
 0001:000c39c0       ?setPxArticulationJoint_TwistLimit@@YAXPEAVPxArticulationJoint@physx@@MM@Z 00000001800c49c0 f   PxAutoGeneratedMetaDataObjects.obj
 0001:000c39d0       ?getPxArticulationJoint_TwistLimit@@YAXPEBVPxArticulationJoint@physx@@AEAM1@Z 00000001800c49d0 f   PxAutoGeneratedMetaDataObjects.obj
 0001:000c39e0       ?setPxArticulationJoint_TwistLimitEnabled@@YAXPEAVPxArticulationJoint@physx@@_N@Z 00000001800c49e0 f   PxAutoGeneratedMetaDataObjects.obj
 0001:000c39f0       ?getPxArticulationJoint_TwistLimitEnabled@@YA_NPEBVPxArticulationJoint@physx@@@Z 00000001800c49f0 f   PxAutoGeneratedMetaDataObjects.obj
 0001:000c3a00       ?setPxArticulationJoint_TwistLimitContactDistance@@YAXPEAVPxArticulationJoint@physx@@M@Z 00000001800c4a00 f   PxAutoGeneratedMetaDataObjects.obj
 0001:000c3a10       ?getPxArticulationJoint_TwistLimitContactDistance@@YAMPEBVPxArticulationJoint@physx@@@Z 00000001800c4a10 f   PxAutoGeneratedMetaDataObjects.obj
 0001:000c3a20       ?getPxArticulationJoint_ConcreteTypeName@@YAPEBDPEBVPxArticulationJoint@physx@@@Z 00000001800c4a20 f   PxAutoGeneratedMetaDataObjects.obj
 0001:000c3a30       ?getPxArticulation_Scene@@YAPEAVPxScene@physx@@PEBVPxArticulation@2@@Z 00000001800c4a30 f   PxAutoGeneratedMetaDataObjects.obj
 0001:000c3a40       ?setPxArticulation_MaxProjectionIterations@@YAXPEAVPxArticulation@physx@@I@Z 00000001800c4a40 f   PxAutoGeneratedMetaDataObjects.obj
 0001:000c3a50       ?getPxArticulation_MaxProjectionIterations@@YAIPEBVPxArticulation@physx@@@Z 00000001800c4a50 f   PxAutoGeneratedMetaDataObjects.obj
 0001:000c3a60       ?setPxArticulation_SeparationTolerance@@YAXPEAVPxArticulation@physx@@M@Z 00000001800c4a60 f   PxAutoGeneratedMetaDataObjects.obj
 0001:000c3a70       ?getPxArticulation_SeparationTolerance@@YAMPEBVPxArticulation@physx@@@Z 00000001800c4a70 f   PxAutoGeneratedMetaDataObjects.obj
 0001:000c3a80       ?setPxArticulation_InternalDriveIterations@@YAXPEAVPxArticulation@physx@@I@Z 00000001800c4a80 f   PxAutoGeneratedMetaDataObjects.obj
 0001:000c3a90       ?getPxArticulation_InternalDriveIterations@@YAIPEBVPxArticulation@physx@@@Z 00000001800c4a90 f   PxAutoGeneratedMetaDataObjects.obj
 0001:000c3aa0       ?setPxArticulation_ExternalDriveIterations@@YAXPEAVPxArticulation@physx@@I@Z 00000001800c4aa0 f   PxAutoGeneratedMetaDataObjects.obj
 0001:000c3ab0       ?getPxArticulation_ExternalDriveIterations@@YAIPEBVPxArticulation@physx@@@Z 00000001800c4ab0 f   PxAutoGeneratedMetaDataObjects.obj
 0001:000c3ac0       ?setPxArticulation_SolverIterationCounts@@YAXPEAVPxArticulation@physx@@II@Z 00000001800c4ac0 f   PxAutoGeneratedMetaDataObjects.obj
 0001:000c3ad0       ?getPxArticulation_SolverIterationCounts@@YAXPEBVPxArticulation@physx@@AEAI1@Z 00000001800c4ad0 f   PxAutoGeneratedMetaDataObjects.obj
 0001:000c3ae0       ?getPxArticulation_IsSleeping@@YA_NPEBVPxArticulation@physx@@@Z 00000001800c4ae0 f   PxAutoGeneratedMetaDataObjects.obj
 0001:000c3af0       ?setPxArticulation_SleepThreshold@@YAXPEAVPxArticulation@physx@@M@Z 00000001800c4af0 f   PxAutoGeneratedMetaDataObjects.obj
 0001:000c3b00       ?getPxArticulation_SleepThreshold@@YAMPEBVPxArticulation@physx@@@Z 00000001800c4b00 f   PxAutoGeneratedMetaDataObjects.obj
 0001:000c3b10       ?setPxArticulation_StabilizationThreshold@@YAXPEAVPxArticulation@physx@@M@Z 00000001800c4b10 f   PxAutoGeneratedMetaDataObjects.obj
 0001:000c3b20       ?getPxArticulation_StabilizationThreshold@@YAMPEBVPxArticulation@physx@@@Z 00000001800c4b20 f   PxAutoGeneratedMetaDataObjects.obj
 0001:000c3b30       ?setPxArticulation_WakeCounter@@YAXPEAVPxArticulation@physx@@M@Z 00000001800c4b30 f   PxAutoGeneratedMetaDataObjects.obj
 0001:000c3b40       ?getPxArticulation_WakeCounter@@YAMPEBVPxArticulation@physx@@@Z 00000001800c4b40 f   PxAutoGeneratedMetaDataObjects.obj
 0001:000c3b50       ?getPxArticulation_Links@@YAIPEBVPxArticulation@physx@@PEAPEAVPxArticulationLink@2@I@Z 00000001800c4b50 f   PxAutoGeneratedMetaDataObjects.obj
 0001:000c3b60       ?getNbPxArticulation_Links@@YAIPEBVPxArticulation@physx@@@Z 00000001800c4b60 f   PxAutoGeneratedMetaDataObjects.obj
 0001:000c3b70       ?setPxArticulation_Name@@YAXPEAVPxArticulation@physx@@PEBD@Z 00000001800c4b70 f   PxAutoGeneratedMetaDataObjects.obj
 0001:000c3b80       ?getPxArticulation_Name@@YAPEBDPEBVPxArticulation@physx@@@Z 00000001800c4b80 f   PxAutoGeneratedMetaDataObjects.obj
 0001:000c3b90       ?getPxArticulation_Aggregate@@YAPEAVPxAggregate@physx@@PEBVPxArticulation@2@@Z 00000001800c4b90 f   PxAutoGeneratedMetaDataObjects.obj
 0001:000c3ba0       ?getPxArticulation_ConcreteTypeName@@YAPEBDPEBVPxArticulation@physx@@@Z 00000001800c4ba0 f   PxAutoGeneratedMetaDataObjects.obj
 0001:000c3bb0       ?getPxAggregate_MaxNbActors@@YAIPEBVPxAggregate@physx@@@Z 00000001800c4bb0 f   PxAutoGeneratedMetaDataObjects.obj
 0001:000c3bc0       ?getPxAggregate_Actors@@YAIPEBVPxAggregate@physx@@PEAPEAVPxActor@2@I@Z 00000001800c4bc0 f   PxAutoGeneratedMetaDataObjects.obj
 0001:000c3bd0       ?getNbPxAggregate_Actors@@YAIPEBVPxAggregate@physx@@@Z 00000001800c4bd0 f   PxAutoGeneratedMetaDataObjects.obj
 0001:000c3be0       ?getPxAggregate_SelfCollision@@YA_NPEBVPxAggregate@physx@@@Z 00000001800c4be0 f   PxAutoGeneratedMetaDataObjects.obj
 0001:000c3bf0       ?getPxAggregate_ConcreteTypeName@@YAPEBDPEBVPxAggregate@physx@@@Z 00000001800c4bf0 f   PxAutoGeneratedMetaDataObjects.obj
 0001:000c3c00       ?getPxConstraint_Scene@@YAPEAVPxScene@physx@@PEBVPxConstraint@2@@Z 00000001800c4c00 f   PxAutoGeneratedMetaDataObjects.obj
 0001:000c3c10       ?setPxConstraint_Actors@@YAXPEAVPxConstraint@physx@@PEAVPxRigidActor@2@1@Z 00000001800c4c10 f   PxAutoGeneratedMetaDataObjects.obj
 0001:000c3c20       ?getPxConstraint_Actors@@YAXPEBVPxConstraint@physx@@AEAPEAVPxRigidActor@2@1@Z 00000001800c4c20 f   PxAutoGeneratedMetaDataObjects.obj
 0001:000c3c30       ?setPxConstraint_Flags@@YAXPEAVPxConstraint@physx@@V?$PxFlags@W4Enum@PxConstraintFlag@physx@@G@2@@Z 00000001800c4c30 f   PxAutoGeneratedMetaDataObjects.obj
 0001:000c3c60       ?getPxConstraint_Flags@@YA?AV?$PxFlags@W4Enum@PxConstraintFlag@physx@@G@physx@@PEBVPxConstraint@2@@Z 00000001800c4c60 f   PxAutoGeneratedMetaDataObjects.obj
 0001:000c3c90       ?getPxConstraint_IsValid@@YA_NPEBVPxConstraint@physx@@@Z 00000001800c4c90 f   PxAutoGeneratedMetaDataObjects.obj
 0001:000c3ca0       ?setPxConstraint_BreakForce@@YAXPEAVPxConstraint@physx@@MM@Z 00000001800c4ca0 f   PxAutoGeneratedMetaDataObjects.obj
 0001:000c3cb0       ?getPxConstraint_BreakForce@@YAXPEBVPxConstraint@physx@@AEAM1@Z 00000001800c4cb0 f   PxAutoGeneratedMetaDataObjects.obj
 0001:000c3cc0       ?getPxConstraint_ConcreteTypeName@@YAPEBDPEBVPxConstraint@physx@@@Z 00000001800c4cc0 f   PxAutoGeneratedMetaDataObjects.obj
 0001:000c3cd0       ?getPxShape_GeometryType@@YA?AW4Enum@PxGeometryType@physx@@PEBVPxShape@3@@Z 00000001800c4cd0 f   PxAutoGeneratedMetaDataObjects.obj
 0001:000c3ce0       ?setPxShape_Geometry@@YAXPEAVPxShape@physx@@AEBVPxGeometry@2@@Z 00000001800c4ce0 f   PxAutoGeneratedMetaDataObjects.obj
 0001:000c3cf0       ?getPxShape_Geometry@@YA?AVPxGeometryHolder@physx@@PEBVPxShape@2@@Z 00000001800c4cf0 f   PxAutoGeneratedMetaDataObjects.obj
 0001:000c3d20       ?setPxShape_LocalPose@@YAXPEAVPxShape@physx@@AEBVPxTransform@2@@Z 00000001800c4d20 f   PxAutoGeneratedMetaDataObjects.obj
 0001:000c3d30       ?getPxShape_LocalPose@@YA?AVPxTransform@physx@@PEBVPxShape@2@@Z 00000001800c4d30 f   PxAutoGeneratedMetaDataObjects.obj
 0001:000c3d60       ?setPxShape_SimulationFilterData@@YAXPEAVPxShape@physx@@AEBUPxFilterData@2@@Z 00000001800c4d60 f   PxAutoGeneratedMetaDataObjects.obj
 0001:000c3d70       ?getPxShape_SimulationFilterData@@YA?AUPxFilterData@physx@@PEBVPxShape@2@@Z 00000001800c4d70 f   PxAutoGeneratedMetaDataObjects.obj
 0001:000c3da0       ?setPxShape_QueryFilterData@@YAXPEAVPxShape@physx@@AEBUPxFilterData@2@@Z 00000001800c4da0 f   PxAutoGeneratedMetaDataObjects.obj
 0001:000c3db0       ?getPxShape_QueryFilterData@@YA?AUPxFilterData@physx@@PEBVPxShape@2@@Z 00000001800c4db0 f   PxAutoGeneratedMetaDataObjects.obj
 0001:000c3de0       ?getPxShape_Materials@@YAIPEBVPxShape@physx@@PEAPEAVPxMaterial@2@I@Z 00000001800c4de0 f   PxAutoGeneratedMetaDataObjects.obj
 0001:000c3df0       ?getNbPxShape_Materials@@YAIPEBVPxShape@physx@@@Z 00000001800c4df0 f   PxAutoGeneratedMetaDataObjects.obj
 0001:000c3e10       ?setPxShape_ContactOffset@@YAXPEAVPxShape@physx@@M@Z 00000001800c4e10 f   PxAutoGeneratedMetaDataObjects.obj
 0001:000c3e20       ?getPxShape_ContactOffset@@YAMPEBVPxShape@physx@@@Z 00000001800c4e20 f   PxAutoGeneratedMetaDataObjects.obj
 0001:000c3e30       ?setPxShape_RestOffset@@YAXPEAVPxShape@physx@@M@Z 00000001800c4e30 f   PxAutoGeneratedMetaDataObjects.obj
 0001:000c3e40       ?getPxShape_RestOffset@@YAMPEBVPxShape@physx@@@Z 00000001800c4e40 f   PxAutoGeneratedMetaDataObjects.obj
 0001:000c3e50       ?setPxShape_Flags@@YAXPEAVPxShape@physx@@V?$PxFlags@W4Enum@PxShapeFlag@physx@@E@2@@Z 00000001800c4e50 f   PxAutoGeneratedMetaDataObjects.obj
 0001:000c3e80       ?getPxShape_Flags@@YA?AV?$PxFlags@W4Enum@PxShapeFlag@physx@@E@physx@@PEBVPxShape@2@@Z 00000001800c4e80 f   PxAutoGeneratedMetaDataObjects.obj
 0001:000c3eb0       ?getPxShape_IsExclusive@@YA_NPEBVPxShape@physx@@@Z 00000001800c4eb0 f   PxAutoGeneratedMetaDataObjects.obj
 0001:000c3ec0       ?setPxShape_Name@@YAXPEAVPxShape@physx@@PEBD@Z 00000001800c4ec0 f   PxAutoGeneratedMetaDataObjects.obj
 0001:000c3ed0       ?getPxShape_Name@@YAPEBDPEBVPxShape@physx@@@Z 00000001800c4ed0 f   PxAutoGeneratedMetaDataObjects.obj
 0001:000c3ee0       ?getPxShape_ConcreteTypeName@@YAPEBDPEBVPxShape@physx@@@Z 00000001800c4ee0 f   PxAutoGeneratedMetaDataObjects.obj
 0001:000c3ef0       ?getPxClothFabric_NbParticles@@YAIPEBVPxClothFabric@physx@@@Z 00000001800c4ef0 f   PxAutoGeneratedMetaDataObjects.obj
 0001:000c3f00       ?getPxClothFabric_Phases@@YAIPEBVPxClothFabric@physx@@PEAUPxClothFabricPhase@2@I@Z 00000001800c4f00 f   PxAutoGeneratedMetaDataObjects.obj
 0001:000c3f10       ?getNbPxClothFabric_Phases@@YAIPEBVPxClothFabric@physx@@@Z 00000001800c4f10 f   PxAutoGeneratedMetaDataObjects.obj
 0001:000c3f20       ?getPxClothFabric_Sets@@YAIPEBVPxClothFabric@physx@@PEAII@Z 00000001800c4f20 f   PxAutoGeneratedMetaDataObjects.obj
 0001:000c3f30       ?getNbPxClothFabric_Sets@@YAIPEBVPxClothFabric@physx@@@Z 00000001800c4f30 f   PxAutoGeneratedMetaDataObjects.obj
 0001:000c3f40       ?getPxClothFabric_ParticleIndices@@YAIPEBVPxClothFabric@physx@@PEAII@Z 00000001800c4f40 f   PxAutoGeneratedMetaDataObjects.obj
 0001:000c3f50       ?getNbPxClothFabric_ParticleIndices@@YAIPEBVPxClothFabric@physx@@@Z 00000001800c4f50 f   PxAutoGeneratedMetaDataObjects.obj
 0001:000c3f60       ?getPxClothFabric_Restvalues@@YAIPEBVPxClothFabric@physx@@PEAMI@Z 00000001800c4f60 f   PxAutoGeneratedMetaDataObjects.obj
 0001:000c3f70       ?getNbPxClothFabric_Restvalues@@YAIPEBVPxClothFabric@physx@@@Z 00000001800c4f70 f   PxAutoGeneratedMetaDataObjects.obj
 0001:000c3f80       ?getPxClothFabric_ReferenceCount@@YAIPEBVPxClothFabric@physx@@@Z 00000001800c4f80 f   PxAutoGeneratedMetaDataObjects.obj
 0001:000c3f90       ?getPxClothFabric_ConcreteTypeName@@YAPEBDPEBVPxClothFabric@physx@@@Z 00000001800c4f90 f   PxAutoGeneratedMetaDataObjects.obj
 0001:000c3fa0       ?getPxCloth_NbParticles@@YAIPEBVPxCloth@physx@@@Z 00000001800c4fa0 f   PxAutoGeneratedMetaDataObjects.obj
 0001:000c3fb0       ?setPxCloth_ClothFlags@@YAXPEAVPxCloth@physx@@V?$PxFlags@W4Enum@PxClothFlag@physx@@G@2@@Z 00000001800c4fb0 f   PxAutoGeneratedMetaDataObjects.obj
 0001:000c3fe0       ?getPxCloth_ClothFlags@@YA?AV?$PxFlags@W4Enum@PxClothFlag@physx@@G@physx@@PEBVPxCloth@2@@Z 00000001800c4fe0 f   PxAutoGeneratedMetaDataObjects.obj
 0001:000c4010       ?setPxCloth_TargetPose@@YAXPEAVPxCloth@physx@@AEBVPxTransform@2@@Z 00000001800c5010 f   PxAutoGeneratedMetaDataObjects.obj
 0001:000c4020       ?setPxCloth_GlobalPose@@YAXPEAVPxCloth@physx@@AEBVPxTransform@2@@Z 00000001800c5020 f   PxAutoGeneratedMetaDataObjects.obj
 0001:000c4030       ?getPxCloth_GlobalPose@@YA?AVPxTransform@physx@@PEBVPxCloth@2@@Z 00000001800c5030 f   PxAutoGeneratedMetaDataObjects.obj
 0001:000c4060       ?setPxCloth_SolverFrequency@@YAXPEAVPxCloth@physx@@M@Z 00000001800c5060 f   PxAutoGeneratedMetaDataObjects.obj
 0001:000c4070       ?getPxCloth_SolverFrequency@@YAMPEBVPxCloth@physx@@@Z 00000001800c5070 f   PxAutoGeneratedMetaDataObjects.obj
 0001:000c4080       ?getPxCloth_PreviousTimeStep@@YAMPEBVPxCloth@physx@@@Z 00000001800c5080 f   PxAutoGeneratedMetaDataObjects.obj
 0001:000c4090       ?setPxCloth_StiffnessFrequency@@YAXPEAVPxCloth@physx@@M@Z 00000001800c5090 f   PxAutoGeneratedMetaDataObjects.obj
 0001:000c40a0       ?getPxCloth_StiffnessFrequency@@YAMPEBVPxCloth@physx@@@Z 00000001800c50a0 f   PxAutoGeneratedMetaDataObjects.obj
 0001:000c40b0       ?setPxCloth_LinearInertiaScale@@YAXPEAVPxCloth@physx@@VPxVec3@2@@Z 00000001800c50b0 f   PxAutoGeneratedMetaDataObjects.obj
 0001:000c40f0       ?getPxCloth_LinearInertiaScale@@YA?AVPxVec3@physx@@PEBVPxCloth@2@@Z 00000001800c50f0 f   PxAutoGeneratedMetaDataObjects.obj
 0001:000c4120       ?setPxCloth_AngularInertiaScale@@YAXPEAVPxCloth@physx@@VPxVec3@2@@Z 00000001800c5120 f   PxAutoGeneratedMetaDataObjects.obj
 0001:000c4160       ?getPxCloth_AngularInertiaScale@@YA?AVPxVec3@physx@@PEBVPxCloth@2@@Z 00000001800c5160 f   PxAutoGeneratedMetaDataObjects.obj
 0001:000c4190       ?setPxCloth_CentrifugalInertiaScale@@YAXPEAVPxCloth@physx@@VPxVec3@2@@Z 00000001800c5190 f   PxAutoGeneratedMetaDataObjects.obj
 0001:000c41d0       ?getPxCloth_CentrifugalInertiaScale@@YA?AVPxVec3@physx@@PEBVPxCloth@2@@Z 00000001800c51d0 f   PxAutoGeneratedMetaDataObjects.obj
 0001:000c4200       ?setPxCloth_InertiaScale@@YAXPEAVPxCloth@physx@@M@Z 00000001800c5200 f   PxAutoGeneratedMetaDataObjects.obj
 0001:000c4210       ?setPxCloth_DampingCoefficient@@YAXPEAVPxCloth@physx@@VPxVec3@2@@Z 00000001800c5210 f   PxAutoGeneratedMetaDataObjects.obj
 0001:000c4250       ?getPxCloth_DampingCoefficient@@YA?AVPxVec3@physx@@PEBVPxCloth@2@@Z 00000001800c5250 f   PxAutoGeneratedMetaDataObjects.obj
 0001:000c4280       ?setPxCloth_LinearDragCoefficient@@YAXPEAVPxCloth@physx@@VPxVec3@2@@Z 00000001800c5280 f   PxAutoGeneratedMetaDataObjects.obj
 0001:000c42c0       ?getPxCloth_LinearDragCoefficient@@YA?AVPxVec3@physx@@PEBVPxCloth@2@@Z 00000001800c52c0 f   PxAutoGeneratedMetaDataObjects.obj
 0001:000c42f0       ?setPxCloth_AngularDragCoefficient@@YAXPEAVPxCloth@physx@@VPxVec3@2@@Z 00000001800c52f0 f   PxAutoGeneratedMetaDataObjects.obj
 0001:000c4330       ?getPxCloth_AngularDragCoefficient@@YA?AVPxVec3@physx@@PEBVPxCloth@2@@Z 00000001800c5330 f   PxAutoGeneratedMetaDataObjects.obj
 0001:000c4360       ?setPxCloth_DragCoefficient@@YAXPEAVPxCloth@physx@@M@Z 00000001800c5360 f   PxAutoGeneratedMetaDataObjects.obj
 0001:000c4370       ?setPxCloth_ExternalAcceleration@@YAXPEAVPxCloth@physx@@VPxVec3@2@@Z 00000001800c5370 f   PxAutoGeneratedMetaDataObjects.obj
 0001:000c43b0       ?getPxCloth_ExternalAcceleration@@YA?AVPxVec3@physx@@PEBVPxCloth@2@@Z 00000001800c53b0 f   PxAutoGeneratedMetaDataObjects.obj
 0001:000c43e0       ?setPxCloth_MotionConstraintConfig@@YAXPEAVPxCloth@physx@@AEBUPxClothMotionConstraintConfig@2@@Z 00000001800c53e0 f   PxAutoGeneratedMetaDataObjects.obj
 0001:000c43f0       ?getPxCloth_MotionConstraintConfig@@YA?AUPxClothMotionConstraintConfig@physx@@PEBVPxCloth@2@@Z 00000001800c53f0 f   PxAutoGeneratedMetaDataObjects.obj
 0001:000c4420       ?setPxCloth_StretchConfig@@YAXPEAVPxCloth@physx@@W4Enum@PxClothFabricPhaseType@2@UPxClothStretchConfig@2@@Z 00000001800c5420 f   PxAutoGeneratedMetaDataObjects.obj
 0001:000c4430       ?getPxCloth_StretchConfig@@YA?AUPxClothStretchConfig@physx@@PEBVPxCloth@2@W4Enum@PxClothFabricPhaseType@2@@Z 00000001800c5430 f   PxAutoGeneratedMetaDataObjects.obj
 0001:000c4460       ?setPxCloth_TetherConfig@@YAXPEAVPxCloth@physx@@AEBUPxClothTetherConfig@2@@Z 00000001800c5460 f   PxAutoGeneratedMetaDataObjects.obj
 0001:000c4470       ?getPxCloth_TetherConfig@@YA?AUPxClothTetherConfig@physx@@PEBVPxCloth@2@@Z 00000001800c5470 f   PxAutoGeneratedMetaDataObjects.obj
 0001:000c44a0       ?setPxCloth_FrictionCoefficient@@YAXPEAVPxCloth@physx@@M@Z 00000001800c54a0 f   PxAutoGeneratedMetaDataObjects.obj
 0001:000c44b0       ?getPxCloth_FrictionCoefficient@@YAMPEBVPxCloth@physx@@@Z 00000001800c54b0 f   PxAutoGeneratedMetaDataObjects.obj
 0001:000c44c0       ?setPxCloth_CollisionMassScale@@YAXPEAVPxCloth@physx@@M@Z 00000001800c54c0 f   PxAutoGeneratedMetaDataObjects.obj
 0001:000c44d0       ?getPxCloth_CollisionMassScale@@YAMPEBVPxCloth@physx@@@Z 00000001800c54d0 f   PxAutoGeneratedMetaDataObjects.obj
 0001:000c44e0       ?setPxCloth_SelfCollisionDistance@@YAXPEAVPxCloth@physx@@M@Z 00000001800c54e0 f   PxAutoGeneratedMetaDataObjects.obj
 0001:000c44f0       ?getPxCloth_SelfCollisionDistance@@YAMPEBVPxCloth@physx@@@Z 00000001800c54f0 f   PxAutoGeneratedMetaDataObjects.obj
 0001:000c4500       ?setPxCloth_SelfCollisionStiffness@@YAXPEAVPxCloth@physx@@M@Z 00000001800c5500 f   PxAutoGeneratedMetaDataObjects.obj
 0001:000c4510       ?getPxCloth_SelfCollisionStiffness@@YAMPEBVPxCloth@physx@@@Z 00000001800c5510 f   PxAutoGeneratedMetaDataObjects.obj
 0001:000c4520       ?setPxCloth_SimulationFilterData@@YAXPEAVPxCloth@physx@@AEBUPxFilterData@2@@Z 00000001800c5520 f   PxAutoGeneratedMetaDataObjects.obj
 0001:000c4530       ?getPxCloth_SimulationFilterData@@YA?AUPxFilterData@physx@@PEBVPxCloth@2@@Z 00000001800c5530 f   PxAutoGeneratedMetaDataObjects.obj
 0001:000c4560       ?setPxCloth_ContactOffset@@YAXPEAVPxCloth@physx@@M@Z 00000001800c5560 f   PxAutoGeneratedMetaDataObjects.obj
 0001:000c4570       ?getPxCloth_ContactOffset@@YAMPEBVPxCloth@physx@@@Z 00000001800c5570 f   PxAutoGeneratedMetaDataObjects.obj
 0001:000c4580       ?setPxCloth_RestOffset@@YAXPEAVPxCloth@physx@@M@Z 00000001800c5580 f   PxAutoGeneratedMetaDataObjects.obj
 0001:000c4590       ?getPxCloth_RestOffset@@YAMPEBVPxCloth@physx@@@Z 00000001800c5590 f   PxAutoGeneratedMetaDataObjects.obj
 0001:000c45a0       ?setPxCloth_SleepLinearVelocity@@YAXPEAVPxCloth@physx@@M@Z 00000001800c55a0 f   PxAutoGeneratedMetaDataObjects.obj
 0001:000c45b0       ?getPxCloth_SleepLinearVelocity@@YAMPEBVPxCloth@physx@@@Z 00000001800c55b0 f   PxAutoGeneratedMetaDataObjects.obj
 0001:000c45c0       ?setPxCloth_WakeCounter@@YAXPEAVPxCloth@physx@@M@Z 00000001800c55c0 f   PxAutoGeneratedMetaDataObjects.obj
 0001:000c45d0       ?getPxCloth_WakeCounter@@YAMPEBVPxCloth@physx@@@Z 00000001800c55d0 f   PxAutoGeneratedMetaDataObjects.obj
 0001:000c45e0       ?getPxCloth_IsSleeping@@YA_NPEBVPxCloth@physx@@@Z 00000001800c55e0 f   PxAutoGeneratedMetaDataObjects.obj
 0001:000c45f0       ?getPxCloth_ConcreteTypeName@@YAPEBDPEBVPxCloth@physx@@@Z 00000001800c55f0 f   PxAutoGeneratedMetaDataObjects.obj
 0001:000c4600       ?setPxParticleBase_Damping@@YAXPEAVPxParticleBase@physx@@M@Z 00000001800c5600 f   PxAutoGeneratedMetaDataObjects.obj
 0001:000c4610       ?getPxParticleBase_Damping@@YAMPEBVPxParticleBase@physx@@@Z 00000001800c5610 f   PxAutoGeneratedMetaDataObjects.obj
 0001:000c4620       ?setPxParticleBase_ExternalAcceleration@@YAXPEAVPxParticleBase@physx@@AEBVPxVec3@2@@Z 00000001800c5620 f   PxAutoGeneratedMetaDataObjects.obj
 0001:000c4630       ?getPxParticleBase_ExternalAcceleration@@YA?AVPxVec3@physx@@PEBVPxParticleBase@2@@Z 00000001800c5630 f   PxAutoGeneratedMetaDataObjects.obj
 0001:000c4660       ?setPxParticleBase_ParticleMass@@YAXPEAVPxParticleBase@physx@@M@Z 00000001800c5660 f   PxAutoGeneratedMetaDataObjects.obj
 0001:000c4670       ?getPxParticleBase_ParticleMass@@YAMPEBVPxParticleBase@physx@@@Z 00000001800c5670 f   PxAutoGeneratedMetaDataObjects.obj
 0001:000c4680       ?setPxParticleBase_Restitution@@YAXPEAVPxParticleBase@physx@@M@Z 00000001800c5680 f   PxAutoGeneratedMetaDataObjects.obj
 0001:000c4690       ?getPxParticleBase_Restitution@@YAMPEBVPxParticleBase@physx@@@Z 00000001800c5690 f   PxAutoGeneratedMetaDataObjects.obj
 0001:000c46a0       ?setPxParticleBase_DynamicFriction@@YAXPEAVPxParticleBase@physx@@M@Z 00000001800c56a0 f   PxAutoGeneratedMetaDataObjects.obj
 0001:000c46b0       ?getPxParticleBase_DynamicFriction@@YAMPEBVPxParticleBase@physx@@@Z 00000001800c56b0 f   PxAutoGeneratedMetaDataObjects.obj
 0001:000c46c0       ?setPxParticleBase_StaticFriction@@YAXPEAVPxParticleBase@physx@@M@Z 00000001800c56c0 f   PxAutoGeneratedMetaDataObjects.obj
 0001:000c46d0       ?getPxParticleBase_StaticFriction@@YAMPEBVPxParticleBase@physx@@@Z 00000001800c56d0 f   PxAutoGeneratedMetaDataObjects.obj
 0001:000c46e0       ?setPxParticleBase_SimulationFilterData@@YAXPEAVPxParticleBase@physx@@AEBUPxFilterData@2@@Z 00000001800c56e0 f   PxAutoGeneratedMetaDataObjects.obj
 0001:000c46f0       ?getPxParticleBase_SimulationFilterData@@YA?AUPxFilterData@physx@@PEBVPxParticleBase@2@@Z 00000001800c56f0 f   PxAutoGeneratedMetaDataObjects.obj
 0001:000c4720       ?getPxParticleBase_ParticleBaseFlags@@YA?AV?$PxFlags@W4Enum@PxParticleBaseFlag@physx@@G@physx@@PEBVPxParticleBase@2@@Z 00000001800c5720 f   PxAutoGeneratedMetaDataObjects.obj
 0001:000c4750       ?getPxParticleBase_MaxParticles@@YAIPEBVPxParticleBase@physx@@@Z 00000001800c5750 f   PxAutoGeneratedMetaDataObjects.obj
 0001:000c4760       ?setPxParticleBase_MaxMotionDistance@@YAXPEAVPxParticleBase@physx@@M@Z 00000001800c5760 f   PxAutoGeneratedMetaDataObjects.obj
 0001:000c4770       ?getPxParticleBase_MaxMotionDistance@@YAMPEBVPxParticleBase@physx@@@Z 00000001800c5770 f   PxAutoGeneratedMetaDataObjects.obj
 0001:000c4780       ?setPxParticleBase_RestOffset@@YAXPEAVPxParticleBase@physx@@M@Z 00000001800c5780 f   PxAutoGeneratedMetaDataObjects.obj
 0001:000c4790       ?getPxParticleBase_RestOffset@@YAMPEBVPxParticleBase@physx@@@Z 00000001800c5790 f   PxAutoGeneratedMetaDataObjects.obj
 0001:000c47a0       ?setPxParticleBase_ContactOffset@@YAXPEAVPxParticleBase@physx@@M@Z 00000001800c57a0 f   PxAutoGeneratedMetaDataObjects.obj
 0001:000c47b0       ?getPxParticleBase_ContactOffset@@YAMPEBVPxParticleBase@physx@@@Z 00000001800c57b0 f   PxAutoGeneratedMetaDataObjects.obj
 0001:000c47c0       ?setPxParticleBase_GridSize@@YAXPEAVPxParticleBase@physx@@M@Z 00000001800c57c0 f   PxAutoGeneratedMetaDataObjects.obj
 0001:000c47d0       ?getPxParticleBase_GridSize@@YAMPEBVPxParticleBase@physx@@@Z 00000001800c57d0 f   PxAutoGeneratedMetaDataObjects.obj
 0001:000c47e0       ?getPxParticleBase_ParticleReadDataFlags@@YA?AV?$PxFlags@W4Enum@PxParticleReadDataFlag@physx@@G@physx@@PEBVPxParticleBase@2@@Z 00000001800c57e0 f   PxAutoGeneratedMetaDataObjects.obj
 0001:000c4810       ?setPxParticleFluid_Stiffness@@YAXPEAVPxParticleFluid@physx@@M@Z 00000001800c5810 f   PxAutoGeneratedMetaDataObjects.obj
 0001:000c4820       ?getPxParticleFluid_Stiffness@@YAMPEBVPxParticleFluid@physx@@@Z 00000001800c5820 f   PxAutoGeneratedMetaDataObjects.obj
 0001:000c4830       ?setPxParticleFluid_Viscosity@@YAXPEAVPxParticleFluid@physx@@M@Z 00000001800c5830 f   PxAutoGeneratedMetaDataObjects.obj
 0001:000c4840       ?getPxParticleFluid_Viscosity@@YAMPEBVPxParticleFluid@physx@@@Z 00000001800c5840 f   PxAutoGeneratedMetaDataObjects.obj
 0001:000c4850       ?setPxParticleFluid_RestParticleDistance@@YAXPEAVPxParticleFluid@physx@@M@Z 00000001800c5850 f   PxAutoGeneratedMetaDataObjects.obj
 0001:000c4860       ?getPxParticleFluid_RestParticleDistance@@YAMPEBVPxParticleFluid@physx@@@Z 00000001800c5860 f   PxAutoGeneratedMetaDataObjects.obj
 0001:000c4870       ?getPxParticleFluid_ConcreteTypeName@@YAPEBDPEBVPxParticleFluid@physx@@@Z 00000001800c5870 f   PxAutoGeneratedMetaDataObjects.obj
 0001:000c4880       ?getPxParticleSystem_ConcreteTypeName@@YAPEBDPEBVPxParticleSystem@physx@@@Z 00000001800c5880 f   PxAutoGeneratedMetaDataObjects.obj
 0001:000c4890       ?getPxPhysics_TolerancesScale@@YAAEBVPxTolerancesScale@physx@@PEBVPxPhysics@2@@Z 00000001800c5890 f   PxAutoGeneratedMetaDataObjects.obj
 0001:000c48a0       ?getPxPhysics_TriangleMeshes@@YAIPEBVPxPhysics@physx@@PEAPEAVPxTriangleMesh@2@I@Z 00000001800c58a0 f   PxAutoGeneratedMetaDataObjects.obj
 0001:000c48b0       ?getNbPxPhysics_TriangleMeshes@@YAIPEBVPxPhysics@physx@@@Z 00000001800c58b0 f   PxAutoGeneratedMetaDataObjects.obj
 0001:000c48c0       ?createPxPhysics_TriangleMeshes@@YAPEAVPxTriangleMesh@physx@@PEAVPxPhysics@2@AEAVPxInputStream@2@@Z 00000001800c58c0 f   PxAutoGeneratedMetaDataObjects.obj
 0001:000c48d0       ?getPxPhysics_HeightFields@@YAIPEBVPxPhysics@physx@@PEAPEAVPxHeightField@2@I@Z 00000001800c58d0 f   PxAutoGeneratedMetaDataObjects.obj
 0001:000c48e0       ?getNbPxPhysics_HeightFields@@YAIPEBVPxPhysics@physx@@@Z 00000001800c58e0 f   PxAutoGeneratedMetaDataObjects.obj
 0001:000c48f0       ?createPxPhysics_HeightFields@@YAPEAVPxHeightField@physx@@PEAVPxPhysics@2@AEAVPxInputStream@2@@Z 00000001800c58f0 f   PxAutoGeneratedMetaDataObjects.obj
 0001:000c4900       ?getPxPhysics_ConvexMeshes@@YAIPEBVPxPhysics@physx@@PEAPEAVPxConvexMesh@2@I@Z 00000001800c5900 f   PxAutoGeneratedMetaDataObjects.obj
 0001:000c4920       ?getNbPxPhysics_ConvexMeshes@@YAIPEBVPxPhysics@physx@@@Z 00000001800c5920 f   PxAutoGeneratedMetaDataObjects.obj
 0001:000c4930       ?createPxPhysics_ConvexMeshes@@YAPEAVPxConvexMesh@physx@@PEAVPxPhysics@2@AEAVPxInputStream@2@@Z 00000001800c5930 f   PxAutoGeneratedMetaDataObjects.obj
 0001:000c4940       ?getPxPhysics_ClothFabrics@@YAIPEBVPxPhysics@physx@@PEAPEAVPxClothFabric@2@I@Z 00000001800c5940 f   PxAutoGeneratedMetaDataObjects.obj
 0001:000c4950       ?getNbPxPhysics_ClothFabrics@@YAIPEBVPxPhysics@physx@@@Z 00000001800c5950 f   PxAutoGeneratedMetaDataObjects.obj
 0001:000c4960       ?getPxPhysics_Scenes@@YAIPEBVPxPhysics@physx@@PEAPEAVPxScene@2@I@Z 00000001800c5960 f   PxAutoGeneratedMetaDataObjects.obj
 0001:000c4980       ?getNbPxPhysics_Scenes@@YAIPEBVPxPhysics@physx@@@Z 00000001800c5980 f   PxAutoGeneratedMetaDataObjects.obj
 0001:000c4990       ?createPxPhysics_Scenes@@YAPEAVPxScene@physx@@PEAVPxPhysics@2@AEBVPxSceneDesc@2@@Z 00000001800c5990 f   PxAutoGeneratedMetaDataObjects.obj
 0001:000c49a0       ?getPxPhysics_Shapes@@YAIPEBVPxPhysics@physx@@PEAPEAVPxShape@2@I@Z 00000001800c59a0 f   PxAutoGeneratedMetaDataObjects.obj
 0001:000c49c0       ?getNbPxPhysics_Shapes@@YAIPEBVPxPhysics@physx@@@Z 00000001800c59c0 f   PxAutoGeneratedMetaDataObjects.obj
 0001:000c49d0       ?getPxPhysics_Materials@@YAIPEBVPxPhysics@physx@@PEAPEAVPxMaterial@2@I@Z 00000001800c59d0 f   PxAutoGeneratedMetaDataObjects.obj
 0001:000c49f0       ?getNbPxPhysics_Materials@@YAIPEBVPxPhysics@physx@@@Z 00000001800c59f0 f   PxAutoGeneratedMetaDataObjects.obj
 0001:000c4a00       ?getPxTolerancesScale_IsValid@@YA_NPEBVPxTolerancesScale@physx@@@Z 00000001800c5a00 f   PxAutoGeneratedMetaDataObjects.obj
 0001:000c4a20       ?getPxScene_Flags@@YA?AV?$PxFlags@W4Enum@PxSceneFlag@physx@@G@physx@@PEBVPxScene@2@@Z 00000001800c5a20 f   PxAutoGeneratedMetaDataObjects.obj
 0001:000c4a50       ?setPxScene_Limits@@YAXPEAVPxScene@physx@@AEBVPxSceneLimits@2@@Z 00000001800c5a50 f   PxAutoGeneratedMetaDataObjects.obj
 0001:000c4a60       ?getPxScene_Limits@@YA?AVPxSceneLimits@physx@@PEBVPxScene@2@@Z 00000001800c5a60 f   PxAutoGeneratedMetaDataObjects.obj
 0001:000c4a90       ?getPxScene_Timestamp@@YAIPEBVPxScene@physx@@@Z 00000001800c5a90 f   PxAutoGeneratedMetaDataObjects.obj
 0001:000c4aa0       ?getPxScene_Actors@@YAIPEBVPxScene@physx@@V?$PxFlags@W4Enum@PxActorTypeFlag@physx@@G@2@PEAPEAVPxActor@2@I@Z 00000001800c5aa0 f   PxAutoGeneratedMetaDataObjects.obj
 0001:000c4ad0       ?getNbPxScene_Actors@@YAIPEBVPxScene@physx@@V?$PxFlags@W4Enum@PxActorTypeFlag@physx@@G@2@@Z 00000001800c5ad0 f   PxAutoGeneratedMetaDataObjects.obj
 0001:000c4b00       ?getPxScene_Articulations@@YAIPEBVPxScene@physx@@PEAPEAVPxArticulation@2@I@Z 00000001800c5b00 f   PxAutoGeneratedMetaDataObjects.obj
 0001:000c4b20       ?getNbPxScene_Articulations@@YAIPEBVPxScene@physx@@@Z 00000001800c5b20 f   PxAutoGeneratedMetaDataObjects.obj
 0001:000c4b30       ?getPxScene_Constraints@@YAIPEBVPxScene@physx@@PEAPEAVPxConstraint@2@I@Z 00000001800c5b30 f   PxAutoGeneratedMetaDataObjects.obj
 0001:000c4b50       ?getNbPxScene_Constraints@@YAIPEBVPxScene@physx@@@Z 00000001800c5b50 f   PxAutoGeneratedMetaDataObjects.obj
 0001:000c4b60       ?getPxScene_Aggregates@@YAIPEBVPxScene@physx@@PEAPEAVPxAggregate@2@I@Z 00000001800c5b60 f   PxAutoGeneratedMetaDataObjects.obj
 0001:000c4b80       ?getNbPxScene_Aggregates@@YAIPEBVPxScene@physx@@@Z 00000001800c5b80 f   PxAutoGeneratedMetaDataObjects.obj
 0001:000c4b90       ?getPxScene_CpuDispatcher@@YAPEAVPxCpuDispatcher@physx@@PEBVPxScene@2@@Z 00000001800c5b90 f   PxAutoGeneratedMetaDataObjects.obj
 0001:000c4ba0       ?getPxScene_GpuDispatcher@@YAPEAVPxGpuDispatcher@physx@@PEBVPxScene@2@@Z 00000001800c5ba0 f   PxAutoGeneratedMetaDataObjects.obj
 0001:000c4bb0       ?getPxScene_SpuDispatcher@@YAPEAVPxSpuDispatcher@physx@@PEBVPxScene@2@@Z 00000001800c5bb0 f   PxAutoGeneratedMetaDataObjects.obj
 0001:000c4bc0       ?setPxScene_ClothInterCollisionDistance@@YAXPEAVPxScene@physx@@M@Z 00000001800c5bc0 f   PxAutoGeneratedMetaDataObjects.obj
 0001:000c4bd0       ?getPxScene_ClothInterCollisionDistance@@YAMPEBVPxScene@physx@@@Z 00000001800c5bd0 f   PxAutoGeneratedMetaDataObjects.obj
 0001:000c4be0       ?setPxScene_ClothInterCollisionStiffness@@YAXPEAVPxScene@physx@@M@Z 00000001800c5be0 f   PxAutoGeneratedMetaDataObjects.obj
 0001:000c4bf0       ?getPxScene_ClothInterCollisionStiffness@@YAMPEBVPxScene@physx@@@Z 00000001800c5bf0 f   PxAutoGeneratedMetaDataObjects.obj
 0001:000c4c00       ?setPxScene_ClothInterCollisionNbIterations@@YAXPEAVPxScene@physx@@I@Z 00000001800c5c00 f   PxAutoGeneratedMetaDataObjects.obj
 0001:000c4c10       ?getPxScene_ClothInterCollisionNbIterations@@YAIPEBVPxScene@physx@@@Z 00000001800c5c10 f   PxAutoGeneratedMetaDataObjects.obj
 0001:000c4c20       ?setPxScene_ContactModifyCallback@@YAXPEAVPxScene@physx@@PEAVPxContactModifyCallback@2@@Z 00000001800c5c20 f   PxAutoGeneratedMetaDataObjects.obj
 0001:000c4c30       ?getPxScene_ContactModifyCallback@@YAPEAVPxContactModifyCallback@physx@@PEBVPxScene@2@@Z 00000001800c5c30 f   PxAutoGeneratedMetaDataObjects.obj
 0001:000c4c40       ?setPxScene_CCDContactModifyCallback@@YAXPEAVPxScene@physx@@PEAVPxCCDContactModifyCallback@2@@Z 00000001800c5c40 f   PxAutoGeneratedMetaDataObjects.obj
 0001:000c4c50       ?getPxScene_CCDContactModifyCallback@@YAPEAVPxCCDContactModifyCallback@physx@@PEBVPxScene@2@@Z 00000001800c5c50 f   PxAutoGeneratedMetaDataObjects.obj
 0001:000c4c60       ?getPxScene_FilterShaderData@@YAPEBXPEBVPxScene@physx@@@Z 00000001800c5c60 f   PxAutoGeneratedMetaDataObjects.obj
 0001:000c4c70       ?getPxScene_FilterShaderDataSize@@YAIPEBVPxScene@physx@@@Z 00000001800c5c70 f   PxAutoGeneratedMetaDataObjects.obj
 0001:000c4c80       ?getPxScene_FilterShader@@YAP6A?AV?$PxFlags@W4Enum@PxFilterFlag@physx@@G@physx@@IUPxFilterData@2@I0AEAV?$PxFlags@W4Enum@PxPairFlag@physx@@G@2@PEBXI@ZPEBVPxScene@2@@Z 00000001800c5c80 f   PxAutoGeneratedMetaDataObjects.obj
 0001:000c4c90       ?getPxScene_FilterCallback@@YAPEAVPxSimulationFilterCallback@physx@@PEBVPxScene@2@@Z 00000001800c5c90 f   PxAutoGeneratedMetaDataObjects.obj
 0001:000c4ca0       ?setPxScene_Gravity@@YAXPEAVPxScene@physx@@AEBVPxVec3@2@@Z 00000001800c5ca0 f   PxAutoGeneratedMetaDataObjects.obj
 0001:000c4cb0       ?getPxScene_Gravity@@YA?AVPxVec3@physx@@PEBVPxScene@2@@Z 00000001800c5cb0 f   PxAutoGeneratedMetaDataObjects.obj
 0001:000c4ce0       ?setPxScene_BounceThresholdVelocity@@YAXPEAVPxScene@physx@@M@Z 00000001800c5ce0 f   PxAutoGeneratedMetaDataObjects.obj
 0001:000c4cf0       ?getPxScene_BounceThresholdVelocity@@YAMPEBVPxScene@physx@@@Z 00000001800c5cf0 f   PxAutoGeneratedMetaDataObjects.obj
 0001:000c4d00       ?setPxScene_CCDMaxPasses@@YAXPEAVPxScene@physx@@I@Z 00000001800c5d00 f   PxAutoGeneratedMetaDataObjects.obj
 0001:000c4d10       ?getPxScene_CCDMaxPasses@@YAIPEBVPxScene@physx@@@Z 00000001800c5d10 f   PxAutoGeneratedMetaDataObjects.obj
 0001:000c4d20       ?getPxScene_ContactCorrelationDistance@@YAMPEBVPxScene@physx@@@Z 00000001800c5d20 f   PxAutoGeneratedMetaDataObjects.obj
 0001:000c4d30       ?getPxScene_FrictionOffsetThreshold@@YAMPEBVPxScene@physx@@@Z 00000001800c5d30 f   PxAutoGeneratedMetaDataObjects.obj
 0001:000c4d40       ?getPxScene_MeshContactMargin@@YAMPEBVPxScene@physx@@@Z 00000001800c5d40 f   PxAutoGeneratedMetaDataObjects.obj
 0001:000c4d50       ?setPxScene_FrictionType@@YAXPEAVPxScene@physx@@W4Enum@PxFrictionType@2@@Z 00000001800c5d50 f   PxAutoGeneratedMetaDataObjects.obj
 0001:000c4d60       ?getPxScene_FrictionType@@YA?AW4Enum@PxFrictionType@physx@@PEBVPxScene@3@@Z 00000001800c5d60 f   PxAutoGeneratedMetaDataObjects.obj
 0001:000c4d70       ?setPxScene_VisualizationCullingBox@@YAXPEAVPxScene@physx@@AEBVPxBounds3@2@@Z 00000001800c5d70 f   PxAutoGeneratedMetaDataObjects.obj
 0001:000c4d80       ?getPxScene_VisualizationCullingBox@@YAAEBVPxBounds3@physx@@PEBVPxScene@2@@Z 00000001800c5d80 f   PxAutoGeneratedMetaDataObjects.obj
 0001:000c4d90       ?getPxScene_StaticStructure@@YA?AW4Enum@PxPruningStructure@physx@@PEBVPxScene@3@@Z 00000001800c5d90 f   PxAutoGeneratedMetaDataObjects.obj
 0001:000c4da0       ?getPxScene_DynamicStructure@@YA?AW4Enum@PxPruningStructure@physx@@PEBVPxScene@3@@Z 00000001800c5da0 f   PxAutoGeneratedMetaDataObjects.obj
 0001:000c4db0       ?setPxScene_DynamicTreeRebuildRateHint@@YAXPEAVPxScene@physx@@I@Z 00000001800c5db0 f   PxAutoGeneratedMetaDataObjects.obj
 0001:000c4dc0       ?getPxScene_DynamicTreeRebuildRateHint@@YAIPEBVPxScene@physx@@@Z 00000001800c5dc0 f   PxAutoGeneratedMetaDataObjects.obj
 0001:000c4dd0       ?getPxScene_SceneQueryStaticTimestamp@@YAIPEBVPxScene@physx@@@Z 00000001800c5dd0 f   PxAutoGeneratedMetaDataObjects.obj
 0001:000c4de0       ?getPxScene_BroadPhaseType@@YA?AW4Enum@PxBroadPhaseType@physx@@PEBVPxScene@3@@Z 00000001800c5de0 f   PxAutoGeneratedMetaDataObjects.obj
 0001:000c4df0       ?getPxScene_BroadPhaseRegions@@YAIPEBVPxScene@physx@@PEAUPxBroadPhaseRegionInfo@2@I@Z 00000001800c5df0 f   PxAutoGeneratedMetaDataObjects.obj
 0001:000c4e10       ?getNbPxScene_BroadPhaseRegions@@YAIPEBVPxScene@physx@@@Z 00000001800c5e10 f   PxAutoGeneratedMetaDataObjects.obj
 0001:000c4e20       ?getPxScene_TaskManager@@YAPEAVPxTaskManager@physx@@PEBVPxScene@2@@Z 00000001800c5e20 f   PxAutoGeneratedMetaDataObjects.obj
 0001:000c4e30       ?setPxScene_NbContactDataBlocks@@YAXPEAVPxScene@physx@@I@Z 00000001800c5e30 f   PxAutoGeneratedMetaDataObjects.obj
 0001:000c4e40       ?getPxScene_MaxNbContactDataBlocksUsed@@YAIPEBVPxScene@physx@@@Z 00000001800c5e40 f   PxAutoGeneratedMetaDataObjects.obj
 0001:000c4e50       ?getPxScene_ContactReportStreamBufferSize@@YAIPEBVPxScene@physx@@@Z 00000001800c5e50 f   PxAutoGeneratedMetaDataObjects.obj
 0001:000c4e60       ?setPxScene_SolverBatchSize@@YAXPEAVPxScene@physx@@I@Z 00000001800c5e60 f   PxAutoGeneratedMetaDataObjects.obj
 0001:000c4e70       ?getPxScene_SolverBatchSize@@YAIPEBVPxScene@physx@@@Z 00000001800c5e70 f   PxAutoGeneratedMetaDataObjects.obj
 0001:000c4e80       ?getPxScene_WakeCounterResetValue@@YAMPEBVPxScene@physx@@@Z 00000001800c5e80 f   PxAutoGeneratedMetaDataObjects.obj
 0001:000c4e90       ?getPxSphereGeometry_IsValid@@YA_NPEBVPxSphereGeometry@physx@@@Z 00000001800c5e90 f   PxAutoGeneratedMetaDataObjects.obj
 0001:000c4ed0       ?getPxHeightFieldDesc_IsValid@@YA_NPEBVPxHeightFieldDesc@physx@@@Z 00000001800c5ed0 f   PxAutoGeneratedMetaDataObjects.obj
 0001:000c4f30       ?setPxSceneDesc_ToDefault@@YAXPEAVPxSceneDesc@physx@@AEBVPxTolerancesScale@2@@Z 00000001800c5f30 f   PxAutoGeneratedMetaDataObjects.obj
 0001:000c4f60       ?getPxSceneDesc_IsValid@@YA_NPEBVPxSceneDesc@physx@@@Z 00000001800c5f60 f   PxAutoGeneratedMetaDataObjects.obj
 0001:000c6c50       ??0PxSceneDesc@physx@@QEAA@AEBVPxTolerancesScale@1@@Z 00000001800c7c50 f i PxAutoGeneratedMetaDataObjects.obj
 0001:000c6e00       ??0PxSimulationStatistics@physx@@QEAA@XZ 00000001800c7e00 f i PxAutoGeneratedMetaDataObjects.obj
 0001:000c6ec0       ??4PxSceneDesc@physx@@QEAAAEAV01@$$QEAV01@@Z 00000001800c7ec0 f i PxAutoGeneratedMetaDataObjects.obj
 0001:000c70f0       ??_FPxClothStretchConfig@physx@@QEAAXXZ 00000001800c80f0 f i PxAutoGeneratedMetaDataObjects.obj
 0001:000c7120       ?getPxActorUserData@@YAPEAXPEBVPxActor@physx@@@Z 00000001800c8120 f i PxAutoGeneratedMetaDataObjects.obj
 0001:000c7130       ?getPxArticulationUserData@@YAPEAXPEBVPxArticulation@physx@@@Z 00000001800c8130 f i PxAutoGeneratedMetaDataObjects.obj
 0001:000c7140       ?getPxBoxGeometryHalfExtents@@YA?AVPxVec3@physx@@PEBVPxBoxGeometry@2@@Z 00000001800c8140 f i PxAutoGeneratedMetaDataObjects.obj
 0001:000c7160       ?getPxCapsuleGeometryHalfHeight@@YAMPEBVPxCapsuleGeometry@physx@@@Z 00000001800c8160 f i PxAutoGeneratedMetaDataObjects.obj
 0001:000c7170       ?getPxCapsuleGeometryRadius@@YAMPEBVPxCapsuleGeometry@physx@@@Z 00000001800c8170 f i PxAutoGeneratedMetaDataObjects.obj
 0001:000c7180       ?getPxClothFabricPhasePhaseType@@YA?AW4Enum@PxClothFabricPhaseType@physx@@PEBUPxClothFabricPhase@3@@Z 00000001800c8180 f i PxAutoGeneratedMetaDataObjects.obj
 0001:000c7190       ?getPxClothFabricPhaseSetIndex@@YAIPEBUPxClothFabricPhase@physx@@@Z 00000001800c8190 f i PxAutoGeneratedMetaDataObjects.obj
 0001:000c71a0       ?getPxClothMotionConstraintConfigBias@@YAMPEBUPxClothMotionConstraintConfig@physx@@@Z 00000001800c81a0 f i PxAutoGeneratedMetaDataObjects.obj
 0001:000c71b0       ?getPxClothMotionConstraintConfigScale@@YAMPEBUPxClothMotionConstraintConfig@physx@@@Z 00000001800c81b0 f i PxAutoGeneratedMetaDataObjects.obj
 0001:000c71c0       ?getPxClothMotionConstraintConfigStiffness@@YAMPEBUPxClothMotionConstraintConfig@physx@@@Z 00000001800c81c0 f i PxAutoGeneratedMetaDataObjects.obj
 0001:000c71d0       ?getPxClothParticleDataParticles@@YAPEAUPxClothParticle@physx@@PEBVPxClothParticleData@2@@Z 00000001800c81d0 f i PxAutoGeneratedMetaDataObjects.obj
 0001:000c71e0       ?getPxClothParticleDataPreviousParticles@@YAPEAUPxClothParticle@physx@@PEBVPxClothParticleData@2@@Z 00000001800c81e0 f i PxAutoGeneratedMetaDataObjects.obj
 0001:000c71f0       ?getPxClothParticleInvWeight@@YAMPEBUPxClothParticle@physx@@@Z 00000001800c81f0 f i PxAutoGeneratedMetaDataObjects.obj
 0001:000c7200       ?getPxClothParticlePos@@YA?AVPxVec3@physx@@PEBUPxClothParticle@2@@Z 00000001800c8200 f i PxAutoGeneratedMetaDataObjects.obj
 0001:000c7220       ?getPxClothStretchConfigCompressionLimit@@YAMPEBUPxClothStretchConfig@physx@@@Z 00000001800c8220 f i PxAutoGeneratedMetaDataObjects.obj
 0001:000c7230       ?getPxClothStretchConfigStiffness@@YAMPEBUPxClothStretchConfig@physx@@@Z 00000001800c8230 f i PxAutoGeneratedMetaDataObjects.obj
 0001:000c7240       ?getPxClothStretchConfigStiffnessMultiplier@@YAMPEBUPxClothStretchConfig@physx@@@Z 00000001800c8240 f i PxAutoGeneratedMetaDataObjects.obj
 0001:000c7250       ?getPxClothStretchConfigStretchLimit@@YAMPEBUPxClothStretchConfig@physx@@@Z 00000001800c8250 f i PxAutoGeneratedMetaDataObjects.obj
 0001:000c7260       ?getPxClothTetherConfigStiffness@@YAMPEBUPxClothTetherConfig@physx@@@Z 00000001800c8260 f i PxAutoGeneratedMetaDataObjects.obj
 0001:000c7270       ?getPxClothTetherConfigStretchLimit@@YAMPEBUPxClothTetherConfig@physx@@@Z 00000001800c8270 f i PxAutoGeneratedMetaDataObjects.obj
 0001:000c7280       ?getPxConvexMeshGeometryConvexMesh@@YAPEAVPxConvexMesh@physx@@PEBVPxConvexMeshGeometry@2@@Z 00000001800c8280 f i PxAutoGeneratedMetaDataObjects.obj
 0001:000c7290       ?getPxConvexMeshGeometryScale@@YA?AVPxMeshScale@physx@@PEBVPxConvexMeshGeometry@2@@Z 00000001800c8290 f i PxAutoGeneratedMetaDataObjects.obj
 0001:000c72d0       ?getPxHeightFieldDescConvexEdgeThreshold@@YAMPEBVPxHeightFieldDesc@physx@@@Z 00000001800c82d0 f i PxAutoGeneratedMetaDataObjects.obj
 0001:000c72e0       ?getPxHeightFieldDescFlags@@YA?AV?$PxFlags@W4Enum@PxHeightFieldFlag@physx@@G@physx@@PEBVPxHeightFieldDesc@2@@Z 00000001800c82e0 f i PxAutoGeneratedMetaDataObjects.obj
 0001:000c72f0       ?getPxHeightFieldDescFormat@@YA?AW4Enum@PxHeightFieldFormat@physx@@PEBVPxHeightFieldDesc@3@@Z 00000001800c82f0 f i PxAutoGeneratedMetaDataObjects.obj
 0001:000c7300       ?getPxHeightFieldDescNbColumns@@YAIPEBVPxHeightFieldDesc@physx@@@Z 00000001800c8300 f i PxAutoGeneratedMetaDataObjects.obj
 0001:000c7310       ?getPxHeightFieldDescNbRows@@YAIPEBVPxHeightFieldDesc@physx@@@Z 00000001800c8310 f i PxAutoGeneratedMetaDataObjects.obj
 0001:000c7320       ?getPxHeightFieldDescSamples@@YA?AUPxStridedData@physx@@PEBVPxHeightFieldDesc@2@@Z 00000001800c8320 f i PxAutoGeneratedMetaDataObjects.obj
 0001:000c7330       ?getPxHeightFieldDescThickness@@YAMPEBVPxHeightFieldDesc@physx@@@Z 00000001800c8330 f i PxAutoGeneratedMetaDataObjects.obj
 0001:000c7340       ?getPxHeightFieldGeometryColumnScale@@YAMPEBVPxHeightFieldGeometry@physx@@@Z 00000001800c8340 f i PxAutoGeneratedMetaDataObjects.obj
 0001:000c7350       ?getPxHeightFieldGeometryHeightField@@YAPEAVPxHeightField@physx@@PEBVPxHeightFieldGeometry@2@@Z 00000001800c8350 f i PxAutoGeneratedMetaDataObjects.obj
 0001:000c7360       ?getPxHeightFieldGeometryHeightFieldFlags@@YA?AV?$PxFlags@W4Enum@PxMeshGeometryFlag@physx@@E@physx@@PEBVPxHeightFieldGeometry@2@@Z 00000001800c8360 f i PxAutoGeneratedMetaDataObjects.obj
 0001:000c7370       ?getPxHeightFieldGeometryHeightScale@@YAMPEBVPxHeightFieldGeometry@physx@@@Z 00000001800c8370 f i PxAutoGeneratedMetaDataObjects.obj
 0001:000c7380       ?getPxHeightFieldGeometryRowScale@@YAMPEBVPxHeightFieldGeometry@physx@@@Z 00000001800c8380 f i PxAutoGeneratedMetaDataObjects.obj
 0001:000c7390       ?getPxMaterialUserData@@YAPEAXPEBVPxMaterial@physx@@@Z 00000001800c8390 f i PxAutoGeneratedMetaDataObjects.obj
 0001:000c73a0       ?getPxMeshScaleRotation@@YA?AVPxQuat@physx@@PEBVPxMeshScale@2@@Z 00000001800c83a0 f i PxAutoGeneratedMetaDataObjects.obj
 0001:000c73d0       ?getPxMeshScaleScale@@YA?AVPxVec3@physx@@PEBVPxMeshScale@2@@Z 00000001800c83d0 f i PxAutoGeneratedMetaDataObjects.obj
 0001:000c73f0       ?getPxParticleReadDataCollisionNormalBuffer@@YA?AV?$PxStrideIterator@$$CBVPxVec3@physx@@@physx@@PEBVPxParticleReadData@2@@Z 00000001800c83f0 f i PxAutoGeneratedMetaDataObjects.obj
 0001:000c7400       ?getPxParticleReadDataCollisionVelocityBuffer@@YA?AV?$PxStrideIterator@$$CBVPxVec3@physx@@@physx@@PEBVPxParticleReadData@2@@Z 00000001800c8400 f i PxAutoGeneratedMetaDataObjects.obj
 0001:000c7410       ?getPxParticleReadDataFlagsBuffer@@YA?AV?$PxStrideIterator@$$CBV?$PxFlags@W4Enum@PxParticleFlag@physx@@G@physx@@@physx@@PEBVPxParticleReadData@2@@Z 00000001800c8410 f i PxAutoGeneratedMetaDataObjects.obj
 0001:000c7420       ?getPxParticleReadDataNbValidParticles@@YAIPEBVPxParticleReadData@physx@@@Z 00000001800c8420 f i PxAutoGeneratedMetaDataObjects.obj
 0001:000c7430       ?getPxParticleReadDataPositionBuffer@@YA?AV?$PxStrideIterator@$$CBVPxVec3@physx@@@physx@@PEBVPxParticleReadData@2@@Z 00000001800c8430 f i PxAutoGeneratedMetaDataObjects.obj
 0001:000c7440       ?getPxParticleReadDataRestOffsetBuffer@@YA?AV?$PxStrideIterator@$$CBM@physx@@PEBVPxParticleReadData@2@@Z 00000001800c8440 f i PxAutoGeneratedMetaDataObjects.obj
 0001:000c7450       ?getPxParticleReadDataValidParticleBitmap@@YAPEBIPEBVPxParticleReadData@physx@@@Z 00000001800c8450 f i PxAutoGeneratedMetaDataObjects.obj
 0001:000c7460       ?getPxParticleReadDataValidParticleRange@@YAIPEBVPxParticleReadData@physx@@@Z 00000001800c8460 f i PxAutoGeneratedMetaDataObjects.obj
 0001:000c7470       ?getPxParticleReadDataVelocityBuffer@@YA?AV?$PxStrideIterator@$$CBVPxVec3@physx@@@physx@@PEBVPxParticleReadData@2@@Z 00000001800c8470 f i PxAutoGeneratedMetaDataObjects.obj
 0001:000c7480       ?getPxSceneDescBounceThresholdVelocity@@YAMPEBVPxSceneDesc@physx@@@Z 00000001800c8480 f i PxAutoGeneratedMetaDataObjects.obj
 0001:000c7490       ?getPxSceneDescBroadPhaseCallback@@YAPEAVPxBroadPhaseCallback@physx@@PEBVPxSceneDesc@2@@Z 00000001800c8490 f i PxAutoGeneratedMetaDataObjects.obj
 0001:000c74a0       ?getPxSceneDescBroadPhaseType@@YA?AW4Enum@PxBroadPhaseType@physx@@PEBVPxSceneDesc@3@@Z 00000001800c84a0 f i PxAutoGeneratedMetaDataObjects.obj
 0001:000c74b0       ?getPxSceneDescCcdContactModifyCallback@@YAPEAVPxCCDContactModifyCallback@physx@@PEBVPxSceneDesc@2@@Z 00000001800c84b0 f i PxAutoGeneratedMetaDataObjects.obj
 0001:000c74c0       ?getPxSceneDescCcdMaxPasses@@YAIPEBVPxSceneDesc@physx@@@Z 00000001800c84c0 f i PxAutoGeneratedMetaDataObjects.obj
 0001:000c74d0       ?getPxSceneDescContactCorrelationDistance@@YAMPEBVPxSceneDesc@physx@@@Z 00000001800c84d0 f i PxAutoGeneratedMetaDataObjects.obj
 0001:000c74e0       ?getPxSceneDescContactModifyCallback@@YAPEAVPxContactModifyCallback@physx@@PEBVPxSceneDesc@2@@Z 00000001800c84e0 f i PxAutoGeneratedMetaDataObjects.obj
 0001:000c74f0       ?getPxSceneDescContactReportStreamBufferSize@@YAIPEBVPxSceneDesc@physx@@@Z 00000001800c84f0 f i PxAutoGeneratedMetaDataObjects.obj
 0001:000c7500       ?getPxSceneDescCpuDispatcher@@YAPEAVPxCpuDispatcher@physx@@PEBVPxSceneDesc@2@@Z 00000001800c8500 f i PxAutoGeneratedMetaDataObjects.obj
 0001:000c7510       ?getPxSceneDescDynamicStructure@@YA?AW4Enum@PxPruningStructure@physx@@PEBVPxSceneDesc@3@@Z 00000001800c8510 f i PxAutoGeneratedMetaDataObjects.obj
 0001:000c7520       ?getPxSceneDescDynamicTreeRebuildRateHint@@YAIPEBVPxSceneDesc@physx@@@Z 00000001800c8520 f i PxAutoGeneratedMetaDataObjects.obj
 0001:000c7530       ?getPxSceneDescFilterCallback@@YAPEAVPxSimulationFilterCallback@physx@@PEBVPxSceneDesc@2@@Z 00000001800c8530 f i PxAutoGeneratedMetaDataObjects.obj
 0001:000c7540       ?getPxSceneDescFilterShader@@YAP6A?AV?$PxFlags@W4Enum@PxFilterFlag@physx@@G@physx@@IUPxFilterData@2@I0AEAV?$PxFlags@W4Enum@PxPairFlag@physx@@G@2@PEBXI@ZPEBVPxSceneDesc@2@@Z 00000001800c8540 f i PxAutoGeneratedMetaDataObjects.obj
 0001:000c7550       ?getPxSceneDescFilterShaderData@@YAPEBXPEBVPxSceneDesc@physx@@@Z 00000001800c8550 f i PxAutoGeneratedMetaDataObjects.obj
 0001:000c7560       ?getPxSceneDescFilterShaderDataSize@@YAIPEBVPxSceneDesc@physx@@@Z 00000001800c8560 f i PxAutoGeneratedMetaDataObjects.obj
 0001:000c7570       ?getPxSceneDescFlags@@YA?AV?$PxFlags@W4Enum@PxSceneFlag@physx@@G@physx@@PEBVPxSceneDesc@2@@Z 00000001800c8570 f i PxAutoGeneratedMetaDataObjects.obj
 0001:000c7590       ?getPxSceneDescFrictionOffsetThreshold@@YAMPEBVPxSceneDesc@physx@@@Z 00000001800c8590 f i PxAutoGeneratedMetaDataObjects.obj
 0001:000c75a0       ?getPxSceneDescFrictionType@@YA?AW4Enum@PxFrictionType@physx@@PEBVPxSceneDesc@3@@Z 00000001800c85a0 f i PxAutoGeneratedMetaDataObjects.obj
 0001:000c75b0       ?getPxSceneDescGpuDispatcher@@YAPEAVPxGpuDispatcher@physx@@PEBVPxSceneDesc@2@@Z 00000001800c85b0 f i PxAutoGeneratedMetaDataObjects.obj
 0001:000c75c0       ?getPxSceneDescGravity@@YA?AVPxVec3@physx@@PEBVPxSceneDesc@2@@Z 00000001800c85c0 f i PxAutoGeneratedMetaDataObjects.obj
 0001:000c75e0       ?getPxSceneDescLimits@@YA?AVPxSceneLimits@physx@@PEBVPxSceneDesc@2@@Z 00000001800c85e0 f i PxAutoGeneratedMetaDataObjects.obj
 0001:000c7600       ?getPxSceneDescMaxNbContactDataBlocks@@YAIPEBVPxSceneDesc@physx@@@Z 00000001800c8600 f i PxAutoGeneratedMetaDataObjects.obj
 0001:000c7610       ?getPxSceneDescMeshContactMargin@@YAMPEBVPxSceneDesc@physx@@@Z 00000001800c8610 f i PxAutoGeneratedMetaDataObjects.obj
 0001:000c7620       ?getPxSceneDescNbContactDataBlocks@@YAIPEBVPxSceneDesc@physx@@@Z 00000001800c8620 f i PxAutoGeneratedMetaDataObjects.obj
 0001:000c7630       ?getPxSceneDescSanityBounds@@YA?AVPxBounds3@physx@@PEBVPxSceneDesc@2@@Z 00000001800c8630 f i PxAutoGeneratedMetaDataObjects.obj
 0001:000c7680       ?getPxSceneDescSimulationEventCallback@@YAPEAVPxSimulationEventCallback@physx@@PEBVPxSceneDesc@2@@Z 00000001800c8680 f i PxAutoGeneratedMetaDataObjects.obj
 0001:000c7690       ?getPxSceneDescSimulationOrder@@YA?AW4Enum@PxSimulationOrder@physx@@PEBVPxSceneDesc@3@@Z 00000001800c8690 f i PxAutoGeneratedMetaDataObjects.obj
 0001:000c76a0       ?getPxSceneDescSolverBatchSize@@YAIPEBVPxSceneDesc@physx@@@Z 00000001800c86a0 f i PxAutoGeneratedMetaDataObjects.obj
 0001:000c76b0       ?getPxSceneDescSpuDispatcher@@YAPEAVPxSpuDispatcher@physx@@PEBVPxSceneDesc@2@@Z 00000001800c86b0 f i PxAutoGeneratedMetaDataObjects.obj
 0001:000c76c0       ?getPxSceneDescStaticStructure@@YA?AW4Enum@PxPruningStructure@physx@@PEBVPxSceneDesc@3@@Z 00000001800c86c0 f i PxAutoGeneratedMetaDataObjects.obj
 0001:000c76d0       ?getPxSceneDescUserData@@YAPEAXPEBVPxSceneDesc@physx@@@Z 00000001800c86d0 f i PxAutoGeneratedMetaDataObjects.obj
 0001:000c76e0       ?getPxSceneDescWakeCounterResetValue@@YAMPEBVPxSceneDesc@physx@@@Z 00000001800c86e0 f i PxAutoGeneratedMetaDataObjects.obj
 0001:000c76f0       ?getPxSceneLimitsMaxNbActors@@YAIPEBVPxSceneLimits@physx@@@Z 00000001800c86f0 f i PxAutoGeneratedMetaDataObjects.obj
 0001:000c7700       ?getPxSceneLimitsMaxNbAggregates@@YAIPEBVPxSceneLimits@physx@@@Z 00000001800c8700 f i PxAutoGeneratedMetaDataObjects.obj
 0001:000c7710       ?getPxSceneLimitsMaxNbBodies@@YAIPEBVPxSceneLimits@physx@@@Z 00000001800c8710 f i PxAutoGeneratedMetaDataObjects.obj
 0001:000c7720       ?getPxSceneLimitsMaxNbConstraints@@YAIPEBVPxSceneLimits@physx@@@Z 00000001800c8720 f i PxAutoGeneratedMetaDataObjects.obj
 0001:000c7730       ?getPxSceneLimitsMaxNbDynamicShapes@@YAIPEBVPxSceneLimits@physx@@@Z 00000001800c8730 f i PxAutoGeneratedMetaDataObjects.obj
 0001:000c7740       ?getPxSceneLimitsMaxNbObjectsPerRegion@@YAIPEBVPxSceneLimits@physx@@@Z 00000001800c8740 f i PxAutoGeneratedMetaDataObjects.obj
 0001:000c7750       ?getPxSceneLimitsMaxNbRegions@@YAIPEBVPxSceneLimits@physx@@@Z 00000001800c8750 f i PxAutoGeneratedMetaDataObjects.obj
 0001:000c7760       ?getPxSceneLimitsMaxNbStaticShapes@@YAIPEBVPxSceneLimits@physx@@@Z 00000001800c8760 f i PxAutoGeneratedMetaDataObjects.obj
 0001:000c7770       ?getPxSceneUserData@@YAPEAXPEBVPxScene@physx@@@Z 00000001800c8770 f i PxAutoGeneratedMetaDataObjects.obj
 0001:000c7780       ?getPxShapeUserData@@YAPEAXPEBVPxShape@physx@@@Z 00000001800c8780 f i PxAutoGeneratedMetaDataObjects.obj
 0001:000c7790       ?getPxSimulationStatisticsCompressedContactSize@@YAIPEBVPxSimulationStatistics@physx@@@Z 00000001800c8790 f i PxAutoGeneratedMetaDataObjects.obj
 0001:000c77a0       ?getPxSimulationStatisticsNbActiveConstraints@@YAIPEBVPxSimulationStatistics@physx@@@Z 00000001800c87a0 f i PxAutoGeneratedMetaDataObjects.obj
 0001:000c77b0       ?getPxSimulationStatisticsNbActiveDynamicBodies@@YAIPEBVPxSimulationStatistics@physx@@@Z 00000001800c87b0 f i PxAutoGeneratedMetaDataObjects.obj
 0001:000c77c0       ?getPxSimulationStatisticsNbActiveKinematicBodies@@YAIPEBVPxSimulationStatistics@physx@@@Z 00000001800c87c0 f i PxAutoGeneratedMetaDataObjects.obj
 0001:000c77d0       ?getPxSimulationStatisticsNbAxisSolverConstraints@@YAIPEBVPxSimulationStatistics@physx@@@Z 00000001800c87d0 f i PxAutoGeneratedMetaDataObjects.obj
 0001:000c77e0       ?getPxSimulationStatisticsNbDynamicBodies@@YAIPEBVPxSimulationStatistics@physx@@@Z 00000001800c87e0 f i PxAutoGeneratedMetaDataObjects.obj
 0001:000c77f0       ?getPxSimulationStatisticsNbStaticBodies@@YAIPEBVPxSimulationStatistics@physx@@@Z 00000001800c87f0 f i PxAutoGeneratedMetaDataObjects.obj
 0001:000c7800       ?getPxSimulationStatisticsParticlesGpuMeshCacheHitrate@@YAMPEBVPxSimulationStatistics@physx@@@Z 00000001800c8800 f i PxAutoGeneratedMetaDataObjects.obj
 0001:000c7810       ?getPxSimulationStatisticsParticlesGpuMeshCacheSize@@YAIPEBVPxSimulationStatistics@physx@@@Z 00000001800c8810 f i PxAutoGeneratedMetaDataObjects.obj
 0001:000c7820       ?getPxSimulationStatisticsParticlesGpuMeshCacheUsed@@YAIPEBVPxSimulationStatistics@physx@@@Z 00000001800c8820 f i PxAutoGeneratedMetaDataObjects.obj
 0001:000c7830       ?getPxSimulationStatisticsPeakConstraintMemory@@YAIPEBVPxSimulationStatistics@physx@@@Z 00000001800c8830 f i PxAutoGeneratedMetaDataObjects.obj
 0001:000c7840       ?getPxSimulationStatisticsRequiredContactConstraintMemory@@YAIPEBVPxSimulationStatistics@physx@@@Z 00000001800c8840 f i PxAutoGeneratedMetaDataObjects.obj
 0001:000c7850       ?getPxSimulationStatisticsTotalDiscreteContactPairsAnyShape@@YAIPEBVPxSimulationStatistics@physx@@@Z 00000001800c8850 f i PxAutoGeneratedMetaDataObjects.obj
 0001:000c7860       ?getPxSphereGeometryRadius@@YAMPEBVPxSphereGeometry@physx@@@Z 00000001800c8860 f i PxAutoGeneratedMetaDataObjects.obj
 0001:000c7870       ?getPxTolerancesScaleLength@@YAMPEBVPxTolerancesScale@physx@@@Z 00000001800c8870 f i PxAutoGeneratedMetaDataObjects.obj
 0001:000c7880       ?getPxTolerancesScaleMass@@YAMPEBVPxTolerancesScale@physx@@@Z 00000001800c8880 f i PxAutoGeneratedMetaDataObjects.obj
 0001:000c7890       ?getPxTolerancesScaleSpeed@@YAMPEBVPxTolerancesScale@physx@@@Z 00000001800c8890 f i PxAutoGeneratedMetaDataObjects.obj
 0001:000c78a0       ?getPxTriangleMeshGeometryMeshFlags@@YA?AV?$PxFlags@W4Enum@PxMeshGeometryFlag@physx@@E@physx@@PEBVPxTriangleMeshGeometry@2@@Z 00000001800c88a0 f i PxAutoGeneratedMetaDataObjects.obj
 0001:000c78b0       ?getPxTriangleMeshGeometryScale@@YA?AVPxMeshScale@physx@@PEBVPxTriangleMeshGeometry@2@@Z 00000001800c88b0 f i PxAutoGeneratedMetaDataObjects.obj
 0001:000c78f0       ?getPxTriangleMeshGeometryTriangleMesh@@YAPEAVPxTriangleMesh@physx@@PEBVPxTriangleMeshGeometry@2@@Z 00000001800c88f0 f i PxAutoGeneratedMetaDataObjects.obj
 0001:000c7900       ?setPxActorUserData@@YAXPEAVPxActor@physx@@PEAX@Z 00000001800c8900 f i PxAutoGeneratedMetaDataObjects.obj
 0001:000c7910       ?setPxArticulationUserData@@YAXPEAVPxArticulation@physx@@PEAX@Z 00000001800c8910 f i PxAutoGeneratedMetaDataObjects.obj
 0001:000c7920       ?setPxBoxGeometryHalfExtents@@YAXPEAVPxBoxGeometry@physx@@VPxVec3@2@@Z 00000001800c8920 f i PxAutoGeneratedMetaDataObjects.obj
 0001:000c7940       ?setPxCapsuleGeometryHalfHeight@@YAXPEAVPxCapsuleGeometry@physx@@M@Z 00000001800c8940 f i PxAutoGeneratedMetaDataObjects.obj
 0001:000c7950       ?setPxCapsuleGeometryRadius@@YAXPEAVPxCapsuleGeometry@physx@@M@Z 00000001800c8950 f i PxAutoGeneratedMetaDataObjects.obj
 0001:000c7960       ?setPxClothFabricPhasePhaseType@@YAXPEAUPxClothFabricPhase@physx@@W4Enum@PxClothFabricPhaseType@2@@Z 00000001800c8960 f i PxAutoGeneratedMetaDataObjects.obj
 0001:000c7970       ?setPxClothFabricPhaseSetIndex@@YAXPEAUPxClothFabricPhase@physx@@I@Z 00000001800c8970 f i PxAutoGeneratedMetaDataObjects.obj
 0001:000c7980       ?setPxClothMotionConstraintConfigBias@@YAXPEAUPxClothMotionConstraintConfig@physx@@M@Z 00000001800c8980 f i PxAutoGeneratedMetaDataObjects.obj
 0001:000c7990       ?setPxClothMotionConstraintConfigScale@@YAXPEAUPxClothMotionConstraintConfig@physx@@M@Z 00000001800c8990 f i PxAutoGeneratedMetaDataObjects.obj
 0001:000c79a0       ?setPxClothMotionConstraintConfigStiffness@@YAXPEAUPxClothMotionConstraintConfig@physx@@M@Z 00000001800c89a0 f i PxAutoGeneratedMetaDataObjects.obj
 0001:000c79b0       ?setPxClothParticleDataParticles@@YAXPEAVPxClothParticleData@physx@@PEAUPxClothParticle@2@@Z 00000001800c89b0 f i PxAutoGeneratedMetaDataObjects.obj
 0001:000c79c0       ?setPxClothParticleDataPreviousParticles@@YAXPEAVPxClothParticleData@physx@@PEAUPxClothParticle@2@@Z 00000001800c89c0 f i PxAutoGeneratedMetaDataObjects.obj
 0001:000c79d0       ?setPxClothParticleInvWeight@@YAXPEAUPxClothParticle@physx@@M@Z 00000001800c89d0 f i PxAutoGeneratedMetaDataObjects.obj
 0001:000c79e0       ?setPxClothParticlePos@@YAXPEAUPxClothParticle@physx@@VPxVec3@2@@Z 00000001800c89e0 f i PxAutoGeneratedMetaDataObjects.obj
 0001:000c7a00       ?setPxClothStretchConfigCompressionLimit@@YAXPEAUPxClothStretchConfig@physx@@M@Z 00000001800c8a00 f i PxAutoGeneratedMetaDataObjects.obj
 0001:000c7a10       ?setPxClothStretchConfigStiffness@@YAXPEAUPxClothStretchConfig@physx@@M@Z 00000001800c8a10 f i PxAutoGeneratedMetaDataObjects.obj
 0001:000c7a20       ?setPxClothStretchConfigStiffnessMultiplier@@YAXPEAUPxClothStretchConfig@physx@@M@Z 00000001800c8a20 f i PxAutoGeneratedMetaDataObjects.obj
 0001:000c7a30       ?setPxClothStretchConfigStretchLimit@@YAXPEAUPxClothStretchConfig@physx@@M@Z 00000001800c8a30 f i PxAutoGeneratedMetaDataObjects.obj
 0001:000c7a40       ?setPxClothTetherConfigStiffness@@YAXPEAUPxClothTetherConfig@physx@@M@Z 00000001800c8a40 f i PxAutoGeneratedMetaDataObjects.obj
 0001:000c7a50       ?setPxClothTetherConfigStretchLimit@@YAXPEAUPxClothTetherConfig@physx@@M@Z 00000001800c8a50 f i PxAutoGeneratedMetaDataObjects.obj
 0001:000c7a60       ?setPxConvexMeshGeometryConvexMesh@@YAXPEAVPxConvexMeshGeometry@physx@@PEAVPxConvexMesh@2@@Z 00000001800c8a60 f i PxAutoGeneratedMetaDataObjects.obj
 0001:000c7a70       ?setPxConvexMeshGeometryScale@@YAXPEAVPxConvexMeshGeometry@physx@@VPxMeshScale@2@@Z 00000001800c8a70 f i PxAutoGeneratedMetaDataObjects.obj
 0001:000c7ab0       ?setPxHeightFieldDescConvexEdgeThreshold@@YAXPEAVPxHeightFieldDesc@physx@@M@Z 00000001800c8ab0 f i PxAutoGeneratedMetaDataObjects.obj
 0001:000c7ac0       ?setPxHeightFieldDescFlags@@YAXPEAVPxHeightFieldDesc@physx@@V?$PxFlags@W4Enum@PxHeightFieldFlag@physx@@G@2@@Z 00000001800c8ac0 f i PxAutoGeneratedMetaDataObjects.obj
 0001:000c7ad0       ?setPxHeightFieldDescFormat@@YAXPEAVPxHeightFieldDesc@physx@@W4Enum@PxHeightFieldFormat@2@@Z 00000001800c8ad0 f i PxAutoGeneratedMetaDataObjects.obj
 0001:000c7ae0       ?setPxHeightFieldDescNbColumns@@YAXPEAVPxHeightFieldDesc@physx@@I@Z 00000001800c8ae0 f i PxAutoGeneratedMetaDataObjects.obj
 0001:000c7af0       ?setPxHeightFieldDescNbRows@@YAXPEAVPxHeightFieldDesc@physx@@I@Z 00000001800c8af0 f i PxAutoGeneratedMetaDataObjects.obj
 0001:000c7b00       ?setPxHeightFieldDescSamples@@YAXPEAVPxHeightFieldDesc@physx@@UPxStridedData@2@@Z 00000001800c8b00 f i PxAutoGeneratedMetaDataObjects.obj
 0001:000c7b10       ?setPxHeightFieldDescThickness@@YAXPEAVPxHeightFieldDesc@physx@@M@Z 00000001800c8b10 f i PxAutoGeneratedMetaDataObjects.obj
 0001:000c7b20       ?setPxHeightFieldGeometryColumnScale@@YAXPEAVPxHeightFieldGeometry@physx@@M@Z 00000001800c8b20 f i PxAutoGeneratedMetaDataObjects.obj
 0001:000c7b30       ?setPxHeightFieldGeometryHeightField@@YAXPEAVPxHeightFieldGeometry@physx@@PEAVPxHeightField@2@@Z 00000001800c8b30 f i PxAutoGeneratedMetaDataObjects.obj
 0001:000c7b40       ?setPxHeightFieldGeometryHeightFieldFlags@@YAXPEAVPxHeightFieldGeometry@physx@@V?$PxFlags@W4Enum@PxMeshGeometryFlag@physx@@E@2@@Z 00000001800c8b40 f i PxAutoGeneratedMetaDataObjects.obj
 0001:000c7b50       ?setPxHeightFieldGeometryHeightScale@@YAXPEAVPxHeightFieldGeometry@physx@@M@Z 00000001800c8b50 f i PxAutoGeneratedMetaDataObjects.obj
 0001:000c7b60       ?setPxHeightFieldGeometryRowScale@@YAXPEAVPxHeightFieldGeometry@physx@@M@Z 00000001800c8b60 f i PxAutoGeneratedMetaDataObjects.obj
 0001:000c7b70       ?setPxMaterialUserData@@YAXPEAVPxMaterial@physx@@PEAX@Z 00000001800c8b70 f i PxAutoGeneratedMetaDataObjects.obj
 0001:000c7b80       ?setPxMeshScaleRotation@@YAXPEAVPxMeshScale@physx@@VPxQuat@2@@Z 00000001800c8b80 f i PxAutoGeneratedMetaDataObjects.obj
 0001:000c7ba0       ?setPxMeshScaleScale@@YAXPEAVPxMeshScale@physx@@VPxVec3@2@@Z 00000001800c8ba0 f i PxAutoGeneratedMetaDataObjects.obj
 0001:000c7bc0       ?setPxParticleReadDataCollisionNormalBuffer@@YAXPEAVPxParticleReadData@physx@@V?$PxStrideIterator@$$CBVPxVec3@physx@@@2@@Z 00000001800c8bc0 f i PxAutoGeneratedMetaDataObjects.obj
 0001:000c7bd0       ?setPxParticleReadDataCollisionVelocityBuffer@@YAXPEAVPxParticleReadData@physx@@V?$PxStrideIterator@$$CBVPxVec3@physx@@@2@@Z 00000001800c8bd0 f i PxAutoGeneratedMetaDataObjects.obj
 0001:000c7be0       ?setPxParticleReadDataFlagsBuffer@@YAXPEAVPxParticleReadData@physx@@V?$PxStrideIterator@$$CBV?$PxFlags@W4Enum@PxParticleFlag@physx@@G@physx@@@2@@Z 00000001800c8be0 f i PxAutoGeneratedMetaDataObjects.obj
 0001:000c7bf0       ?setPxParticleReadDataNbValidParticles@@YAXPEAVPxParticleReadData@physx@@I@Z 00000001800c8bf0 f i PxAutoGeneratedMetaDataObjects.obj
 0001:000c7c00       ?setPxParticleReadDataPositionBuffer@@YAXPEAVPxParticleReadData@physx@@V?$PxStrideIterator@$$CBVPxVec3@physx@@@2@@Z 00000001800c8c00 f i PxAutoGeneratedMetaDataObjects.obj
 0001:000c7c10       ?setPxParticleReadDataRestOffsetBuffer@@YAXPEAVPxParticleReadData@physx@@V?$PxStrideIterator@$$CBM@2@@Z 00000001800c8c10 f i PxAutoGeneratedMetaDataObjects.obj
 0001:000c7c20       ?setPxParticleReadDataValidParticleBitmap@@YAXPEAVPxParticleReadData@physx@@PEBI@Z 00000001800c8c20 f i PxAutoGeneratedMetaDataObjects.obj
 0001:000c7c30       ?setPxParticleReadDataValidParticleRange@@YAXPEAVPxParticleReadData@physx@@I@Z 00000001800c8c30 f i PxAutoGeneratedMetaDataObjects.obj
 0001:000c7c40       ?setPxParticleReadDataVelocityBuffer@@YAXPEAVPxParticleReadData@physx@@V?$PxStrideIterator@$$CBVPxVec3@physx@@@2@@Z 00000001800c8c40 f i PxAutoGeneratedMetaDataObjects.obj
 0001:000c7c50       ?setPxSceneDescBounceThresholdVelocity@@YAXPEAVPxSceneDesc@physx@@M@Z 00000001800c8c50 f i PxAutoGeneratedMetaDataObjects.obj
 0001:000c7c60       ?setPxSceneDescBroadPhaseCallback@@YAXPEAVPxSceneDesc@physx@@PEAVPxBroadPhaseCallback@2@@Z 00000001800c8c60 f i PxAutoGeneratedMetaDataObjects.obj
 0001:000c7c70       ?setPxSceneDescBroadPhaseType@@YAXPEAVPxSceneDesc@physx@@W4Enum@PxBroadPhaseType@2@@Z 00000001800c8c70 f i PxAutoGeneratedMetaDataObjects.obj
 0001:000c7c80       ?setPxSceneDescCcdContactModifyCallback@@YAXPEAVPxSceneDesc@physx@@PEAVPxCCDContactModifyCallback@2@@Z 00000001800c8c80 f i PxAutoGeneratedMetaDataObjects.obj
 0001:000c7c90       ?setPxSceneDescCcdMaxPasses@@YAXPEAVPxSceneDesc@physx@@I@Z 00000001800c8c90 f i PxAutoGeneratedMetaDataObjects.obj
 0001:000c7ca0       ?setPxSceneDescContactCorrelationDistance@@YAXPEAVPxSceneDesc@physx@@M@Z 00000001800c8ca0 f i PxAutoGeneratedMetaDataObjects.obj
 0001:000c7cb0       ?setPxSceneDescContactModifyCallback@@YAXPEAVPxSceneDesc@physx@@PEAVPxContactModifyCallback@2@@Z 00000001800c8cb0 f i PxAutoGeneratedMetaDataObjects.obj
 0001:000c7cc0       ?setPxSceneDescContactReportStreamBufferSize@@YAXPEAVPxSceneDesc@physx@@I@Z 00000001800c8cc0 f i PxAutoGeneratedMetaDataObjects.obj
 0001:000c7cd0       ?setPxSceneDescCpuDispatcher@@YAXPEAVPxSceneDesc@physx@@PEAVPxCpuDispatcher@2@@Z 00000001800c8cd0 f i PxAutoGeneratedMetaDataObjects.obj
 0001:000c7ce0       ?setPxSceneDescDynamicStructure@@YAXPEAVPxSceneDesc@physx@@W4Enum@PxPruningStructure@2@@Z 00000001800c8ce0 f i PxAutoGeneratedMetaDataObjects.obj
 0001:000c7cf0       ?setPxSceneDescDynamicTreeRebuildRateHint@@YAXPEAVPxSceneDesc@physx@@I@Z 00000001800c8cf0 f i PxAutoGeneratedMetaDataObjects.obj
 0001:000c7d00       ?setPxSceneDescFilterCallback@@YAXPEAVPxSceneDesc@physx@@PEAVPxSimulationFilterCallback@2@@Z 00000001800c8d00 f i PxAutoGeneratedMetaDataObjects.obj
 0001:000c7d10       ?setPxSceneDescFilterShader@@YAXPEAVPxSceneDesc@physx@@P6A?AV?$PxFlags@W4Enum@PxFilterFlag@physx@@G@2@IUPxFilterData@2@I1AEAV?$PxFlags@W4Enum@PxPairFlag@physx@@G@2@PEBXI@Z@Z 00000001800c8d10 f i PxAutoGeneratedMetaDataObjects.obj
 0001:000c7d20       ?setPxSceneDescFilterShaderData@@YAXPEAVPxSceneDesc@physx@@PEBX@Z 00000001800c8d20 f i PxAutoGeneratedMetaDataObjects.obj
 0001:000c7d30       ?setPxSceneDescFilterShaderDataSize@@YAXPEAVPxSceneDesc@physx@@I@Z 00000001800c8d30 f i PxAutoGeneratedMetaDataObjects.obj
 0001:000c7d40       ?setPxSceneDescFlags@@YAXPEAVPxSceneDesc@physx@@V?$PxFlags@W4Enum@PxSceneFlag@physx@@G@2@@Z 00000001800c8d40 f i PxAutoGeneratedMetaDataObjects.obj
 0001:000c7d50       ?setPxSceneDescFrictionOffsetThreshold@@YAXPEAVPxSceneDesc@physx@@M@Z 00000001800c8d50 f i PxAutoGeneratedMetaDataObjects.obj
 0001:000c7d60       ?setPxSceneDescFrictionType@@YAXPEAVPxSceneDesc@physx@@W4Enum@PxFrictionType@2@@Z 00000001800c8d60 f i PxAutoGeneratedMetaDataObjects.obj
 0001:000c7d70       ?setPxSceneDescGpuDispatcher@@YAXPEAVPxSceneDesc@physx@@PEAVPxGpuDispatcher@2@@Z 00000001800c8d70 f i PxAutoGeneratedMetaDataObjects.obj
 0001:000c7d80       ?setPxSceneDescGravity@@YAXPEAVPxSceneDesc@physx@@VPxVec3@2@@Z 00000001800c8d80 f i PxAutoGeneratedMetaDataObjects.obj
 0001:000c7da0       ?setPxSceneDescLimits@@YAXPEAVPxSceneDesc@physx@@VPxSceneLimits@2@@Z 00000001800c8da0 f i PxAutoGeneratedMetaDataObjects.obj
 0001:000c7dc0       ?setPxSceneDescMaxNbContactDataBlocks@@YAXPEAVPxSceneDesc@physx@@I@Z 00000001800c8dc0 f i PxAutoGeneratedMetaDataObjects.obj
 0001:000c7dd0       ?setPxSceneDescMeshContactMargin@@YAXPEAVPxSceneDesc@physx@@M@Z 00000001800c8dd0 f i PxAutoGeneratedMetaDataObjects.obj
 0001:000c7de0       ?setPxSceneDescNbContactDataBlocks@@YAXPEAVPxSceneDesc@physx@@I@Z 00000001800c8de0 f i PxAutoGeneratedMetaDataObjects.obj
 0001:000c7df0       ?setPxSceneDescSanityBounds@@YAXPEAVPxSceneDesc@physx@@VPxBounds3@2@@Z 00000001800c8df0 f i PxAutoGeneratedMetaDataObjects.obj
 0001:000c7e40       ?setPxSceneDescSimulationEventCallback@@YAXPEAVPxSceneDesc@physx@@PEAVPxSimulationEventCallback@2@@Z 00000001800c8e40 f i PxAutoGeneratedMetaDataObjects.obj
 0001:000c7e50       ?setPxSceneDescSimulationOrder@@YAXPEAVPxSceneDesc@physx@@W4Enum@PxSimulationOrder@2@@Z 00000001800c8e50 f i PxAutoGeneratedMetaDataObjects.obj
 0001:000c7e60       ?setPxSceneDescSolverBatchSize@@YAXPEAVPxSceneDesc@physx@@I@Z 00000001800c8e60 f i PxAutoGeneratedMetaDataObjects.obj
 0001:000c7e70       ?setPxSceneDescSpuDispatcher@@YAXPEAVPxSceneDesc@physx@@PEAVPxSpuDispatcher@2@@Z 00000001800c8e70 f i PxAutoGeneratedMetaDataObjects.obj
 0001:000c7e80       ?setPxSceneDescStaticStructure@@YAXPEAVPxSceneDesc@physx@@W4Enum@PxPruningStructure@2@@Z 00000001800c8e80 f i PxAutoGeneratedMetaDataObjects.obj
 0001:000c7e90       ?setPxSceneDescUserData@@YAXPEAVPxSceneDesc@physx@@PEAX@Z 00000001800c8e90 f i PxAutoGeneratedMetaDataObjects.obj
 0001:000c7ea0       ?setPxSceneDescWakeCounterResetValue@@YAXPEAVPxSceneDesc@physx@@M@Z 00000001800c8ea0 f i PxAutoGeneratedMetaDataObjects.obj
 0001:000c7eb0       ?setPxSceneLimitsMaxNbActors@@YAXPEAVPxSceneLimits@physx@@I@Z 00000001800c8eb0 f i PxAutoGeneratedMetaDataObjects.obj
 0001:000c7ec0       ?setPxSceneLimitsMaxNbAggregates@@YAXPEAVPxSceneLimits@physx@@I@Z 00000001800c8ec0 f i PxAutoGeneratedMetaDataObjects.obj
 0001:000c7ed0       ?setPxSceneLimitsMaxNbBodies@@YAXPEAVPxSceneLimits@physx@@I@Z 00000001800c8ed0 f i PxAutoGeneratedMetaDataObjects.obj
 0001:000c7ee0       ?setPxSceneLimitsMaxNbConstraints@@YAXPEAVPxSceneLimits@physx@@I@Z 00000001800c8ee0 f i PxAutoGeneratedMetaDataObjects.obj
 0001:000c7ef0       ?setPxSceneLimitsMaxNbDynamicShapes@@YAXPEAVPxSceneLimits@physx@@I@Z 00000001800c8ef0 f i PxAutoGeneratedMetaDataObjects.obj
 0001:000c7f00       ?setPxSceneLimitsMaxNbObjectsPerRegion@@YAXPEAVPxSceneLimits@physx@@I@Z 00000001800c8f00 f i PxAutoGeneratedMetaDataObjects.obj
 0001:000c7f10       ?setPxSceneLimitsMaxNbRegions@@YAXPEAVPxSceneLimits@physx@@I@Z 00000001800c8f10 f i PxAutoGeneratedMetaDataObjects.obj
 0001:000c7f20       ?setPxSceneLimitsMaxNbStaticShapes@@YAXPEAVPxSceneLimits@physx@@I@Z 00000001800c8f20 f i PxAutoGeneratedMetaDataObjects.obj
 0001:000c7f30       ?setPxSceneUserData@@YAXPEAVPxScene@physx@@PEAX@Z 00000001800c8f30 f i PxAutoGeneratedMetaDataObjects.obj
 0001:000c7f40       ?setPxShapeUserData@@YAXPEAVPxShape@physx@@PEAX@Z 00000001800c8f40 f i PxAutoGeneratedMetaDataObjects.obj
 0001:000c7f50       ?setPxSimulationStatisticsCompressedContactSize@@YAXPEAVPxSimulationStatistics@physx@@I@Z 00000001800c8f50 f i PxAutoGeneratedMetaDataObjects.obj
 0001:000c7f60       ?setPxSimulationStatisticsNbActiveConstraints@@YAXPEAVPxSimulationStatistics@physx@@I@Z 00000001800c8f60 f i PxAutoGeneratedMetaDataObjects.obj
 0001:000c7f70       ?setPxSimulationStatisticsNbActiveDynamicBodies@@YAXPEAVPxSimulationStatistics@physx@@I@Z 00000001800c8f70 f i PxAutoGeneratedMetaDataObjects.obj
 0001:000c7f80       ?setPxSimulationStatisticsNbActiveKinematicBodies@@YAXPEAVPxSimulationStatistics@physx@@I@Z 00000001800c8f80 f i PxAutoGeneratedMetaDataObjects.obj
 0001:000c7f90       ?setPxSimulationStatisticsNbAxisSolverConstraints@@YAXPEAVPxSimulationStatistics@physx@@I@Z 00000001800c8f90 f i PxAutoGeneratedMetaDataObjects.obj
 0001:000c7fa0       ?setPxSimulationStatisticsNbDynamicBodies@@YAXPEAVPxSimulationStatistics@physx@@I@Z 00000001800c8fa0 f i PxAutoGeneratedMetaDataObjects.obj
 0001:000c7fb0       ?setPxSimulationStatisticsNbStaticBodies@@YAXPEAVPxSimulationStatistics@physx@@I@Z 00000001800c8fb0 f i PxAutoGeneratedMetaDataObjects.obj
 0001:000c7fc0       ?setPxSimulationStatisticsParticlesGpuMeshCacheHitrate@@YAXPEAVPxSimulationStatistics@physx@@M@Z 00000001800c8fc0 f i PxAutoGeneratedMetaDataObjects.obj
 0001:000c7fd0       ?setPxSimulationStatisticsParticlesGpuMeshCacheSize@@YAXPEAVPxSimulationStatistics@physx@@I@Z 00000001800c8fd0 f i PxAutoGeneratedMetaDataObjects.obj
 0001:000c7fe0       ?setPxSimulationStatisticsParticlesGpuMeshCacheUsed@@YAXPEAVPxSimulationStatistics@physx@@I@Z 00000001800c8fe0 f i PxAutoGeneratedMetaDataObjects.obj
 0001:000c7ff0       ?setPxSimulationStatisticsPeakConstraintMemory@@YAXPEAVPxSimulationStatistics@physx@@I@Z 00000001800c8ff0 f i PxAutoGeneratedMetaDataObjects.obj
 0001:000c8000       ?setPxSimulationStatisticsRequiredContactConstraintMemory@@YAXPEAVPxSimulationStatistics@physx@@I@Z 00000001800c9000 f i PxAutoGeneratedMetaDataObjects.obj
 0001:000c8010       ?setPxSimulationStatisticsTotalDiscreteContactPairsAnyShape@@YAXPEAVPxSimulationStatistics@physx@@I@Z 00000001800c9010 f i PxAutoGeneratedMetaDataObjects.obj
 0001:000c8020       ?setPxSphereGeometryRadius@@YAXPEAVPxSphereGeometry@physx@@M@Z 00000001800c9020 f i PxAutoGeneratedMetaDataObjects.obj
 0001:000c8030       ?setPxTolerancesScaleLength@@YAXPEAVPxTolerancesScale@physx@@M@Z 00000001800c9030 f i PxAutoGeneratedMetaDataObjects.obj
 0001:000c8040       ?setPxTolerancesScaleMass@@YAXPEAVPxTolerancesScale@physx@@M@Z 00000001800c9040 f i PxAutoGeneratedMetaDataObjects.obj
 0001:000c8050       ?setPxTolerancesScaleSpeed@@YAXPEAVPxTolerancesScale@physx@@M@Z 00000001800c9050 f i PxAutoGeneratedMetaDataObjects.obj
 0001:000c8060       ?setPxTriangleMeshGeometryMeshFlags@@YAXPEAVPxTriangleMeshGeometry@physx@@V?$PxFlags@W4Enum@PxMeshGeometryFlag@physx@@E@2@@Z 00000001800c9060 f i PxAutoGeneratedMetaDataObjects.obj
 0001:000c8070       ?setPxTriangleMeshGeometryScale@@YAXPEAVPxTriangleMeshGeometry@physx@@VPxMeshScale@2@@Z 00000001800c9070 f i PxAutoGeneratedMetaDataObjects.obj
 0001:000c80b0       ?setPxTriangleMeshGeometryTriangleMesh@@YAXPEAVPxTriangleMeshGeometry@physx@@PEAVPxTriangleMesh@2@@Z 00000001800c90b0 f i PxAutoGeneratedMetaDataObjects.obj
 0001:000c80c0       ?getGeometryType@PxShapeGeometryPropertyHelper@physx@@QEBA?AW4Enum@PxGeometryType@2@PEBVPxShape@2@@Z 00000001800c90c0 f   PxMetaDataObjects.obj
 0001:000c80d0       ?getGeometry@PxShapeGeometryPropertyHelper@physx@@QEBA_NPEBVPxShape@2@AEAVPxBoxGeometry@2@@Z 00000001800c90d0 f   PxMetaDataObjects.obj
 0001:000c80f0       ?getGeometry@PxShapeGeometryPropertyHelper@physx@@QEBA_NPEBVPxShape@2@AEAVPxSphereGeometry@2@@Z 00000001800c90f0 f   PxMetaDataObjects.obj
 0001:000c8110       ?getGeometry@PxShapeGeometryPropertyHelper@physx@@QEBA_NPEBVPxShape@2@AEAVPxCapsuleGeometry@2@@Z 00000001800c9110 f   PxMetaDataObjects.obj
 0001:000c8130       ?getGeometry@PxShapeGeometryPropertyHelper@physx@@QEBA_NPEBVPxShape@2@AEAVPxPlaneGeometry@2@@Z 00000001800c9130 f   PxMetaDataObjects.obj
 0001:000c8150       ?getGeometry@PxShapeGeometryPropertyHelper@physx@@QEBA_NPEBVPxShape@2@AEAVPxConvexMeshGeometry@2@@Z 00000001800c9150 f   PxMetaDataObjects.obj
 0001:000c8170       ?getGeometry@PxShapeGeometryPropertyHelper@physx@@QEBA_NPEBVPxShape@2@AEAVPxTriangleMeshGeometry@2@@Z 00000001800c9170 f   PxMetaDataObjects.obj
 0001:000c8190       ?getGeometry@PxShapeGeometryPropertyHelper@physx@@QEBA_NPEBVPxShape@2@AEAVPxHeightFieldGeometry@2@@Z 00000001800c9190 f   PxMetaDataObjects.obj
 0001:000c81b0       ?setMaterials@PxShapeMaterialsPropertyHelper@physx@@QEBAXPEAVPxShape@2@PEBQEAVPxMaterial@2@G@Z 00000001800c91b0 f   PxMetaDataObjects.obj
 0001:000c81d0       ?createShape@PxRigidActorShapeCollectionHelper@physx@@QEBAPEAVPxShape@2@PEAVPxRigidActor@2@AEBVPxGeometry@2@AEAVPxMaterial@2@V?$PxFlags@W4Enum@PxShapeFlag@physx@@E@2@@Z 00000001800c91d0 f   PxMetaDataObjects.obj
 0001:000c8220       ?createShape@PxRigidActorShapeCollectionHelper@physx@@QEBAPEAVPxShape@2@PEAVPxRigidActor@2@AEBVPxGeometry@2@PEBQEAVPxMaterial@2@GV?$PxFlags@W4Enum@PxShapeFlag@physx@@E@2@@Z 00000001800c9220 f   PxMetaDataObjects.obj
 0001:000c8270       ?createLink@PxArticulationLinkCollectionPropHelper@physx@@QEBAPEAVPxArticulationLink@2@PEAVPxArticulation@2@PEAV32@AEBVPxTransform@2@@Z 00000001800c9270 f   PxMetaDataObjects.obj
 0001:000c8310       ??0RestvaluesProperty@physx@@QEAA@XZ 00000001800c9310 f   PxMetaDataObjects.obj
 0001:000c8350       ??0NbBroadPhaseAddsProperty@physx@@QEAA@XZ 00000001800c9350 f   PxMetaDataObjects.obj
 0001:000c8390       ??0NbBroadPhaseRemovesProperty@physx@@QEAA@XZ 00000001800c9390 f   PxMetaDataObjects.obj
 0001:000c83d0       ??0NbShapesProperty@physx@@QEAA@XZ 00000001800c93d0 f   PxMetaDataObjects.obj
 0001:000c8410       ??0NbDiscreteContactPairsProperty@physx@@QEAA@XZ 00000001800c9410 f   PxMetaDataObjects.obj
 0001:000c8450       ??0NbModifiedContactPairsProperty@physx@@QEAA@XZ 00000001800c9450 f   PxMetaDataObjects.obj
 0001:000c8490       ??0NbCCDPairsProperty@physx@@QEAA@XZ 00000001800c9490 f   PxMetaDataObjects.obj
 0001:000c84d0       ??0NbTriggerPairsProperty@physx@@QEAA@XZ 00000001800c94d0 f   PxMetaDataObjects.obj
 0001:000c8510       ??0SimulationStatisticsProperty@physx@@QEAA@XZ 00000001800c9510 f   PxMetaDataObjects.obj
 0001:000c8540       ??0ProjectionPlaneProperty@physx@@QEAA@XZ 00000001800c9540 f   PxMetaDataObjects.obj
 0001:000c86a0       ?GetNbBroadPhaseAdd@@YAIPEBVPxSimulationStatistics@physx@@W4VolumeType@12@@Z 00000001800c96a0 f i PxMetaDataObjects.obj
 0001:000c86b0       ?GetNbBroadPhaseRemove@@YAIPEBVPxSimulationStatistics@physx@@W4VolumeType@12@@Z 00000001800c96b0 f i PxMetaDataObjects.obj
 0001:000c86c0       ?GetNbCCDPairs@@YAIPEBVPxSimulationStatistics@physx@@W4Enum@PxGeometryType@2@1@Z 00000001800c96c0 f i PxMetaDataObjects.obj
 0001:000c86e0       ?GetNbDiscreteContactPairs@@YAIPEBVPxSimulationStatistics@physx@@W4Enum@PxGeometryType@2@1@Z 00000001800c96e0 f i PxMetaDataObjects.obj
 0001:000c8700       ?GetNbModifiedContactPairs@@YAIPEBVPxSimulationStatistics@physx@@W4Enum@PxGeometryType@2@1@Z 00000001800c9700 f i PxMetaDataObjects.obj
 0001:000c8720       ?GetNbPxClothFabric_Restvalues@@YAIPEBVPxClothFabric@physx@@@Z 00000001800c9720 f i PxMetaDataObjects.obj
 0001:000c8740       ?GetNbShape@@YAIPEBVPxSimulationStatistics@physx@@W4Enum@PxGeometryType@2@@Z 00000001800c9740 f i PxMetaDataObjects.obj
 0001:000c8750       ?GetNbTriggerPairs@@YAIPEBVPxSimulationStatistics@physx@@W4Enum@PxGeometryType@2@1@Z 00000001800c9750 f i PxMetaDataObjects.obj
 0001:000c8770       ?GetProjectionPlane@@YA?AUPxMetaDataPlane@physx@@PEBVPxParticleBase@2@@Z 00000001800c9770 f i PxMetaDataObjects.obj
 0001:000c87b0       ?GetPxClothFabric_Restvalues@@YAIPEBVPxClothFabric@physx@@PEAMI@Z 00000001800c97b0 f i PxMetaDataObjects.obj
 0001:000c87c0       ?GetStats@@YA?AVPxSimulationStatistics@physx@@PEBVPxScene@2@@Z 00000001800c97c0 f i PxMetaDataObjects.obj
 0001:000c8800       ?SetNbBroadPhaseAdd@@YAXPEAVPxSimulationStatistics@physx@@W4VolumeType@12@I@Z 00000001800c9800 f i PxMetaDataObjects.obj
 0001:000c8810       ?SetNbBroadPhaseRemove@@YAXPEAVPxSimulationStatistics@physx@@W4VolumeType@12@I@Z 00000001800c9810 f i PxMetaDataObjects.obj
 0001:000c8820       ?SetNbCCDPairs@@YAXPEAVPxSimulationStatistics@physx@@W4Enum@PxGeometryType@2@1I@Z 00000001800c9820 f i PxMetaDataObjects.obj
 0001:000c8840       ?SetNbDiscreteContactPairs@@YAXPEAVPxSimulationStatistics@physx@@W4Enum@PxGeometryType@2@1I@Z 00000001800c9840 f i PxMetaDataObjects.obj
 0001:000c8860       ?SetNbModifiedContactPairs@@YAXPEAVPxSimulationStatistics@physx@@W4Enum@PxGeometryType@2@1I@Z 00000001800c9860 f i PxMetaDataObjects.obj
 0001:000c8880       ?SetNbShape@@YAXPEAVPxSimulationStatistics@physx@@W4Enum@PxGeometryType@2@I@Z 00000001800c9880 f i PxMetaDataObjects.obj
 0001:000c8890       ?SetNbTriggerPairs@@YAXPEAVPxSimulationStatistics@physx@@W4Enum@PxGeometryType@2@1I@Z 00000001800c9890 f i PxMetaDataObjects.obj
 0001:000c88b0       ?SetProjectionPlane@@YAXPEAVPxParticleBase@physx@@UPxMetaDataPlane@2@@Z 00000001800c98b0 f i PxMetaDataObjects.obj
 0001:000c88c2       nvtxRangePushEx            00000001800c98c2 f   nvToolsExt64_1:nvToolsExt64_1.dll
 0001:000c88c8       nvtxRangePop               00000001800c98c8 f   nvToolsExt64_1:nvToolsExt64_1.dll
 0001:000c88ce       nvtxRangeStartEx           00000001800c98ce f   nvToolsExt64_1:nvToolsExt64_1.dll
 0001:000c88d4       nvtxRangeEnd               00000001800c98d4 f   nvToolsExt64_1:nvToolsExt64_1.dll
 0001:000c88da       GetModuleFileNameA         00000001800c98da f   kernel32:KERNEL32.dll
 0001:000c88e0       LoadLibraryA               00000001800c98e0 f   kernel32:KERNEL32.dll
 0001:000c88f0       ?PxvInit@physx@@YAXAEBUPxvOffsetTable@1@@Z 00000001800c98f0 f   LowLevelCHECKED:px_globals.obj
 0001:000c8930       ?PxvTerm@physx@@YAXXZ      00000001800c9930 f   LowLevelCHECKED:px_globals.obj
 0001:000c8940       ?PxvRegisterArticulations@physx@@YAXXZ 00000001800c9940 f   LowLevelCHECKED:px_globals.obj
 0001:000c8980       ?PxvRegisterHeightFields@physx@@YAXXZ 00000001800c9980 f   LowLevelCHECKED:px_globals.obj
 0001:000c8a00       ?PxvRegisterLegacyHeightFields@physx@@YAXXZ 00000001800c9a00 f   LowLevelCHECKED:px_globals.obj
 0001:000c8a70       ?PxvRegisterParticles@physx@@YAXXZ 00000001800c9a70 f   LowLevelCHECKED:px_globals.obj
 0001:000c8ae0       ?PxcPoolMallocInit@@YAXXZ  00000001800c9ae0 f   LowLevelCHECKED:PxcPoolMalloc.obj
 0001:000c8b20       ?PxcPoolMallocTerm@@YAXXZ  00000001800c9b20 f   LowLevelCHECKED:PxcPoolMalloc.obj
 0001:000c8ba0       ?PxcPoolMalloc@@YAPEAX_K@Z 00000001800c9ba0 f   LowLevelCHECKED:PxcPoolMalloc.obj
 0001:000c8cd0       ?PxcPoolFree@@YAXPEAX_K@Z  00000001800c9cd0 f   LowLevelCHECKED:PxcPoolMalloc.obj
 0001:000c8eb0       ??0PxcPoolMallocData@@QEAA@XZ 00000001800c9eb0 f i LowLevelCHECKED:PxcPoolMalloc.obj
 0001:000c90f0       ??1?$PoolBase@UPoolData16@PxcPoolMallocData@@VNamedAllocator@shdfnd@physx@@@shdfnd@physx@@QEAA@XZ 00000001800ca0f0 f i LowLevelCHECKED:PxcPoolMalloc.obj
 0001:000c9210       ??1?$PoolBase@UPoolData32@PxcPoolMallocData@@VNamedAllocator@shdfnd@physx@@@shdfnd@physx@@QEAA@XZ 00000001800ca210 f i LowLevelCHECKED:PxcPoolMalloc.obj
 0001:000c9330       ??1?$PoolBase@UPoolData8@PxcPoolMallocData@@VNamedAllocator@shdfnd@physx@@@shdfnd@physx@@QEAA@XZ 00000001800ca330 f i LowLevelCHECKED:PxcPoolMalloc.obj
 0001:000c9450       ?allocate@?$PoolBase@UPoolData32@PxcPoolMallocData@@VNamedAllocator@shdfnd@physx@@@shdfnd@physx@@QEAAPEAUPoolData32@PxcPoolMallocData@@XZ 00000001800ca450 f i LowLevelCHECKED:PxcPoolMalloc.obj
 0001:000c94c0       ?allocateSlab@?$PoolBase@UPoolData16@PxcPoolMallocData@@VNamedAllocator@shdfnd@physx@@@shdfnd@physx@@IEAAXXZ 00000001800ca4c0 f i LowLevelCHECKED:PxcPoolMalloc.obj
 0001:000c95b0       ?allocateSlab@?$PoolBase@UPoolData32@PxcPoolMallocData@@VNamedAllocator@shdfnd@physx@@@shdfnd@physx@@IEAAXXZ 00000001800ca5b0 f i LowLevelCHECKED:PxcPoolMalloc.obj
 0001:000c96a0       ?allocateSlab@?$PoolBase@UPoolData8@PxcPoolMallocData@@VNamedAllocator@shdfnd@physx@@@shdfnd@physx@@IEAAXXZ 00000001800ca6a0 f i LowLevelCHECKED:PxcPoolMalloc.obj
 0001:000c9790       ?deallocate@?$PoolBase@UPoolData32@PxcPoolMallocData@@VNamedAllocator@shdfnd@physx@@@shdfnd@physx@@QEAAXPEAUPoolData32@PxcPoolMallocData@@@Z 00000001800ca790 f i LowLevelCHECKED:PxcPoolMalloc.obj
 0001:000c9800       ?disposeElements@?$PoolBase@UPoolData16@PxcPoolMallocData@@VNamedAllocator@shdfnd@physx@@@shdfnd@physx@@IEAAXXZ 00000001800ca800 f i LowLevelCHECKED:PxcPoolMalloc.obj
 0001:000c99e0       ?disposeElements@?$PoolBase@UPoolData32@PxcPoolMallocData@@VNamedAllocator@shdfnd@physx@@@shdfnd@physx@@IEAAXXZ 00000001800ca9e0 f i LowLevelCHECKED:PxcPoolMalloc.obj
 0001:000c9bc0       ?disposeElements@?$PoolBase@UPoolData8@PxcPoolMallocData@@VNamedAllocator@shdfnd@physx@@@shdfnd@physx@@IEAAXXZ 00000001800cabc0 f i LowLevelCHECKED:PxcPoolMalloc.obj
 0001:000c9da0       ?releaseEmptySlabs@?$PoolBase@UPoolData16@PxcPoolMallocData@@VNamedAllocator@shdfnd@physx@@@shdfnd@physx@@IEAAXXZ 00000001800cada0 f i LowLevelCHECKED:PxcPoolMalloc.obj
 0001:000ca120       ?releaseEmptySlabs@?$PoolBase@UPoolData32@PxcPoolMallocData@@VNamedAllocator@shdfnd@physx@@@shdfnd@physx@@IEAAXXZ 00000001800cb120 f i LowLevelCHECKED:PxcPoolMalloc.obj
 0001:000ca4a0       ?releaseEmptySlabs@?$PoolBase@UPoolData8@PxcPoolMallocData@@VNamedAllocator@shdfnd@physx@@@shdfnd@physx@@IEAAXXZ 00000001800cb4a0 f i LowLevelCHECKED:PxcPoolMalloc.obj
 0001:000ca820       ?computeUnconstrainedVelocities@PxcArticulationHelper@physx@@SAIAEBUPxcArticulationSolverDesc@2@MAEAVPxcConstraintBlockStream@2@PEAUPxcSolverConstraintDesc@2@AEAIAEAVEventProfiler@Cm@2@AEAVPxsConstraintBlockManager@2@@Z 00000001800cb820 f   LowLevelCHECKED:PxcArticulationHelper.obj
 0001:000cba70       ?updateBodies@PxcArticulationHelper@physx@@SAXAEBUPxcArticulationSolverDesc@2@M@Z 00000001800cca70 f   LowLevelCHECKED:PxcArticulationHelper.obj
 0001:000cc5d0       ?getImpulseResponse@PxcArticulationHelper@physx@@SAXAEBUPxcFsData@2@IAEBUPxcSIMDSpatial@2@AEAU42@@Z 00000001800cd5d0 f   LowLevelCHECKED:PxcArticulationHelper.obj
 0001:000cca30       ?getImpulseSelfResponse@PxcArticulationHelper@physx@@SAXAEBUPxcFsData@2@IAEBUPxcSIMDSpatial@2@AEAU42@I12@Z 00000001800cda30 f   LowLevelCHECKED:PxcArticulationHelper.obj
 0001:000cd180       ?saveVelocity@PxcArticulationHelper@physx@@SAXAEBUPxcArticulationSolverDesc@2@@Z 00000001800ce180 f   LowLevelCHECKED:PxcArticulationHelper.obj
 0001:000cd310       ?getDataSizes@PxcArticulationHelper@physx@@SAXIAEAI00@Z 00000001800ce310 f   LowLevelCHECKED:PxcArticulationHelper.obj
 0001:000cd350       ?initializeDriveCache@PxcArticulationHelper@physx@@SAXAEAUPxcFsData@2@GPEBUPxsArticulationLink@2@MIPEADI@Z 00000001800ce350 f   LowLevelCHECKED:PxcArticulationHelper.obj
 0001:000cd580       ?applyImpulses@PxcArticulationHelper@physx@@SAXAEBUPxcFsData@2@PEAUPxcSIMDSpatial@2@1@Z 00000001800ce580 f   LowLevelCHECKED:PxcArticulationHelper.obj
 0001:000cd980       ?getLtbDataSize@PxcArticulationHelper@physx@@CAII@Z 00000001800ce980 f   LowLevelCHECKED:PxcArticulationHelper.obj
 0001:000cd990       ?getFsDataSize@PxcArticulationHelper@physx@@CAII@Z 00000001800ce990 f   LowLevelCHECKED:PxcArticulationHelper.obj
 0001:000cd9b0       ?prepareDataBlock@PxcArticulationHelper@physx@@CAXAEAUPxcFsData@2@PEBUPxsArticulationLink@2@GPEAVPxTransform@2@PEAUPxcFsInertia@2@PEAUPxcArticulationJointTransforms@2@I@Z 00000001800ce9b0 f   LowLevelCHECKED:PxcArticulationHelper.obj
 0001:000cdf10       ?setInertia@PxcArticulationHelper@physx@@CAXAEAUPxcFsInertia@2@AEBUPxsBodyCore@2@AEBVPxTransform@2@@Z 00000001800cef10 f   LowLevelCHECKED:PxcArticulationHelper.obj
 0001:000ce410       ?setJointTransforms@PxcArticulationHelper@physx@@CAXAEAUPxcArticulationJointTransforms@2@AEBVPxTransform@2@1AEBUPxsArticulationJointCore@2@@Z 00000001800cf410 f   LowLevelCHECKED:PxcArticulationHelper.obj
 0001:000ce8c0       ?prepareLtbMatrix@PxcArticulationHelper@physx@@CAXAEAUPxcFsData@2@PEBUPxcFsInertia@2@PEBVPxTransform@2@PEBUPxcArticulationJointTransforms@2@M@Z 00000001800cf8c0 f   LowLevelCHECKED:PxcArticulationHelper.obj
 0001:000ced00       ?prepareFsData@PxcArticulationHelper@physx@@CAXAEAUPxcFsData@2@PEBUPxsArticulationLink@2@@Z 00000001800cfd00 f   LowLevelCHECKED:PxcArticulationHelper.obj
 0001:000ceee0       ?createHardLimit@PxcArticulationHelper@physx@@CAXAEBUPxcFsData@2@PEBUPxsArticulationLink@2@IAEAUPxcSolverConstraint1DExt@2@AEBVPxVec3@2@MM@Z 00000001800cfee0 f   LowLevelCHECKED:PxcArticulationHelper.obj
 0001:000cf0d0       ?createTangentialSpring@PxcArticulationHelper@physx@@CAXAEBUPxcFsData@2@PEBUPxsArticulationLink@2@IAEAUPxcSolverConstraint1DExt@2@AEBVPxVec3@2@MMM@Z 00000001800d00d0 f   LowLevelCHECKED:PxcArticulationHelper.obj
 0001:000cf2f0       ?setupSolverConstraints@PxcArticulationHelper@physx@@CAIAEAUPxcFsData@2@IAEAVPxcConstraintBlockStream@2@PEAUPxcSolverConstraintDesc@2@PEBUPxsArticulationLink@2@PEBUPxcArticulationJointTransforms@2@MAEAIAEAVPxsConstraintBlockManager@2@@Z 00000001800d02f0 f   LowLevelCHECKED:PxcArticulationHelper.obj
 0001:000cfd10       ?computeJointDrives@PxcArticulationHelper@physx@@CAXAEAUPxcFsData@2@PEAT__m128@@PEBUPxsArticulationLink@2@PEBVPxTransform@2@PEBUPxcArticulationJointTransforms@2@PEBUMat33V@aos@shdfnd@2@M@Z 00000001800d0d10 f   LowLevelCHECKED:PxcArticulationHelper.obj
 0001:000d0280       ?PxcLtbFactor@physx@@YAXAEAUPxcFsData@1@@Z 00000001800d1280 f   LowLevelCHECKED:PxcArticulationHelper.obj
 0001:000d1890       ?PxcLtbSolve@physx@@YAXAEBUPxcFsData@1@PEAT__m128@@PEAUPxcSIMDSpatial@1@@Z 00000001800d2890 f   LowLevelCHECKED:PxcArticulationHelper.obj
 0001:000d1e90       ?PxcLtbProject@physx@@YAXAEBUPxcFsData@1@PEAUPxcSIMDSpatial@1@PEAT__m128@@@Z 00000001800d2e90 f   LowLevelCHECKED:PxcArticulationHelper.obj
 0001:000d1f10       ?PxcFsPropagateDrivenInertiaSimd@physx@@YAXAEAUPxcFsData@1@PEBUPxcFsInertia@1@PEBMPEBUMat33V@aos@shdfnd@1@UPxcFsScratchAllocator@1@@Z 00000001800d2f10 f   LowLevelCHECKED:PxcArticulationHelper.obj
 0001:000d3430       ?PxcFsApplyJointDrives@physx@@YAXAEAUPxcFsData@1@PEBT__m128@@@Z 00000001800d4430 f   LowLevelCHECKED:PxcArticulationHelper.obj
 0001:000d3880       ?getImpulseResponseSlow@physx@@YAXAEBUPxcFsData@1@IAEBUPxcSIMDSpatial@1@AEAU31@I12@Z 00000001800d4880 f   LowLevelCHECKED:PxcArticulationHelper.obj
 0001:000d3f20       ?PxcFsGetImpulseResponse@physx@@YAXAEBUPxcFsData@1@IAEBUPxcSIMDSpatial@1@AEAU31@@Z 00000001800d4f20 f   LowLevelCHECKED:PxcArticulationHelper.obj
 0001:000d4260       ?PxcFsGetImpulseSelfResponse@physx@@YAXAEBUPxcFsData@1@IAEBUPxcSIMDSpatial@1@AEAU31@I12@Z 00000001800d5260 f   LowLevelCHECKED:PxcArticulationHelper.obj
 0001:000d4480       ?PxcLtbComputeJv@physx@@YAXPEAT__m128@@AEBUPxcFsData@1@PEBUPxcSIMDSpatial@1@@Z 00000001800d5480 f   LowLevelCHECKED:PxcArticulationHelper.obj
 0001:000d4550       ?PxcFsComputeJointLoadsSimd@physx@@YAXAEBUPxcFsData@1@PEIBUPxcFsInertia@1@PEIAUMat33V@aos@shdfnd@1@PEIBMIIUPxcFsScratchAllocator@1@@Z 00000001800d5550 f   LowLevelCHECKED:PxcArticulationHelper.obj
 0001:000daad0       ??0PxcSIMDSpatial@physx@@QEAA@XZ 00000001800dbad0 f i LowLevelCHECKED:PxcArticulationHelper.obj
 0001:000daae0       ??1SpatialVector@Cm@physx@@QEAA@XZ 00000001800dbae0 f i LowLevelCHECKED:PxcArticulationHelper.obj
 0001:000daaf0       ?ellipseClamp@shdfnd@physx@@YA?AVPxVec3@2@AEBV32@0@Z 00000001800dbaf0 f i LowLevelCHECKED:PxcArticulationHelper.obj
 0001:000daea0       ?exp@shdfnd@physx@@YA?AVPxQuat@2@AEBVPxVec3@2@@Z 00000001800dbea0 f i LowLevelCHECKED:PxcArticulationHelper.obj
 0001:000db010       ?getLimit@ConeLimitHelper@Cm@physx@@QEAA_NAEBVPxQuat@3@AEAVPxVec3@3@AEAM@Z 00000001800dc010 f i LowLevelCHECKED:PxcArticulationHelper.obj
 0001:000db520       ?log@shdfnd@physx@@YA?AVPxVec3@2@AEBVPxQuat@2@@Z 00000001800dc520 f i LowLevelCHECKED:PxcArticulationHelper.obj
 0001:000db6f0       ?propagateVelocity@?$PxcArticulationFnsSimd@VPxcArticulationFnsSimdBase@physx@@@physx@@SA?AUPxcSIMDSpatial@2@AEBUPxcFsRow@2@AEBUPxcFsJointVectors@2@AEBT__m128@@AEBU32@AEBUPxcFsRowAux@2@@Z 00000001800dc6f0 f i LowLevelCHECKED:PxcArticulationHelper.obj
 0001:000db940       ?create@PxsSolverCoreGeneral@physx@@SAPEAV12@XZ 00000001800dc940 f   LowLevelCHECKED:PxsSolverCoreGeneral.obj
 0001:000db980       ?destroyV@PxsSolverCoreGeneral@physx@@UEAAXXZ 00000001800dc980 f   LowLevelCHECKED:PxsSolverCoreGeneral.obj
 0001:000db9b0       ?solveV@PxsSolverCoreGeneral@physx@@UEBAXMIIPEIAUPxcSolverBody@2@PEIAUPxcSolverBodyData@2@IIPEIAUPxcArticulationSolverDesc@2@IPEIAUPxcSolverConstraintDesc@2@I3IPEIAVSpatialVector@Cm@2@@Z 00000001800dc9b0 f   LowLevelCHECKED:PxsSolverCoreGeneral.obj
 0001:000dbc90       ?solveVCoulomb@PxsSolverCoreGeneral@physx@@UEBAXMIIPEIAUPxcSolverBody@2@PEIAUPxcSolverBodyData@2@IIPEIAUPxcArticulationSolverDesc@2@IPEIAUPxcSolverConstraintDesc@2@I3IPEIAVSpatialVector@Cm@2@@Z 00000001800dcc90 f   LowLevelCHECKED:PxsSolverCoreGeneral.obj
 0001:000dc060       ?solveVParallelAndWriteBack@PxsSolverCoreGeneral@physx@@UEBAXMIIPEIAUPxcSolverBody@2@PEIAUPxcSolverBodyData@2@IIPEIAUPxcArticulationSolverDesc@2@IPEIAUPxcSolverConstraintDesc@2@IPEAH444PEIAUPxcThresholdStreamElement@2@I4AEBV?$Array@UPxsConstraintBatchHeader@physx@@VNamedAllocator@shdfnd@2@@shdfnd@2@6AEBV?$Array@IVNamedAllocator@shdfnd@physx@@@92@PEIAVSpatialVector@Cm@2@AEAHI@Z 00000001800dd060 f   LowLevelCHECKED:PxsSolverCoreGeneral.obj
 0001:000dccd0       ?solveVCoulombParallelAndWriteBack@PxsSolverCoreGeneral@physx@@UEBAXMIIPEIAUPxcSolverBody@2@PEIAUPxcSolverBodyData@2@IIPEIAUPxcArticulationSolverDesc@2@IPEIAUPxcSolverConstraintDesc@2@I3IPEAH4444PEIAUPxcThresholdStreamElement@2@I4AEAV?$Array@UPxsConstraintBatchHeader@physx@@VNamedAllocator@shdfnd@2@@shdfnd@2@6AEAV?$Array@IVNamedAllocator@shdfnd@physx@@@92@7PEIAVSpatialVector@Cm@2@AEAH9I@Z 00000001800ddcd0 f   LowLevelCHECKED:PxsSolverCoreGeneral.obj
 0001:000de000       ?solveV_Blocks@PxsSolverCoreGeneral@physx@@UEBAXMIIPEIAUPxcSolverBody@2@PEIAUPxcSolverBodyData@2@IIPEIAUPxcArticulationSolverDesc@2@IPEIAUPxcSolverConstraintDesc@2@I3IAEAV?$Array@UPxsConstraintBatchHeader@physx@@VNamedAllocator@shdfnd@2@@shdfnd@2@4PEIAVSpatialVector@Cm@2@PEIAUPxcThresholdStreamElement@2@IAEAI@Z 00000001800df000 f   LowLevelCHECKED:PxsSolverCoreGeneral.obj
 0001:000de740       ?solveVCoulomb_Blocks@PxsSolverCoreGeneral@physx@@UEBAXMIIPEIAUPxcSolverBody@2@PEIAUPxcSolverBodyData@2@IIPEIAUPxcArticulationSolverDesc@2@IPEIAUPxcSolverConstraintDesc@2@I3IAEAV?$Array@UPxsConstraintBatchHeader@physx@@VNamedAllocator@shdfnd@2@@shdfnd@2@4PEIAVSpatialVector@Cm@2@PEIAUPxcThresholdStreamElement@2@IAEAI@Z 00000001800df740 f   LowLevelCHECKED:PxsSolverCoreGeneral.obj
 0001:000df110       ?writeBackV@PxsSolverCoreGeneral@physx@@UEBAXPEIBUPxcSolverConstraintDesc@2@IPEIAUPxcThresholdStreamElement@2@IAEAIPEAUPxcSolverBodyData@2@QEAP6AXAEBU32@AEAUPxcSolverContext@2@AEAU52@6@Z@Z 00000001800e0110 f   LowLevelCHECKED:PxsSolverCoreGeneral.obj
 0001:000df210       ?writeBackV@PxsSolverCoreGeneral@physx@@UEBAXPEIBUPxcSolverConstraintDesc@2@IPEAUPxsConstraintBatchHeader@2@IPEIAUPxcThresholdStreamElement@2@IAEAIPEAUPxcSolverBodyData@2@QEAP6AXPEBU32@IAEAUPxcSolverContext@2@2IPEAH@Z@Z 00000001800e0210 f   LowLevelCHECKED:PxsSolverCoreGeneral.obj
 0001:000df300       ?solveVDefaultFriction@physx@@YAXPEAVPxsSolverCore@1@MIIPEIAUPxcSolverBody@1@PEIAUPxcSolverBodyData@1@IIPEIAUPxcArticulationSolverDesc@1@IPEIAUPxcSolverConstraintDesc@1@I4IPEIAVSpatialVector@Cm@1@@Z 00000001800e0300 f   LowLevelCHECKED:PxsSolverCoreGeneral.obj
 0001:000df310       ?solveVCoulombFriction@physx@@YAXPEAVPxsSolverCore@1@MIIPEIAUPxcSolverBody@1@PEIAUPxcSolverBodyData@1@IIPEIAUPxcArticulationSolverDesc@1@IPEIAUPxcSolverConstraintDesc@1@I4IPEIAVSpatialVector@Cm@1@@Z 00000001800e0310 f   LowLevelCHECKED:PxsSolverCoreGeneral.obj
 0001:000df320       ?solveVBlockDefaultFriction@physx@@YAXPEAVPxsSolverCore@1@MIIPEIAUPxcSolverBody@1@PEIAUPxcSolverBodyData@1@IIPEIAUPxcArticulationSolverDesc@1@IPEIAUPxcSolverConstraintDesc@1@I4IAEAV?$Array@UPxsConstraintBatchHeader@physx@@VNamedAllocator@shdfnd@2@@shdfnd@1@5PEIAVSpatialVector@Cm@1@PEIAUPxcThresholdStreamElement@1@IAEAI@Z 00000001800e0320 f   LowLevelCHECKED:PxsSolverCoreGeneral.obj
 0001:000df400       ?solveVBlockCoulombFriction@physx@@YAXPEAVPxsSolverCore@1@MIIPEIAUPxcSolverBody@1@PEIAUPxcSolverBodyData@1@IIPEIAUPxcArticulationSolverDesc@1@IPEIAUPxcSolverConstraintDesc@1@I4IAEAV?$Array@UPxsConstraintBatchHeader@physx@@VNamedAllocator@shdfnd@2@@shdfnd@1@5PEIAVSpatialVector@Cm@1@PEIAUPxcThresholdStreamElement@1@IAEAI@Z 00000001800e0400 f   LowLevelCHECKED:PxsSolverCoreGeneral.obj
 0001:000df4e0       ?PxsSolverCoreRegisterArticulationFns@physx@@YAXXZ 00000001800e04e0 f   LowLevelCHECKED:PxsSolverCoreGeneral.obj
 0001:000e0540       ??$SolveBlockParallel@$0A@@@YAXPEIAUPxcSolverConstraintDesc@physx@@HHHAEAUPxcSolverContext@1@AEAVPxsBatchIterator@@QEAP6AXPEBU01@I1@ZHHH@Z 00000001800e1540 f i LowLevelCHECKED:PxsSolverCoreGeneral.obj
 0001:000e0690       ??$SolveWriteBackBlockParallel@$0A@@@YAXPEIAUPxcSolverConstraintDesc@physx@@HHHAEAUPxcSolverContext@1@PEIAUPxcThresholdStreamElement@1@IPEAHAEAVPxsBatchIterator@@HHHQEAP6AXPEBU01@I12I3@Z@Z 00000001800e1690 f i LowLevelCHECKED:PxsSolverCoreGeneral.obj
 0001:000e0830       ??1PxsSolverCore@physx@@UEAA@XZ 00000001800e1830 f i LowLevelCHECKED:PxsSolverCoreGeneral.obj
 0001:000e0840       ??_GPxsSolverCore@physx@@UEAAPEAXI@Z 00000001800e1840 f i LowLevelCHECKED:PxsSolverCoreGeneral.obj
 0001:000e0840       ??_EPxsSolverCore@physx@@UEAAPEAXI@Z 00000001800e1840 f i LowLevelCHECKED:PxsSolverCoreGeneral.obj
 0001:000e0880       ??_GPxsSolverCoreGeneral@physx@@UEAAPEAXI@Z 00000001800e1880 f i LowLevelCHECKED:PxsSolverCoreGeneral.obj
 0001:000e0880       ??_EPxsSolverCoreGeneral@physx@@UEAAPEAXI@Z 00000001800e1880 f i LowLevelCHECKED:PxsSolverCoreGeneral.obj
 0001:000e08c0       ??0PxsContext@physx@@QEAA@AEBVPxSceneDesc@1@PEAVPxTaskManager@1@PEAVFlushPool@Cm@1@AEAVEventProfiler@51@I@Z 00000001800e18c0 f   LowLevelCHECKED:PxsContext.obj
 0001:000e1150       ??1PxsContext@physx@@QEAA@XZ 00000001800e2150 f   LowLevelCHECKED:PxsContext.obj
 0001:000e15c0       ?preAllocate@PxsContext@physx@@QEAAXIIII@Z 00000001800e25c0 f   LowLevelCHECKED:PxsContext.obj
 0001:000e1660       ?createArticulation@PxsContext@physx@@QEAAPEAVPxsArticulation@2@XZ 00000001800e2660 f   LowLevelCHECKED:PxsContext.obj
 0001:000e1670       ?destroyArticulation@PxsContext@physx@@QEAAXAEAVPxsArticulation@2@@Z 00000001800e2670 f   LowLevelCHECKED:PxsContext.obj
 0001:000e1680       ?registerParticles@PxsContext@physx@@SAXXZ 00000001800e2680 f   LowLevelCHECKED:PxsContext.obj
 0001:000e16b0       ?addParticleSystem@PxsContext@physx@@QEAAPEAVPxvParticleSystemSim@2@PEAVPxsParticleData@2@AEBUPxvParticleSystemParameter@2@_N@Z 00000001800e26b0 f   LowLevelCHECKED:PxsContext.obj
 0001:000e16c0       ?removeParticleSystem@PxsContext@physx@@QEAAPEAVPxsParticleData@2@PEAVPxvParticleSystemSim@2@_N@Z 00000001800e26c0 f   LowLevelCHECKED:PxsContext.obj
 0001:000e16d0       ?createContactManager@PxsContext@physx@@QEAAPEAVPxsContactManager@2@AEBUPxvManagerDescRigidRigid@2@PEAVPxsMaterialManager@2@@Z 00000001800e26d0 f   LowLevelCHECKED:PxsContext.obj
 0001:000e1950       ?destroyContactManager@PxsContext@physx@@QEAAXPEAVPxsContactManager@2@@Z 00000001800e2950 f   LowLevelCHECKED:PxsContext.obj
 0001:000e1a90       ?onShapeChange@PxsContext@physx@@QEAAXAEBUPxsShapeCore@2@AEBUPxsRigidCore@2@_N@Z 00000001800e2a90 f   LowLevelCHECKED:PxsContext.obj
 0001:000e1aa0       ?getSolverBatchSize@PxsContext@physx@@QEBAIXZ 00000001800e2aa0 f   LowLevelCHECKED:PxsContext.obj
 0001:000e1ac0       ?setSolverBatchSize@PxsContext@physx@@QEAAXI@Z 00000001800e2ac0 f   LowLevelCHECKED:PxsContext.obj
 0001:000e1ae0       ?getCCDContactModifyCallback@PxsContext@physx@@QEBAPEAVPxCCDContactModifyCallback@2@XZ 00000001800e2ae0 f   LowLevelCHECKED:PxsContext.obj
 0001:000e1b00       ?setCCDContactModifyCallback@PxsContext@physx@@QEAAXPEAVPxCCDContactModifyCallback@2@@Z 00000001800e2b00 f   LowLevelCHECKED:PxsContext.obj
 0001:000e1b20       ?getCCDMaxPasses@PxsContext@physx@@QEBAIXZ 00000001800e2b20 f   LowLevelCHECKED:PxsContext.obj
 0001:000e1b40       ?setCCDMaxPasses@PxsContext@physx@@QEAAXI@Z 00000001800e2b40 f   LowLevelCHECKED:PxsContext.obj
 0001:000e1b60       ?getCurrentCCDPass@PxsContext@physx@@QEBAIXZ 00000001800e2b60 f   LowLevelCHECKED:PxsContext.obj
 0001:000e1b80       ?getNumSweepHits@PxsContext@physx@@QEBAHXZ 00000001800e2b80 f   LowLevelCHECKED:PxsContext.obj
 0001:000e1ba0       ?setBounceThreshold@PxsContext@physx@@QEAAXM@Z 00000001800e2ba0 f   LowLevelCHECKED:PxsContext.obj
 0001:000e1bc0       ?getBounceThreshold@PxsContext@physx@@QEBAMXZ 00000001800e2bc0 f   LowLevelCHECKED:PxsContext.obj
 0001:000e1be0       ?setScratchBlock@PxsContext@physx@@QEAAXPEAXI@Z 00000001800e2be0 f   LowLevelCHECKED:PxsContext.obj
 0001:000e1c40       ?updateBroadPhase@PxsContext@physx@@QEAAXPEAVPxBaseTask@2@_N@Z 00000001800e2c40 f   LowLevelCHECKED:PxsContext.obj
 0001:000e1ce0       ?updateContactManager@PxsContext@physx@@QEAAXMPEAVPxBaseTask@2@@Z 00000001800e2ce0 f   LowLevelCHECKED:PxsContext.obj
 0001:000e20e0       ?secondPassUpdateContactManager@PxsContext@physx@@QEAAXMPEAUNarrowPhaseContactManager@2@IPEAVPxBaseTask@2@@Z 00000001800e30e0 f   LowLevelCHECKED:PxsContext.obj
 0001:000e2430       ?swapStreams@PxsContext@physx@@QEAAXXZ 00000001800e3430 f   LowLevelCHECKED:PxsContext.obj
 0001:000e2440       ?runModifiableContactManagers@PxsContext@physx@@QEAAXXZ 00000001800e3440 f   LowLevelCHECKED:PxsContext.obj
 0001:000e2ba0       ?updateIslands@PxsContext@physx@@QEAAXMPEAVPxBaseTask@2@@Z 00000001800e3ba0 f   LowLevelCHECKED:PxsContext.obj
 0001:000e2d90       ?updateDynamics@PxsContext@physx@@QEAAXMPEAVPxBaseTask@2@AEAVPxsMaterialManager@2@@Z 00000001800e3d90 f   LowLevelCHECKED:PxsContext.obj
 0001:000e2fa0       ?resetThreadContexts@PxsContext@physx@@QEAAXXZ 00000001800e3fa0 f   LowLevelCHECKED:PxsContext.obj
 0001:000e3050       ?getManagerTouchEventCount@PxsContext@physx@@QEBA_NPEAH00@Z 00000001800e4050 f   LowLevelCHECKED:PxsContext.obj
 0001:000e3090       ?fillManagerTouchEvents@PxsContext@physx@@QEAA_NPEAUPxvContactManagerTouchEvent@2@AEAH0101@Z 00000001800e4090 f   LowLevelCHECKED:PxsContext.obj
 0001:000e3220       ?beginUpdate@PxsContext@physx@@QEAAXXZ 00000001800e4220 f   LowLevelCHECKED:PxsContext.obj
 0001:000e3240       ?getVisualizationParameter@PxsContext@physx@@QEBAMW4Enum@PxVisualizationParameter@2@@Z 00000001800e4240 f   LowLevelCHECKED:PxsContext.obj
 0001:000e3260       ?setVisualizationParameter@PxsContext@physx@@QEAAXW4Enum@PxVisualizationParameter@2@M@Z 00000001800e4260 f   LowLevelCHECKED:PxsContext.obj
 0001:000e3280       ?shiftOrigin@PxsContext@physx@@QEAAXAEBVPxVec3@2@@Z 00000001800e4280 f   LowLevelCHECKED:PxsContext.obj
 0001:000e3770       ?createFluidShape@PxsContext@physx@@QEAAPEAVPxsParticleShape@2@PEAVPxsParticleSystemSim@2@PEBUPxsParticleCell@2@@Z 00000001800e4770 f   LowLevelCHECKED:PxsContext.obj
 0001:000e3830       ?releaseFluidShape@PxsContext@physx@@QEAAXPEAVPxsParticleShape@2@@Z 00000001800e4830 f   LowLevelCHECKED:PxsContext.obj
 0001:000e38b0       ?setCreateContactStream@PxsContext@physx@@QEAAX_N@Z 00000001800e48b0 f   LowLevelCHECKED:PxsContext.obj
 0001:000e3940       ?updateCCDBegin@PxsContext@physx@@QEAAXXZ 00000001800e4940 f   LowLevelCHECKED:PxsContext.obj
 0001:000e3950       ?updateCCD@PxsContext@physx@@QEAAXMPEAVPxBaseTask@2@_N@Z 00000001800e4950 f   LowLevelCHECKED:PxsContext.obj
 0001:000e3960       ?addThreadStats@PxsContext@physx@@QEAAXAEBUThreadSimStats@PxsThreadContext@2@@Z 00000001800e4960 f   LowLevelCHECKED:PxsContext.obj
 0001:000e3990       ?prepareCMDiscreteUpdate@PxsContext@physx@@AEAAXPEAVPxBaseTask@2@@Z 00000001800e4990 f   LowLevelCHECKED:PxsContext.obj
 0001:000e3c30       ?mergeCMDiscreteUpdateResults@PxsContext@physx@@AEAAXPEAVPxBaseTask@2@@Z 00000001800e4c30 f   LowLevelCHECKED:PxsContext.obj
 0001:000e3fb0       ?processContactManager@PxsContext@physx@@AEAAIPEAVPxsContactManager@2@IPEAX@Z 00000001800e4fb0 f   LowLevelCHECKED:PxsContext.obj
 0001:000e3fd0       ?addParticleSystemImpl@PxsContext@physx@@AEAAPEAVPxvParticleSystemSim@2@PEAVPxsParticleData@2@AEBUPxvParticleSystemParameter@2@_N@Z 00000001800e4fd0 f   LowLevelCHECKED:PxsContext.obj
 0001:000e4070       ?removeParticleSystemImpl@PxsContext@physx@@AEAAPEAVPxsParticleData@2@PEAVPxvParticleSystemSim@2@_N@Z 00000001800e5070 f   LowLevelCHECKED:PxsContext.obj
 0001:000e4f00       ??$combine1@UOR@?$BitMapBase@VAllocator@shdfnd@physx@@@Cm@physx@@@?$BitMapBase@VAllocator@shdfnd@physx@@@Cm@physx@@IEAAXPEBII@Z 00000001800e5f00 f i LowLevelCHECKED:PxsContext.obj
 0001:000e5020       ??$pointerOffset@PEBVPxRigidActor@physx@@@shdfnd@physx@@YAPEBVPxRigidActor@1@PEBX_J@Z 00000001800e6020 f i LowLevelCHECKED:PxsContext.obj
 0001:000e5030       ??$pointerOffset@PEBVPxShape@physx@@@shdfnd@physx@@YAPEBVPxShape@1@PEBX_J@Z 00000001800e6030 f i LowLevelCHECKED:PxsContext.obj
 0001:000e5040       ??0PersistentContact@Gu@physx@@QEAA@XZ 00000001800e6040 f i LowLevelCHECKED:PxsContext.obj
 0001:000e5050       ??0PxTransform@physx@@QEAA@AEBV01@@Z 00000001800e6050 f i LowLevelCHECKED:PxsContext.obj
 0001:000e5090       ??0PxcScratchAllocator@physx@@QEAA@XZ 00000001800e6090 f i LowLevelCHECKED:PxsContext.obj
 0001:000e5220       ??0PxsTransformCache@physx@@QEAA@XZ 00000001800e6220 f i LowLevelCHECKED:PxsContext.obj
 0001:000e5380       ??1?$PoolBase@VLargePersistentContactManifold@Gu@physx@@VNamedAllocator@shdfnd@3@@shdfnd@physx@@QEAA@XZ 00000001800e6380 f i LowLevelCHECKED:PxsContext.obj
 0001:000e54a0       ??1?$PoolBase@VSpherePersistentContactManifold@Gu@physx@@VNamedAllocator@shdfnd@3@@shdfnd@physx@@QEAA@XZ 00000001800e64a0 f i LowLevelCHECKED:PxsContext.obj
 0001:000e55c0       ??1?$PxcThreadCoherantCache@VPxsThreadContext@physx@@@physx@@QEAA@XZ 00000001800e65c0 f i LowLevelCHECKED:PxsContext.obj
 0001:000e5670       ??1PxsCMDiscreteUpdateTask@@UEAA@XZ 00000001800e6670 f i LowLevelCHECKED:PxsContext.obj
 0001:000e5690       ??1PxsThreadContext@physx@@QEAA@XZ 00000001800e6690 f i LowLevelCHECKED:PxsContext.obj
 0001:000e5b80       ??1PxsTransformCache@physx@@QEAA@XZ 00000001800e6b80 f i LowLevelCHECKED:PxsContext.obj
 0001:000e5c30       ??_E?$DelegateTask@VPxsContext@physx@@$1?mergeCMDiscreteUpdateResults@12@AEAAXPEAVPxBaseTask@2@@Z@Cm@physx@@UEAAPEAXI@Z 00000001800e6c30 f i LowLevelCHECKED:PxsContext.obj
 0001:000e5c30       ??_G?$DelegateTask@VPxsContext@physx@@$1?mergeCMDiscreteUpdateResults@12@AEAAXPEAVPxBaseTask@2@@Z@Cm@physx@@UEAAPEAXI@Z 00000001800e6c30 f i LowLevelCHECKED:PxsContext.obj
 0001:000e5ca0       ??_G?$DelegateTask@VPxsContext@physx@@$1?prepareCMDiscreteUpdate@12@AEAAXPEAVPxBaseTask@2@@Z@Cm@physx@@UEAAPEAXI@Z 00000001800e6ca0 f i LowLevelCHECKED:PxsContext.obj
 0001:000e5ca0       ??_E?$DelegateTask@VPxsContext@physx@@$1?prepareCMDiscreteUpdate@12@AEAAXPEAVPxBaseTask@2@@Z@Cm@physx@@UEAAPEAXI@Z 00000001800e6ca0 f i LowLevelCHECKED:PxsContext.obj
 0001:000e5d10       ??_GPxsCMDiscreteUpdateTask@@UEAAPEAXI@Z 00000001800e6d10 f i LowLevelCHECKED:PxsContext.obj
 0001:000e5d10       ??_EPxsCMDiscreteUpdateTask@@UEAAPEAXI@Z 00000001800e6d10 f i LowLevelCHECKED:PxsContext.obj
 0001:000e5d50       ??_EPxsCMUpdateTask@@UEAAPEAXI@Z 00000001800e6d50 f i LowLevelCHECKED:PxsContext.obj
 0001:000e5d50       ??_GPxsCMUpdateTask@@UEAAPEAXI@Z 00000001800e6d50 f i LowLevelCHECKED:PxsContext.obj
 0001:000e5d90       ??__G@YAXPEAX0_K1P6APEAX00@Z@Z 00000001800e6d90 f i LowLevelCHECKED:PxsContext.obj
 0001:000e5e10       ?allocate@?$PoolBase@VLargePersistentContactManifold@Gu@physx@@VNamedAllocator@shdfnd@3@@shdfnd@physx@@QEAAPEAVLargePersistentContactManifold@Gu@3@XZ 00000001800e6e10 f i LowLevelCHECKED:PxsContext.obj
 0001:000e5ec0       ?allocate@?$PoolBase@VSpherePersistentContactManifold@Gu@physx@@VNamedAllocator@shdfnd@3@@shdfnd@physx@@QEAAPEAVSpherePersistentContactManifold@Gu@3@XZ 00000001800e6ec0 f i LowLevelCHECKED:PxsContext.obj
 0001:000e5f20       ?allocateSlab@?$PoolBase@VLargePersistentContactManifold@Gu@physx@@VNamedAllocator@shdfnd@3@@shdfnd@physx@@IEAAXXZ 00000001800e6f20 f i LowLevelCHECKED:PxsContext.obj
 0001:000e6010       ?allocateSlab@?$PoolBase@VSpherePersistentContactManifold@Gu@physx@@VNamedAllocator@shdfnd@3@@shdfnd@physx@@IEAAXXZ 00000001800e7010 f i LowLevelCHECKED:PxsContext.obj
 0001:000e6100       ?copy@?$Array@VPxContactModifyPair@physx@@VNamedAllocator@shdfnd@2@@shdfnd@physx@@KAXPEAVPxContactModifyPair@3@0PEBV43@@Z 00000001800e7100 f i LowLevelCHECKED:PxsContext.obj
 0001:000e6300       ?deallocate@?$PoolBase@VLargePersistentContactManifold@Gu@physx@@VNamedAllocator@shdfnd@3@@shdfnd@physx@@QEAAXPEAVLargePersistentContactManifold@Gu@3@@Z 00000001800e7300 f i LowLevelCHECKED:PxsContext.obj
 0001:000e6370       ?deallocate@?$PoolBase@VSpherePersistentContactManifold@Gu@physx@@VNamedAllocator@shdfnd@3@@shdfnd@physx@@QEAAXPEAVSpherePersistentContactManifold@Gu@3@@Z 00000001800e7370 f i LowLevelCHECKED:PxsContext.obj
 0001:000e63e0       ?destroy@?$PxcPoolList@VPxsContactManager@physx@@VPxsContext@2@@physx@@QEAAXXZ 00000001800e73e0 f i LowLevelCHECKED:PxsContext.obj
 0001:000e6500       ?destroy@?$PxcPoolList@VPxsParticleShape@physx@@VPxsContext@2@@physx@@QEAAXXZ 00000001800e7500 f i LowLevelCHECKED:PxsContext.obj
 0001:000e6620       ?destroy@?$PxcPoolList@VPxsParticleSystemSim@physx@@VPxsContext@2@@physx@@QEAAXXZ 00000001800e7620 f i LowLevelCHECKED:PxsContext.obj
 0001:000e6740       ?disposeElements@?$PoolBase@VLargePersistentContactManifold@Gu@physx@@VNamedAllocator@shdfnd@3@@shdfnd@physx@@IEAAXXZ 00000001800e7740 f i LowLevelCHECKED:PxsContext.obj
 0001:000e6920       ?disposeElements@?$PoolBase@VSpherePersistentContactManifold@Gu@physx@@VNamedAllocator@shdfnd@3@@shdfnd@physx@@IEAAXXZ 00000001800e7920 f i LowLevelCHECKED:PxsContext.obj
 0001:000e6b00       ?extend@?$BitMapBase@VAllocator@shdfnd@physx@@@Cm@physx@@IEAAXI@Z 00000001800e7b00 f i LowLevelCHECKED:PxsContext.obj
 0001:000e6bf0       ?extend@?$PxcPoolList@VPxsContactManager@physx@@VPxsContext@2@@physx@@QEAA_NXZ 00000001800e7bf0 f i LowLevelCHECKED:PxsContext.obj
 0001:000e6d40       ?extend@?$PxcPoolList@VPxsParticleShape@physx@@VPxsContext@2@@physx@@QEAA_NXZ 00000001800e7d40 f i LowLevelCHECKED:PxsContext.obj
 0001:000e6e90       ?extend@?$PxcPoolList@VPxsParticleSystemSim@physx@@VPxsContext@2@@physx@@QEAA_NXZ 00000001800e7e90 f i LowLevelCHECKED:PxsContext.obj
 0001:000e6fe0       ?get@?$PxcThreadCoherantCache@VPxsThreadContext@physx@@@physx@@QEAAPEAVPxsThreadContext@2@PEAVPxsContext@2@@Z 00000001800e7fe0 f i LowLevelCHECKED:PxsContext.obj
 0001:000e70d0       ?getName@?$DelegateTask@VPxsContext@physx@@$1?mergeCMDiscreteUpdateResults@12@AEAAXPEAVPxBaseTask@2@@Z@Cm@physx@@UEBAPEBDXZ 00000001800e80d0 f i LowLevelCHECKED:PxsContext.obj
 0001:000e70e0       ?getName@?$DelegateTask@VPxsContext@physx@@$1?prepareCMDiscreteUpdate@12@AEAAXPEAVPxBaseTask@2@@Z@Cm@physx@@UEBAPEBDXZ 00000001800e80e0 f i LowLevelCHECKED:PxsContext.obj
 0001:000e70f0       ?getName@PxsCMDiscreteUpdateTask@@UEBAPEBDXZ 00000001800e80f0 f i LowLevelCHECKED:PxsContext.obj
 0001:000e7850       ?recreate@?$Array@PEAEVNamedAllocator@shdfnd@physx@@@shdfnd@physx@@IEAAXI@Z 00000001800e8850 f i LowLevelCHECKED:PxsContext.obj
 0001:000e7930       ?recreate@?$Array@VPxContactModifyPair@physx@@VNamedAllocator@shdfnd@2@@shdfnd@physx@@IEAAXI@Z 00000001800e8930 f i LowLevelCHECKED:PxsContext.obj
 0001:000e79f0       ?recreate@?$Array@VPxTransform@physx@@VNamedAllocator@shdfnd@2@@shdfnd@physx@@IEAAXI@Z 00000001800e89f0 f i LowLevelCHECKED:PxsContext.obj
 0001:000e7ab0       ?release@PxsCMUpdateTask@@UEAAXXZ 00000001800e8ab0 f i LowLevelCHECKED:PxsContext.obj
 0001:000e7af0       ?releaseEmptySlabs@?$PoolBase@VLargePersistentContactManifold@Gu@physx@@VNamedAllocator@shdfnd@3@@shdfnd@physx@@IEAAXXZ 00000001800e8af0 f i LowLevelCHECKED:PxsContext.obj
 0001:000e7e70       ?releaseEmptySlabs@?$PoolBase@VSpherePersistentContactManifold@Gu@physx@@VNamedAllocator@shdfnd@3@@shdfnd@physx@@IEAAXXZ 00000001800e8e70 f i LowLevelCHECKED:PxsContext.obj
 0001:000e81f0       ?runInternal@?$DelegateTask@VPxsContext@physx@@$1?mergeCMDiscreteUpdateResults@12@AEAAXPEAVPxBaseTask@2@@Z@Cm@physx@@UEAAXXZ 00000001800e91f0 f i LowLevelCHECKED:PxsContext.obj
 0001:000e8200       ?runInternal@?$DelegateTask@VPxsContext@physx@@$1?prepareCMDiscreteUpdate@12@AEAAXPEAVPxBaseTask@2@@Z@Cm@physx@@UEAAXXZ 00000001800e9200 f i LowLevelCHECKED:PxsContext.obj
 0001:000e8210       ?runInternal@PxsCMDiscreteUpdateTask@@UEAAXXZ 00000001800e9210 f i LowLevelCHECKED:PxsContext.obj
 0001:000e87c0       ?PxcContactSphereHeightFieldShared@physx@@YA_NAEBVGeometryUnion@Gu@1@0AEBVPxTransform@1@1AEBMAEAUPxcNpCache@1@AEAVContactBuffer@31@_N@Z 00000001800e97c0 f   LowLevelCHECKED:PxcContactSphereHeightField.obj
 0001:000e9f70       ?PxcContactSphereHeightField@physx@@YA_NAEBVGeometryUnion@Gu@1@0AEBVPxTransform@1@1AEBMAEAUPxcNpCache@1@AEAVContactBuffer@31@@Z 00000001800eaf70 f   LowLevelCHECKED:PxcContactSphereHeightField.obj
 0001:000e9fb0       ?PxcContactSphereHeightFieldUnified@physx@@YA_NAEBVGeometryUnion@Gu@1@0AEBVPxTransform@1@1AEBMAEAUPxcNpCache@1@AEAVContactBuffer@31@@Z 00000001800eafb0 f   LowLevelCHECKED:PxcContactSphereHeightField.obj
 0001:000ea5c0       ?getEdgeTriangleIndices@HeightField@Gu@physx@@QEBAIIQEAI@Z 00000001800eb5c0 f i LowLevelCHECKED:PxcContactSphereHeightField.obj
 0001:000ea730       ?getHeightInternal2@HeightField@Gu@physx@@QEBAMIMM@Z 00000001800eb730 f i LowLevelCHECKED:PxcContactSphereHeightField.obj
 0001:000ea8f0       ?getNormal_2@HeightField@Gu@physx@@QEBA?AVPxVec3@3@IMMMMM@Z 00000001800eb8f0 f i LowLevelCHECKED:PxcContactSphereHeightField.obj
 0001:000eaa60       ?getTriangleNormalInternal@HeightField@Gu@physx@@QEBA?AVPxVec3@3@I@Z 00000001800eba60 f i LowLevelCHECKED:PxcContactSphereHeightField.obj
 0001:000eac20       ?PxcContactCapsuleHeightFieldUnified@physx@@YA_NAEBVGeometryUnion@Gu@1@0AEBVPxTransform@1@1AEBMAEAUPxcNpCache@1@AEAVContactBuffer@31@@Z 00000001800ebc20 f   LowLevelCHECKED:PxcContactCapsuleHeightField.obj
 0001:000eac30       ?PxcContactCapsuleHeightField@physx@@YA_NAEBVGeometryUnion@Gu@1@0AEBVPxTransform@1@1AEBMAEAUPxcNpCache@1@AEAVContactBuffer@31@@Z 00000001800ebc30 f   LowLevelCHECKED:PxcContactCapsuleHeightField.obj
 0001:000ed170       ?PxcContactBoxHeightFieldUnified@physx@@YA_NAEBVGeometryUnion@Gu@1@0AEBVPxTransform@1@1AEBMAEAUPxcNpCache@1@AEAVContactBuffer@31@@Z 00000001800ee170 f   LowLevelCHECKED:PxcContactBoxHeightField.obj
 0001:000ed180       ?PxcContactBoxHeightField@physx@@YA_NAEBVGeometryUnion@Gu@1@0AEBVPxTransform@1@1AEBMAEAUPxcNpCache@1@AEAVContactBuffer@31@@Z 00000001800ee180 f   LowLevelCHECKED:PxcContactBoxHeightField.obj
 0001:000ef190       ??$traceSegment@UPxcContactTraceSegmentCallback@physx@@$00$00$0A@@HeightFieldUtil@Gu@physx@@QEBAXAEBVPxVec3@2@0PEAUPxcContactTraceSegmentCallback@2@PEBV32@@Z 00000001800f0190 f i LowLevelCHECKED:PxcContactBoxHeightField.obj
 0001:000f0330       ?getInverse@PxMat33@physx@@QEBA?AV12@XZ 00000001800f1330 f i LowLevelCHECKED:PxcContactBoxHeightField.obj
 0001:000f0660       ?underFaceHit@PxcContactTraceSegmentCallback@physx@@QEAA_NAEBVHeightFieldUtil@Gu@2@AEBVPxVec3@2@1MMMI@Z 00000001800f1660 f i LowLevelCHECKED:PxcContactBoxHeightField.obj
 0001:000f0ad0       ?PxcContactConvexHeightFieldUnified@physx@@YA_NAEBVGeometryUnion@Gu@1@0AEBVPxTransform@1@1AEBMAEAUPxcNpCache@1@AEAVContactBuffer@31@@Z 00000001800f1ad0 f   LowLevelCHECKED:PxcContactConvexHeightField.obj
 0001:000f0ae0       ?PxcContactConvexHeightField@physx@@YA_NAEBVGeometryUnion@Gu@1@0AEBVPxTransform@1@1AEBMAEAUPxcNpCache@1@AEAVContactBuffer@31@@Z 00000001800f1ae0 f   LowLevelCHECKED:PxcContactConvexHeightField.obj
 0001:000f31c0       ??0ConvexEdge@Gu@physx@@QEAA@XZ 00000001800f41c0 f i LowLevelCHECKED:PxcContactConvexHeightField.obj
 0001:000f3580       ?init@FastVertex2ShapeScaling@Cm@physx@@QEAAXAEBVPxVec3@3@AEBVPxQuat@3@@Z 00000001800f4580 f i LowLevelCHECKED:PxcContactConvexHeightField.obj
 0001:000f3c60       ?PxcPCMContactSphereHeightField@physx@@YA_NAEBVGeometryUnion@Gu@1@0AEBVPxTransform@1@1AEBMAEAUPxcNpCache@1@AEAVContactBuffer@31@@Z 00000001800f4c60 f   LowLevelCHECKED:PxcPCMContactSphereHeightField.obj
 0001:000f3c70       ?PxcPCMContactCapsuleHeightField@physx@@YA_NAEBVGeometryUnion@Gu@1@0AEBVPxTransform@1@1AEBMAEAUPxcNpCache@1@AEAVContactBuffer@31@@Z 00000001800f4c70 f   LowLevelCHECKED:PxcPCMContactCapsuleHeightField.obj
 0001:000f3c80       ?PxcPCMContactBoxHeightField@physx@@YA_NAEBVGeometryUnion@Gu@1@0AEBVPxTransform@1@1AEBMAEAUPxcNpCache@1@AEAVContactBuffer@31@@Z 00000001800f4c80 f   LowLevelCHECKED:PxcPCMContactBoxHeightField.obj
 0001:000f3c90       ?PxcPCMContactConvexHeightField@physx@@YA_NAEBVGeometryUnion@Gu@1@0AEBVPxTransform@1@1AEBMAEAUPxcNpCache@1@AEAVContactBuffer@31@@Z 00000001800f4c90 f   LowLevelCHECKED:PxcPCMContactConvexHeightField.obj
 0001:000f3cb0       ?PxcInvalidSweptContactPair@physx@@YA_NAEBUPxsCCDShape@1@0PEBVPxsRigidBody@1@1AEBVPxTransform@1@222MAEAVPxVec3@1@3AEAUPxcNpCache@1@AEAVPxcNpThreadContext@1@M@Z 00000001800f4cb0 f   LowLevelCHECKED:PxcContactMethodImpl.obj
 0001:000f3cc0       ?PxcUnimplementedSweep@physx@@YAMAEBUPxsCCDShape@1@0PEBVPxsRigidBody@1@1AEBVPxTransform@1@222MAEAVPxVec3@1@3AEAUPxcNpCache@1@AEAVPxcNpThreadContext@1@M@Z 00000001800f4cc0 f   LowLevelCHECKED:PxcContactMethodImpl.obj
 0001:000f3ce0       ??0PxcNpMemBlockPool@physx@@QEAA@AEAVPxcScratchAllocator@1@@Z 00000001800f4ce0 f   LowLevelCHECKED:PxcNpMemBlockPool.obj
 0001:000f3f70       ??1PxcNpMemBlockPool@physx@@QEAA@XZ 00000001800f4f70 f   LowLevelCHECKED:PxcNpMemBlockPool.obj
 0001:000f4290       ?init@PxcNpMemBlockPool@physx@@QEAAXII@Z 00000001800f5290 f   LowLevelCHECKED:PxcNpMemBlockPool.obj
 0001:000f4380       ?setBlockCount@PxcNpMemBlockPool@physx@@QEAAXI@Z 00000001800f5380 f   LowLevelCHECKED:PxcNpMemBlockPool.obj
 0001:000f4440       ?getUsedBlockCount@PxcNpMemBlockPool@physx@@QEBAIXZ 00000001800f5440 f   LowLevelCHECKED:PxcNpMemBlockPool.obj
 0001:000f4450       ?getMaxUsedBlockCount@PxcNpMemBlockPool@physx@@QEBAIXZ 00000001800f5450 f   LowLevelCHECKED:PxcNpMemBlockPool.obj
 0001:000f4460       ?getPeakConstraintBlockCount@PxcNpMemBlockPool@physx@@QEBAIXZ 00000001800f5460 f   LowLevelCHECKED:PxcNpMemBlockPool.obj
 0001:000f4470       ?releaseUnusedBlocks@PxcNpMemBlockPool@physx@@QEAAXXZ 00000001800f5470 f   LowLevelCHECKED:PxcNpMemBlockPool.obj
 0001:000f44e0       ?acquireConstraintBlock@PxcNpMemBlockPool@physx@@QEAAPEAUPxcNpMemBlock@2@XZ 00000001800f54e0 f   LowLevelCHECKED:PxcNpMemBlockPool.obj
 0001:000f4510       ?acquireConstraintBlock@PxcNpMemBlockPool@physx@@QEAAPEAUPxcNpMemBlock@2@AEAV?$Array@PEAUPxcNpMemBlock@physx@@VNamedAllocator@shdfnd@2@@shdfnd@2@@Z 00000001800f5510 f   LowLevelCHECKED:PxcNpMemBlockPool.obj
 0001:000f4540       ?acquireContactBlock@PxcNpMemBlockPool@physx@@QEAAPEAUPxcNpMemBlock@2@XZ 00000001800f5540 f   LowLevelCHECKED:PxcNpMemBlockPool.obj
 0001:000f4570       ?acquireFrictionBlock@PxcNpMemBlockPool@physx@@QEAAPEAUPxcNpMemBlock@2@XZ 00000001800f5570 f   LowLevelCHECKED:PxcNpMemBlockPool.obj
 0001:000f45a0       ?acquireNpCacheBlock@PxcNpMemBlockPool@physx@@QEAAPEAUPxcNpMemBlock@2@XZ 00000001800f55a0 f   LowLevelCHECKED:PxcNpMemBlockPool.obj
 0001:000f45d0       ?acquireExceptionalConstraintMemory@PxcNpMemBlockPool@physx@@QEAAPEAEI@Z 00000001800f55d0 f   LowLevelCHECKED:PxcNpMemBlockPool.obj
 0001:000f4670       ?acquireConstraintMemory@PxcNpMemBlockPool@physx@@QEAAXXZ 00000001800f5670 f   LowLevelCHECKED:PxcNpMemBlockPool.obj
 0001:000f4770       ?releaseConstraintMemory@PxcNpMemBlockPool@physx@@QEAAXXZ 00000001800f5770 f   LowLevelCHECKED:PxcNpMemBlockPool.obj
 0001:000f48e0       ?releaseConstraintBlocks@PxcNpMemBlockPool@physx@@QEAAXAEAV?$Array@PEAUPxcNpMemBlock@physx@@VNamedAllocator@shdfnd@2@@shdfnd@2@@Z 00000001800f58e0 f   LowLevelCHECKED:PxcNpMemBlockPool.obj
 0001:000f49e0       ?releaseContacts@PxcNpMemBlockPool@physx@@QEAAXXZ 00000001800f59e0 f   LowLevelCHECKED:PxcNpMemBlockPool.obj
 0001:000f4a30       ?swapFrictionStreams@PxcNpMemBlockPool@physx@@QEAAXXZ 00000001800f5a30 f   LowLevelCHECKED:PxcNpMemBlockPool.obj
 0001:000f4a80       ?swapNpCacheStreams@PxcNpMemBlockPool@physx@@QEAAXXZ 00000001800f5a80 f   LowLevelCHECKED:PxcNpMemBlockPool.obj
 0001:000f4ad0       ?flushUnused@PxcNpMemBlockPool@physx@@QEAAXXZ 00000001800f5ad0 f   LowLevelCHECKED:PxcNpMemBlockPool.obj
 0001:000f4b20       ?acquire@PxcNpMemBlockPool@physx@@AEAAPEAUPxcNpMemBlock@2@AEAV?$Array@PEAUPxcNpMemBlock@physx@@VNamedAllocator@shdfnd@2@@shdfnd@2@PEAI1_N@Z 00000001800f5b20 f   LowLevelCHECKED:PxcNpMemBlockPool.obj
 0001:000f4d40       ?release@PxcNpMemBlockPool@physx@@AEAAXAEAV?$Array@PEAUPxcNpMemBlock@physx@@VNamedAllocator@shdfnd@2@@shdfnd@2@PEAI@Z 00000001800f5d40 f   LowLevelCHECKED:PxcNpMemBlockPool.obj
 0001:000f5230       ??1?$Array@PEAUPxcNpMemBlock@physx@@VNamedAllocator@shdfnd@2@@shdfnd@physx@@QEAA@XZ 00000001800f6230 f i LowLevelCHECKED:PxcNpMemBlockPool.obj
 0001:000f5270       ??_F?$Array@PEAUPxcNpMemBlock@physx@@VNamedAllocator@shdfnd@2@@shdfnd@physx@@QEAAXXZ 00000001800f6270 f i LowLevelCHECKED:PxcNpMemBlockPool.obj
 0001:000f52c0       ?free@PxcScratchAllocator@physx@@QEAAXPEAX@Z 00000001800f62c0 f i LowLevelCHECKED:PxcNpMemBlockPool.obj
 0001:000f5390       ?growAndPushBack@?$Array@PEAUPxcNpMemBlock@physx@@VNamedAllocator@shdfnd@2@@shdfnd@physx@@IEAAAEAPEAUPxcNpMemBlock@3@AEBQEAU43@@Z 00000001800f6390 f i LowLevelCHECKED:PxcNpMemBlockPool.obj
 0001:000f54b0       ?recreate@?$Array@PEAUPxcNpMemBlock@physx@@VNamedAllocator@shdfnd@2@@shdfnd@physx@@IEAAXI@Z 00000001800f64b0 f i LowLevelCHECKED:PxcNpMemBlockPool.obj
 0001:000f5590       ?resize@?$Array@PEAUPxcNpMemBlock@physx@@VNamedAllocator@shdfnd@2@@shdfnd@physx@@QEAAXIAEBQEAUPxcNpMemBlock@3@@Z 00000001800f6590 f i LowLevelCHECKED:PxcNpMemBlockPool.obj
 0001:000f5610       ?PxcFsApplyImpulse@physx@@YAXAEAUPxcFsData@1@IT__m128@@1@Z 00000001800f6610 f   LowLevelCHECKED:PxcArticulationSIMD.obj
 0001:000f57b0       ?PxcFsGetVelocity@physx@@YA?AUPxcSIMDSpatial@1@AEAUPxcFsData@1@I@Z 00000001800f67b0 f   LowLevelCHECKED:PxcArticulationSIMD.obj
 0001:000f5d30       ?PxcFsFlushVelocity@physx@@YAXAEAUPxcFsData@1@@Z 00000001800f6d30 f   LowLevelCHECKED:PxcArticulationSIMD.obj
 0001:000f64c0       ?solve1D@physx@@YAXAEBUPxcSolverConstraintDesc@1@AEAUPxcSolverContext@1@@Z 00000001800f74c0 f   LowLevelCHECKED:PxsSolverCoreSIMD.obj
 0001:000f6800       ?solveContact@physx@@YAXAEBUPxcSolverConstraintDesc@1@AEAUPxcSolverContext@1@@Z 00000001800f7800 f   LowLevelCHECKED:PxsSolverCoreSIMD.obj
 0001:000f6e10       ?solveContact_BStatic@physx@@YAXAEBUPxcSolverConstraintDesc@1@AEAUPxcSolverContext@1@@Z 00000001800f7e10 f   LowLevelCHECKED:PxsSolverCoreSIMD.obj
 0001:000f7270       ?solveConclude1D@physx@@YAXAEBUPxcSolverConstraintDesc@1@AEAUPxcSolverContext@1@@Z 00000001800f8270 f   LowLevelCHECKED:PxsSolverCoreSIMD.obj
 0001:000f72d0       ?solveConcludeContact@physx@@YAXAEBUPxcSolverConstraintDesc@1@AEAUPxcSolverContext@1@@Z 00000001800f82d0 f   LowLevelCHECKED:PxsSolverCoreSIMD.obj
 0001:000f7300       ?solveConcludeExtContact@physx@@YAXAEBUPxcSolverConstraintDesc@1@AEAUPxcSolverContext@1@@Z 00000001800f8300 f   LowLevelCHECKED:PxsSolverCoreSIMD.obj
 0001:000f7330       ?solveConcludeExt1D@physx@@YAXAEBUPxcSolverConstraintDesc@1@AEAUPxcSolverContext@1@@Z 00000001800f8330 f   LowLevelCHECKED:PxsSolverCoreSIMD.obj
 0001:000f7390       ?solveConcludeContact_BStatic@physx@@YAXAEBUPxcSolverConstraintDesc@1@AEAUPxcSolverContext@1@@Z 00000001800f8390 f   LowLevelCHECKED:PxsSolverCoreSIMD.obj
 0001:000f73c0       ?solve1DBlock@physx@@YAXPEIBUPxcSolverConstraintDesc@1@IAEAUPxcSolverContext@1@@Z 00000001800f83c0 f   LowLevelCHECKED:PxsSolverCoreSIMD.obj
 0001:000f7780       ?solveContactBlock@physx@@YAXPEIBUPxcSolverConstraintDesc@1@IAEAUPxcSolverContext@1@@Z 00000001800f8780 f   LowLevelCHECKED:PxsSolverCoreSIMD.obj
 0001:000f7820       ?solveContact_BStaticBlock@physx@@YAXPEIBUPxcSolverConstraintDesc@1@IAEAUPxcSolverContext@1@@Z 00000001800f8820 f   LowLevelCHECKED:PxsSolverCoreSIMD.obj
 0001:000f78c0       ?solve1DConcludeBlock@physx@@YAXPEIBUPxcSolverConstraintDesc@1@IAEAUPxcSolverContext@1@@Z 00000001800f88c0 f   LowLevelCHECKED:PxsSolverCoreSIMD.obj
 0001:000f7a00       ?solveContactConcludeBlock@physx@@YAXPEIBUPxcSolverConstraintDesc@1@IAEAUPxcSolverContext@1@@Z 00000001800f8a00 f   LowLevelCHECKED:PxsSolverCoreSIMD.obj
 0001:000f7ab0       ?solveContact_BStaticConcludeBlock@physx@@YAXPEIBUPxcSolverConstraintDesc@1@IAEAUPxcSolverContext@1@@Z 00000001800f8ab0 f   LowLevelCHECKED:PxsSolverCoreSIMD.obj
 0001:000f7b60       ?solve1DBlockWriteBack@physx@@YAXPEIBUPxcSolverConstraintDesc@1@IAEAUPxcSolverContext@1@PEIAUPxcThresholdStreamElement@1@IPEAH@Z 00000001800f8b60 f   LowLevelCHECKED:PxsSolverCoreSIMD.obj
 0001:000f7c50       ?solveContactBlockWriteBack@physx@@YAXPEIBUPxcSolverConstraintDesc@1@IAEAUPxcSolverContext@1@PEIAUPxcThresholdStreamElement@1@IPEAH@Z 00000001800f8c50 f   LowLevelCHECKED:PxsSolverCoreSIMD.obj
 0001:000f7dc0       ?solveContact_BStaticBlockWriteBack@physx@@YAXPEIBUPxcSolverConstraintDesc@1@IAEAUPxcSolverContext@1@PEIAUPxcThresholdStreamElement@1@IPEAH@Z 00000001800f8dc0 f   LowLevelCHECKED:PxsSolverCoreSIMD.obj
 0001:000f7f30       ?writeBack1DBlock@physx@@YAXPEIBUPxcSolverConstraintDesc@1@IAEAUPxcSolverContext@1@PEIAUPxcThresholdStreamElement@1@IPEAH@Z 00000001800f8f30 f   LowLevelCHECKED:PxsSolverCoreSIMD.obj
 0001:000f8000       ?contactBlockWriteBack@physx@@YAXPEIBUPxcSolverConstraintDesc@1@IAEAUPxcSolverContext@1@PEIAUPxcThresholdStreamElement@1@IPEAH@Z 00000001800f9000 f   LowLevelCHECKED:PxsSolverCoreSIMD.obj
 0001:000f82c0       ?conclude1D@physx@@YAXAEBUPxcSolverConstraintDesc@1@AEAUPxcSolverContext@1@@Z 00000001800f92c0 f   LowLevelCHECKED:PxsSolverCoreSIMD.obj
 0001:000f8310       ?concludeContact@physx@@YAXAEBUPxcSolverConstraintDesc@1@AEAUPxcSolverContext@1@@Z 00000001800f9310 f   LowLevelCHECKED:PxsSolverCoreSIMD.obj
 0001:000f8430       ?writeBack1D@physx@@YAXAEBUPxcSolverConstraintDesc@1@AEAUPxcSolverContext@1@AEAUPxcSolverBodyData@1@2@Z 00000001800f9430 f   LowLevelCHECKED:PxsSolverCoreSIMD.obj
 0001:000f8780       ?writeBackContact@physx@@YAXAEBUPxcSolverConstraintDesc@1@AEAUPxcSolverContext@1@AEAUPxcSolverBodyData@1@2@Z 00000001800f9780 f   LowLevelCHECKED:PxsSolverCoreSIMD.obj
 0001:000f9290       ?solveContactPreBlock@physx@@YAXPEIBUPxcSolverConstraintDesc@1@IAEAUPxcSolverContext@1@@Z 00000001800fa290 f   LowLevelCHECKED:PxsSolverCoreSIMDBlock.obj
 0001:000f92a0       ?solveContactPreBlock_Static@physx@@YAXPEIBUPxcSolverConstraintDesc@1@IAEAUPxcSolverContext@1@@Z 00000001800fa2a0 f   LowLevelCHECKED:PxsSolverCoreSIMDBlock.obj
 0001:000f92b0       ?solve1D4_Block@physx@@YAXPEIBUPxcSolverConstraintDesc@1@IAEAUPxcSolverContext@1@@Z 00000001800fa2b0 f   LowLevelCHECKED:PxsSolverCoreSIMDBlock.obj
 0001:000f92c0       ?solveContactPreBlock_Conclude@physx@@YAXPEIBUPxcSolverConstraintDesc@1@IAEAUPxcSolverContext@1@@Z 00000001800fa2c0 f   LowLevelCHECKED:PxsSolverCoreSIMDBlock.obj
 0001:000f9300       ?solveContactPreBlock_ConcludeStatic@physx@@YAXPEIBUPxcSolverConstraintDesc@1@IAEAUPxcSolverContext@1@@Z 00000001800fa300 f   LowLevelCHECKED:PxsSolverCoreSIMDBlock.obj
 0001:000f9340       ?solve1D4Block_Conclude@physx@@YAXPEIBUPxcSolverConstraintDesc@1@IAEAUPxcSolverContext@1@@Z 00000001800fa340 f   LowLevelCHECKED:PxsSolverCoreSIMDBlock.obj
 0001:000f93b0       ?solveContactPreBlock_WriteBack@physx@@YAXPEIBUPxcSolverConstraintDesc@1@IAEAUPxcSolverContext@1@PEIAUPxcThresholdStreamElement@1@IPEAH@Z 00000001800fa3b0 f   LowLevelCHECKED:PxsSolverCoreSIMDBlock.obj
 0001:000f94f0       ?solveContactPreBlock_WriteBackStatic@physx@@YAXPEIBUPxcSolverConstraintDesc@1@IAEAUPxcSolverContext@1@PEIAUPxcThresholdStreamElement@1@IPEAH@Z 00000001800fa4f0 f   LowLevelCHECKED:PxsSolverCoreSIMDBlock.obj
 0001:000f9630       ?solve1D4Block_WriteBack@physx@@YAXPEIBUPxcSolverConstraintDesc@1@IAEAUPxcSolverContext@1@PEIAUPxcThresholdStreamElement@1@IPEAH@Z 00000001800fa630 f   LowLevelCHECKED:PxsSolverCoreSIMDBlock.obj
 0001:000f9670       ?contactPreBlock_WriteBack@physx@@YAXPEIBUPxcSolverConstraintDesc@1@IAEAUPxcSolverContext@1@PEIAUPxcThresholdStreamElement@1@IPEAH@Z 00000001800fa670 f   LowLevelCHECKED:PxsSolverCoreSIMDBlock.obj
 0001:000f97a0       ?writeBack1D4Block@physx@@YAXPEIBUPxcSolverConstraintDesc@1@IAEAUPxcSolverContext@1@PEIAUPxcThresholdStreamElement@1@IPEAH@Z 00000001800fa7a0 f   LowLevelCHECKED:PxsSolverCoreSIMDBlock.obj
 0001:000f97c0       ?writeBack1D4@physx@@YAXPEIBUPxcSolverConstraintDesc@1@AEAUPxcSolverContext@1@PEIAPEBUPxcSolverBodyData@1@2@Z 00000001800fa7c0 f   LowLevelCHECKED:PxsSolverCoreSIMDBlock.obj
 0001:000f9b10       ?writeBackContact4_Block@physx@@YAXPEIBUPxcSolverConstraintDesc@1@AEAUPxcSolverContext@1@PEIAPEBUPxcSolverBodyData@1@2@Z 00000001800fab10 f   LowLevelCHECKED:PxsSolverCoreSIMDBlock.obj
 0001:000fc0b0       ?solveContactCoulomb@physx@@YAXAEBUPxcSolverConstraintDesc@1@AEAUPxcSolverContext@1@@Z 00000001800fd0b0 f   LowLevelCHECKED:PxsSolverCoreSIMDPF.obj
 0001:000fc490       ?solveContactCoulomb_BStatic@physx@@YAXAEBUPxcSolverConstraintDesc@1@AEAUPxcSolverContext@1@@Z 00000001800fd490 f   LowLevelCHECKED:PxsSolverCoreSIMDPF.obj
 0001:000fc750       ?solveConcludeContactCoulomb@physx@@YAXAEBUPxcSolverConstraintDesc@1@AEAUPxcSolverContext@1@@Z 00000001800fd750 f   LowLevelCHECKED:PxsSolverCoreSIMDPF.obj
 0001:000fc780       ?solveConcludeContactCoulomb_BStatic@physx@@YAXAEBUPxcSolverConstraintDesc@1@AEAUPxcSolverContext@1@@Z 00000001800fd780 f   LowLevelCHECKED:PxsSolverCoreSIMDPF.obj
 0001:000fc7b0       ?solveFriction@physx@@YAXAEBUPxcSolverConstraintDesc@1@AEAUPxcSolverContext@1@@Z 00000001800fd7b0 f   LowLevelCHECKED:PxsSolverCoreSIMDPF.obj
 0001:000fcb30       ?solveFriction_BStatic@physx@@YAXAEBUPxcSolverConstraintDesc@1@AEAUPxcSolverContext@1@@Z 00000001800fdb30 f   LowLevelCHECKED:PxsSolverCoreSIMDPF.obj
 0001:000fcdd0       ?solveFrictionBlock@physx@@YAXPEIBUPxcSolverConstraintDesc@1@IAEAUPxcSolverContext@1@@Z 00000001800fddd0 f   LowLevelCHECKED:PxsSolverCoreSIMDPF.obj
 0001:000fd1a0       ?solveFriction_BStaticBlock@physx@@YAXPEIBUPxcSolverConstraintDesc@1@IAEAUPxcSolverContext@1@@Z 00000001800fe1a0 f   LowLevelCHECKED:PxsSolverCoreSIMDPF.obj
 0001:000fd480       ?solveContactCoulombBlock@physx@@YAXPEIBUPxcSolverConstraintDesc@1@IAEAUPxcSolverContext@1@@Z 00000001800fe480 f   LowLevelCHECKED:PxsSolverCoreSIMDPF.obj
 0001:000fd4d0       ?solveContactCoulomb_BStaticBlock@physx@@YAXPEIBUPxcSolverConstraintDesc@1@IAEAUPxcSolverContext@1@@Z 00000001800fe4d0 f   LowLevelCHECKED:PxsSolverCoreSIMDPF.obj
 0001:000fd7c0       ?solveContactCoulombConcludeBlock@physx@@YAXPEIBUPxcSolverConstraintDesc@1@IAEAUPxcSolverContext@1@@Z 00000001800fe7c0 f   LowLevelCHECKED:PxsSolverCoreSIMDPF.obj
 0001:000fd820       ?solveContactCoulomb_BStaticConcludeBlock@physx@@YAXPEIBUPxcSolverConstraintDesc@1@IAEAUPxcSolverContext@1@@Z 00000001800fe820 f   LowLevelCHECKED:PxsSolverCoreSIMDPF.obj
 0001:000fd880       ?solveContactCoulombBlockWriteBack@physx@@YAXPEIBUPxcSolverConstraintDesc@1@IAEAUPxcSolverContext@1@PEIAUPxcThresholdStreamElement@1@IPEAH@Z 00000001800fe880 f   LowLevelCHECKED:PxsSolverCoreSIMDPF.obj
 0001:000fda00       ?solveContactCoulomb_BStaticBlockWriteBack@physx@@YAXPEIBUPxcSolverConstraintDesc@1@IAEAUPxcSolverContext@1@PEIAUPxcThresholdStreamElement@1@IPEAH@Z 00000001800fea00 f   LowLevelCHECKED:PxsSolverCoreSIMDPF.obj
 0001:000fdb80       ?solveFrictionBlockWriteBack@physx@@YAXPEIBUPxcSolverConstraintDesc@1@IAEAUPxcSolverContext@1@PEIAUPxcThresholdStreamElement@1@IPEAH@Z 00000001800feb80 f   LowLevelCHECKED:PxsSolverCoreSIMDPF.obj
 0001:000fdf50       ?solveFriction_BStaticBlockWriteBack@physx@@YAXPEIBUPxcSolverConstraintDesc@1@IAEAUPxcSolverContext@1@PEIAUPxcThresholdStreamElement@1@IPEAH@Z 00000001800fef50 f   LowLevelCHECKED:PxsSolverCoreSIMDPF.obj
 0001:000fe230       ?concludeContactCoulomb@physx@@YAXAEBUPxcSolverConstraintDesc@1@AEAUPxcSolverContext@1@@Z 00000001800ff230 f   LowLevelCHECKED:PxsSolverCoreSIMDPF.obj
 0001:000fe2d0       ?writeBackContactCoulomb@physx@@YAXAEBUPxcSolverConstraintDesc@1@AEAUPxcSolverContext@1@AEAUPxcSolverBodyData@1@2@Z 00000001800ff2d0 f   LowLevelCHECKED:PxsSolverCoreSIMDPF.obj
 0001:000fe370       ?solveFriction_BStaticConcludeBlock@physx@@YAXPEIBUPxcSolverConstraintDesc@1@IAEAUPxcSolverContext@1@@Z 00000001800ff370 f   LowLevelCHECKED:PxsSolverCoreSIMDPF.obj
 0001:000fefb0       ?solveContactCoulombPreBlock@physx@@YAXPEIBUPxcSolverConstraintDesc@1@IAEAUPxcSolverContext@1@@Z 00000001800fffb0 f   LowLevelCHECKED:PxsSolverCoreSIMDBlockPF.obj
 0001:000fefc0       ?solveContactCoulombPreBlock_Static@physx@@YAXPEIBUPxcSolverConstraintDesc@1@IAEAUPxcSolverContext@1@@Z 00000001800fffc0 f   LowLevelCHECKED:PxsSolverCoreSIMDBlockPF.obj
 0001:000fefd0       ?solveContactCoulombPreBlock_Conclude@physx@@YAXPEIBUPxcSolverConstraintDesc@1@IAEAUPxcSolverContext@1@@Z 00000001800fffd0 f   LowLevelCHECKED:PxsSolverCoreSIMDBlockPF.obj
 0001:000ff010       ?solveContactCoulombPreBlock_ConcludeStatic@physx@@YAXPEIBUPxcSolverConstraintDesc@1@IAEAUPxcSolverContext@1@@Z 0000000180100010 f   LowLevelCHECKED:PxsSolverCoreSIMDBlockPF.obj
 0001:000ff050       ?solveContactCoulombPreBlock_WriteBack@physx@@YAXPEIBUPxcSolverConstraintDesc@1@IAEAUPxcSolverContext@1@PEIAUPxcThresholdStreamElement@1@IPEAH@Z 0000000180100050 f   LowLevelCHECKED:PxsSolverCoreSIMDBlockPF.obj
 0001:000ff190       ?solveContactCoulombPreBlock_WriteBackStatic@physx@@YAXPEIBUPxcSolverConstraintDesc@1@IAEAUPxcSolverContext@1@PEIAUPxcThresholdStreamElement@1@IPEAH@Z 0000000180100190 f   LowLevelCHECKED:PxsSolverCoreSIMDBlockPF.obj
 0001:000ff2d0       ?solveFrictionCoulombPreBlock@physx@@YAXPEIBUPxcSolverConstraintDesc@1@IAEAUPxcSolverContext@1@@Z 00000001801002d0 f   LowLevelCHECKED:PxsSolverCoreSIMDBlockPF.obj
 0001:000ff2e0       ?solveFrictionCoulombPreBlock_Static@physx@@YAXPEIBUPxcSolverConstraintDesc@1@IAEAUPxcSolverContext@1@@Z 00000001801002e0 f   LowLevelCHECKED:PxsSolverCoreSIMDBlockPF.obj
 0001:000ff2f0       ?solveFrictionCoulombPreBlock_Conclude@physx@@YAXPEIBUPxcSolverConstraintDesc@1@IAEAUPxcSolverContext@1@@Z 00000001801002f0 f   LowLevelCHECKED:PxsSolverCoreSIMDBlockPF.obj
